
STM32L152RBT6A_V1.elf:     file format elf32-littlearm

Sections:
Idx Name          Size      VMA       LMA       File off  Algn
  0 .isr_vector   0000013c  08000000  08000000  00010000  2**0
                  CONTENTS, ALLOC, LOAD, READONLY, DATA
  1 .text         00006494  0800013c  0800013c  0001013c  2**2
                  CONTENTS, ALLOC, LOAD, READONLY, CODE
  2 .rodata       00000500  080065d0  080065d0  000165d0  2**2
                  CONTENTS, ALLOC, LOAD, READONLY, DATA
  3 .ARM.extab    00000000  08006ad0  08006ad0  000200d0  2**0
                  CONTENTS
  4 .ARM          00000008  08006ad0  08006ad0  00016ad0  2**2
                  CONTENTS, ALLOC, LOAD, READONLY, DATA
  5 .preinit_array 00000000  08006ad8  08006ad8  000200d0  2**0
                  CONTENTS, ALLOC, LOAD, DATA
  6 .init_array   00000004  08006ad8  08006ad8  00016ad8  2**2
                  CONTENTS, ALLOC, LOAD, DATA
  7 .fini_array   00000004  08006adc  08006adc  00016adc  2**2
                  CONTENTS, ALLOC, LOAD, DATA
  8 .data         000000d0  20000000  08006ae0  00020000  2**2
                  CONTENTS, ALLOC, LOAD, DATA
  9 .bss          00004598  200000d0  08006bb0  000200d0  2**2
                  ALLOC
 10 ._user_heap_stack 00000a00  20004668  08006bb0  00024668  2**0
                  ALLOC
 11 .ARM.attributes 00000029  00000000  00000000  000200d0  2**0
                  CONTENTS, READONLY
 12 .comment      00000053  00000000  00000000  000200f9  2**0
                  CONTENTS, READONLY
 13 .debug_frame  000004cc  00000000  00000000  0002014c  2**2
                  CONTENTS, READONLY, DEBUGGING, OCTETS

Disassembly of section .text:

0800013c <__do_global_dtors_aux>:
 800013c:	b510      	push	{r4, lr}
 800013e:	4c05      	ldr	r4, [pc, #20]	; (8000154 <__do_global_dtors_aux+0x18>)
 8000140:	7823      	ldrb	r3, [r4, #0]
 8000142:	b933      	cbnz	r3, 8000152 <__do_global_dtors_aux+0x16>
 8000144:	4b04      	ldr	r3, [pc, #16]	; (8000158 <__do_global_dtors_aux+0x1c>)
 8000146:	b113      	cbz	r3, 800014e <__do_global_dtors_aux+0x12>
 8000148:	4804      	ldr	r0, [pc, #16]	; (800015c <__do_global_dtors_aux+0x20>)
 800014a:	f3af 8000 	nop.w
 800014e:	2301      	movs	r3, #1
 8000150:	7023      	strb	r3, [r4, #0]
 8000152:	bd10      	pop	{r4, pc}
 8000154:	200000d0 	.word	0x200000d0
 8000158:	00000000 	.word	0x00000000
 800015c:	080065b8 	.word	0x080065b8

08000160 <frame_dummy>:
 8000160:	b508      	push	{r3, lr}
 8000162:	4b03      	ldr	r3, [pc, #12]	; (8000170 <frame_dummy+0x10>)
 8000164:	b11b      	cbz	r3, 800016e <frame_dummy+0xe>
 8000166:	4903      	ldr	r1, [pc, #12]	; (8000174 <frame_dummy+0x14>)
 8000168:	4803      	ldr	r0, [pc, #12]	; (8000178 <frame_dummy+0x18>)
 800016a:	f3af 8000 	nop.w
 800016e:	bd08      	pop	{r3, pc}
 8000170:	00000000 	.word	0x00000000
 8000174:	200000d4 	.word	0x200000d4
 8000178:	080065b8 	.word	0x080065b8

0800017c <__aeabi_uldivmod>:
 800017c:	b953      	cbnz	r3, 8000194 <__aeabi_uldivmod+0x18>
 800017e:	b94a      	cbnz	r2, 8000194 <__aeabi_uldivmod+0x18>
 8000180:	2900      	cmp	r1, #0
 8000182:	bf08      	it	eq
 8000184:	2800      	cmpeq	r0, #0
 8000186:	bf1c      	itt	ne
 8000188:	f04f 31ff 	movne.w	r1, #4294967295
 800018c:	f04f 30ff 	movne.w	r0, #4294967295
 8000190:	f000 b96e 	b.w	8000470 <__aeabi_idiv0>
 8000194:	f1ad 0c08 	sub.w	ip, sp, #8
 8000198:	e96d ce04 	strd	ip, lr, [sp, #-16]!
 800019c:	f000 f806 	bl	80001ac <__udivmoddi4>
 80001a0:	f8dd e004 	ldr.w	lr, [sp, #4]
 80001a4:	e9dd 2302 	ldrd	r2, r3, [sp, #8]
 80001a8:	b004      	add	sp, #16
 80001aa:	4770      	bx	lr

080001ac <__udivmoddi4>:
 80001ac:	e92d 47f0 	stmdb	sp!, {r4, r5, r6, r7, r8, r9, sl, lr}
 80001b0:	9e08      	ldr	r6, [sp, #32]
 80001b2:	460d      	mov	r5, r1
 80001b4:	4604      	mov	r4, r0
 80001b6:	468e      	mov	lr, r1
 80001b8:	2b00      	cmp	r3, #0
 80001ba:	f040 8083 	bne.w	80002c4 <__udivmoddi4+0x118>
 80001be:	428a      	cmp	r2, r1
 80001c0:	4617      	mov	r7, r2
 80001c2:	d947      	bls.n	8000254 <__udivmoddi4+0xa8>
 80001c4:	fab2 f382 	clz	r3, r2
 80001c8:	b14b      	cbz	r3, 80001de <__udivmoddi4+0x32>
 80001ca:	f1c3 0120 	rsb	r1, r3, #32
 80001ce:	fa05 fe03 	lsl.w	lr, r5, r3
 80001d2:	fa20 f101 	lsr.w	r1, r0, r1
 80001d6:	409f      	lsls	r7, r3
 80001d8:	ea41 0e0e 	orr.w	lr, r1, lr
 80001dc:	409c      	lsls	r4, r3
 80001de:	ea4f 4817 	mov.w	r8, r7, lsr #16
 80001e2:	fbbe fcf8 	udiv	ip, lr, r8
 80001e6:	fa1f f987 	uxth.w	r9, r7
 80001ea:	fb08 e21c 	mls	r2, r8, ip, lr
 80001ee:	fb0c f009 	mul.w	r0, ip, r9
 80001f2:	0c21      	lsrs	r1, r4, #16
 80001f4:	ea41 4202 	orr.w	r2, r1, r2, lsl #16
 80001f8:	4290      	cmp	r0, r2
 80001fa:	d90a      	bls.n	8000212 <__udivmoddi4+0x66>
 80001fc:	18ba      	adds	r2, r7, r2
 80001fe:	f10c 31ff 	add.w	r1, ip, #4294967295
 8000202:	f080 8118 	bcs.w	8000436 <__udivmoddi4+0x28a>
 8000206:	4290      	cmp	r0, r2
 8000208:	f240 8115 	bls.w	8000436 <__udivmoddi4+0x28a>
 800020c:	f1ac 0c02 	sub.w	ip, ip, #2
 8000210:	443a      	add	r2, r7
 8000212:	1a12      	subs	r2, r2, r0
 8000214:	fbb2 f0f8 	udiv	r0, r2, r8
 8000218:	fb08 2210 	mls	r2, r8, r0, r2
 800021c:	fb00 f109 	mul.w	r1, r0, r9
 8000220:	b2a4      	uxth	r4, r4
 8000222:	ea44 4402 	orr.w	r4, r4, r2, lsl #16
 8000226:	42a1      	cmp	r1, r4
 8000228:	d909      	bls.n	800023e <__udivmoddi4+0x92>
 800022a:	193c      	adds	r4, r7, r4
 800022c:	f100 32ff 	add.w	r2, r0, #4294967295
 8000230:	f080 8103 	bcs.w	800043a <__udivmoddi4+0x28e>
 8000234:	42a1      	cmp	r1, r4
 8000236:	f240 8100 	bls.w	800043a <__udivmoddi4+0x28e>
 800023a:	3802      	subs	r0, #2
 800023c:	443c      	add	r4, r7
 800023e:	1a64      	subs	r4, r4, r1
 8000240:	2100      	movs	r1, #0
 8000242:	ea40 400c 	orr.w	r0, r0, ip, lsl #16
 8000246:	b11e      	cbz	r6, 8000250 <__udivmoddi4+0xa4>
 8000248:	2200      	movs	r2, #0
 800024a:	40dc      	lsrs	r4, r3
 800024c:	e9c6 4200 	strd	r4, r2, [r6]
 8000250:	e8bd 87f0 	ldmia.w	sp!, {r4, r5, r6, r7, r8, r9, sl, pc}
 8000254:	b902      	cbnz	r2, 8000258 <__udivmoddi4+0xac>
 8000256:	deff      	udf	#255	; 0xff
 8000258:	fab2 f382 	clz	r3, r2
 800025c:	2b00      	cmp	r3, #0
 800025e:	d14f      	bne.n	8000300 <__udivmoddi4+0x154>
 8000260:	1a8d      	subs	r5, r1, r2
 8000262:	2101      	movs	r1, #1
 8000264:	ea4f 4e12 	mov.w	lr, r2, lsr #16
 8000268:	fa1f f882 	uxth.w	r8, r2
 800026c:	fbb5 fcfe 	udiv	ip, r5, lr
 8000270:	fb0e 551c 	mls	r5, lr, ip, r5
 8000274:	fb08 f00c 	mul.w	r0, r8, ip
 8000278:	0c22      	lsrs	r2, r4, #16
 800027a:	ea42 4505 	orr.w	r5, r2, r5, lsl #16
 800027e:	42a8      	cmp	r0, r5
 8000280:	d907      	bls.n	8000292 <__udivmoddi4+0xe6>
 8000282:	197d      	adds	r5, r7, r5
 8000284:	f10c 32ff 	add.w	r2, ip, #4294967295
 8000288:	d202      	bcs.n	8000290 <__udivmoddi4+0xe4>
 800028a:	42a8      	cmp	r0, r5
 800028c:	f200 80e9 	bhi.w	8000462 <__udivmoddi4+0x2b6>
 8000290:	4694      	mov	ip, r2
 8000292:	1a2d      	subs	r5, r5, r0
 8000294:	fbb5 f0fe 	udiv	r0, r5, lr
 8000298:	fb0e 5510 	mls	r5, lr, r0, r5
 800029c:	fb08 f800 	mul.w	r8, r8, r0
 80002a0:	b2a4      	uxth	r4, r4
 80002a2:	ea44 4405 	orr.w	r4, r4, r5, lsl #16
 80002a6:	45a0      	cmp	r8, r4
 80002a8:	d907      	bls.n	80002ba <__udivmoddi4+0x10e>
 80002aa:	193c      	adds	r4, r7, r4
 80002ac:	f100 32ff 	add.w	r2, r0, #4294967295
 80002b0:	d202      	bcs.n	80002b8 <__udivmoddi4+0x10c>
 80002b2:	45a0      	cmp	r8, r4
 80002b4:	f200 80d9 	bhi.w	800046a <__udivmoddi4+0x2be>
 80002b8:	4610      	mov	r0, r2
 80002ba:	eba4 0408 	sub.w	r4, r4, r8
 80002be:	ea40 400c 	orr.w	r0, r0, ip, lsl #16
 80002c2:	e7c0      	b.n	8000246 <__udivmoddi4+0x9a>
 80002c4:	428b      	cmp	r3, r1
 80002c6:	d908      	bls.n	80002da <__udivmoddi4+0x12e>
 80002c8:	2e00      	cmp	r6, #0
 80002ca:	f000 80b1 	beq.w	8000430 <__udivmoddi4+0x284>
 80002ce:	2100      	movs	r1, #0
 80002d0:	e9c6 0500 	strd	r0, r5, [r6]
 80002d4:	4608      	mov	r0, r1
 80002d6:	e8bd 87f0 	ldmia.w	sp!, {r4, r5, r6, r7, r8, r9, sl, pc}
 80002da:	fab3 f183 	clz	r1, r3
 80002de:	2900      	cmp	r1, #0
 80002e0:	d14b      	bne.n	800037a <__udivmoddi4+0x1ce>
 80002e2:	42ab      	cmp	r3, r5
 80002e4:	d302      	bcc.n	80002ec <__udivmoddi4+0x140>
 80002e6:	4282      	cmp	r2, r0
 80002e8:	f200 80b9 	bhi.w	800045e <__udivmoddi4+0x2b2>
 80002ec:	1a84      	subs	r4, r0, r2
 80002ee:	eb65 0303 	sbc.w	r3, r5, r3
 80002f2:	2001      	movs	r0, #1
 80002f4:	469e      	mov	lr, r3
 80002f6:	2e00      	cmp	r6, #0
 80002f8:	d0aa      	beq.n	8000250 <__udivmoddi4+0xa4>
 80002fa:	e9c6 4e00 	strd	r4, lr, [r6]
 80002fe:	e7a7      	b.n	8000250 <__udivmoddi4+0xa4>
 8000300:	409f      	lsls	r7, r3
 8000302:	f1c3 0220 	rsb	r2, r3, #32
 8000306:	40d1      	lsrs	r1, r2
 8000308:	ea4f 4e17 	mov.w	lr, r7, lsr #16
 800030c:	fbb1 f0fe 	udiv	r0, r1, lr
 8000310:	fa1f f887 	uxth.w	r8, r7
 8000314:	fb0e 1110 	mls	r1, lr, r0, r1
 8000318:	fa24 f202 	lsr.w	r2, r4, r2
 800031c:	409d      	lsls	r5, r3
 800031e:	fb00 fc08 	mul.w	ip, r0, r8
 8000322:	432a      	orrs	r2, r5
 8000324:	0c15      	lsrs	r5, r2, #16
 8000326:	ea45 4501 	orr.w	r5, r5, r1, lsl #16
 800032a:	45ac      	cmp	ip, r5
 800032c:	fa04 f403 	lsl.w	r4, r4, r3
 8000330:	d909      	bls.n	8000346 <__udivmoddi4+0x19a>
 8000332:	197d      	adds	r5, r7, r5
 8000334:	f100 31ff 	add.w	r1, r0, #4294967295
 8000338:	f080 808f 	bcs.w	800045a <__udivmoddi4+0x2ae>
 800033c:	45ac      	cmp	ip, r5
 800033e:	f240 808c 	bls.w	800045a <__udivmoddi4+0x2ae>
 8000342:	3802      	subs	r0, #2
 8000344:	443d      	add	r5, r7
 8000346:	eba5 050c 	sub.w	r5, r5, ip
 800034a:	fbb5 f1fe 	udiv	r1, r5, lr
 800034e:	fb0e 5c11 	mls	ip, lr, r1, r5
 8000352:	fb01 f908 	mul.w	r9, r1, r8
 8000356:	b295      	uxth	r5, r2
 8000358:	ea45 450c 	orr.w	r5, r5, ip, lsl #16
 800035c:	45a9      	cmp	r9, r5
 800035e:	d907      	bls.n	8000370 <__udivmoddi4+0x1c4>
 8000360:	197d      	adds	r5, r7, r5
 8000362:	f101 32ff 	add.w	r2, r1, #4294967295
 8000366:	d274      	bcs.n	8000452 <__udivmoddi4+0x2a6>
 8000368:	45a9      	cmp	r9, r5
 800036a:	d972      	bls.n	8000452 <__udivmoddi4+0x2a6>
 800036c:	3902      	subs	r1, #2
 800036e:	443d      	add	r5, r7
 8000370:	eba5 0509 	sub.w	r5, r5, r9
 8000374:	ea41 4100 	orr.w	r1, r1, r0, lsl #16
 8000378:	e778      	b.n	800026c <__udivmoddi4+0xc0>
 800037a:	f1c1 0720 	rsb	r7, r1, #32
 800037e:	408b      	lsls	r3, r1
 8000380:	fa22 fc07 	lsr.w	ip, r2, r7
 8000384:	ea4c 0c03 	orr.w	ip, ip, r3
 8000388:	fa25 f407 	lsr.w	r4, r5, r7
 800038c:	ea4f 4e1c 	mov.w	lr, ip, lsr #16
 8000390:	fbb4 f9fe 	udiv	r9, r4, lr
 8000394:	fa1f f88c 	uxth.w	r8, ip
 8000398:	fb0e 4419 	mls	r4, lr, r9, r4
 800039c:	fa20 f307 	lsr.w	r3, r0, r7
 80003a0:	fb09 fa08 	mul.w	sl, r9, r8
 80003a4:	408d      	lsls	r5, r1
 80003a6:	431d      	orrs	r5, r3
 80003a8:	0c2b      	lsrs	r3, r5, #16
 80003aa:	ea43 4404 	orr.w	r4, r3, r4, lsl #16
 80003ae:	45a2      	cmp	sl, r4
 80003b0:	fa02 f201 	lsl.w	r2, r2, r1
 80003b4:	fa00 f301 	lsl.w	r3, r0, r1
 80003b8:	d909      	bls.n	80003ce <__udivmoddi4+0x222>
 80003ba:	eb1c 0404 	adds.w	r4, ip, r4
 80003be:	f109 30ff 	add.w	r0, r9, #4294967295
 80003c2:	d248      	bcs.n	8000456 <__udivmoddi4+0x2aa>
 80003c4:	45a2      	cmp	sl, r4
 80003c6:	d946      	bls.n	8000456 <__udivmoddi4+0x2aa>
 80003c8:	f1a9 0902 	sub.w	r9, r9, #2
 80003cc:	4464      	add	r4, ip
 80003ce:	eba4 040a 	sub.w	r4, r4, sl
 80003d2:	fbb4 f0fe 	udiv	r0, r4, lr
 80003d6:	fb0e 4410 	mls	r4, lr, r0, r4
 80003da:	fb00 fa08 	mul.w	sl, r0, r8
 80003de:	b2ad      	uxth	r5, r5
 80003e0:	ea45 4404 	orr.w	r4, r5, r4, lsl #16
 80003e4:	45a2      	cmp	sl, r4
 80003e6:	d908      	bls.n	80003fa <__udivmoddi4+0x24e>
 80003e8:	eb1c 0404 	adds.w	r4, ip, r4
 80003ec:	f100 35ff 	add.w	r5, r0, #4294967295
 80003f0:	d22d      	bcs.n	800044e <__udivmoddi4+0x2a2>
 80003f2:	45a2      	cmp	sl, r4
 80003f4:	d92b      	bls.n	800044e <__udivmoddi4+0x2a2>
 80003f6:	3802      	subs	r0, #2
 80003f8:	4464      	add	r4, ip
 80003fa:	ea40 4009 	orr.w	r0, r0, r9, lsl #16
 80003fe:	fba0 8902 	umull	r8, r9, r0, r2
 8000402:	eba4 040a 	sub.w	r4, r4, sl
 8000406:	454c      	cmp	r4, r9
 8000408:	46c6      	mov	lr, r8
 800040a:	464d      	mov	r5, r9
 800040c:	d319      	bcc.n	8000442 <__udivmoddi4+0x296>
 800040e:	d016      	beq.n	800043e <__udivmoddi4+0x292>
 8000410:	b15e      	cbz	r6, 800042a <__udivmoddi4+0x27e>
 8000412:	ebb3 020e 	subs.w	r2, r3, lr
 8000416:	eb64 0405 	sbc.w	r4, r4, r5
 800041a:	fa04 f707 	lsl.w	r7, r4, r7
 800041e:	fa22 f301 	lsr.w	r3, r2, r1
 8000422:	431f      	orrs	r7, r3
 8000424:	40cc      	lsrs	r4, r1
 8000426:	e9c6 7400 	strd	r7, r4, [r6]
 800042a:	2100      	movs	r1, #0
 800042c:	e8bd 87f0 	ldmia.w	sp!, {r4, r5, r6, r7, r8, r9, sl, pc}
 8000430:	4631      	mov	r1, r6
 8000432:	4630      	mov	r0, r6
 8000434:	e70c      	b.n	8000250 <__udivmoddi4+0xa4>
 8000436:	468c      	mov	ip, r1
 8000438:	e6eb      	b.n	8000212 <__udivmoddi4+0x66>
 800043a:	4610      	mov	r0, r2
 800043c:	e6ff      	b.n	800023e <__udivmoddi4+0x92>
 800043e:	4543      	cmp	r3, r8
 8000440:	d2e6      	bcs.n	8000410 <__udivmoddi4+0x264>
 8000442:	ebb8 0e02 	subs.w	lr, r8, r2
 8000446:	eb69 050c 	sbc.w	r5, r9, ip
 800044a:	3801      	subs	r0, #1
 800044c:	e7e0      	b.n	8000410 <__udivmoddi4+0x264>
 800044e:	4628      	mov	r0, r5
 8000450:	e7d3      	b.n	80003fa <__udivmoddi4+0x24e>
 8000452:	4611      	mov	r1, r2
 8000454:	e78c      	b.n	8000370 <__udivmoddi4+0x1c4>
 8000456:	4681      	mov	r9, r0
 8000458:	e7b9      	b.n	80003ce <__udivmoddi4+0x222>
 800045a:	4608      	mov	r0, r1
 800045c:	e773      	b.n	8000346 <__udivmoddi4+0x19a>
 800045e:	4608      	mov	r0, r1
 8000460:	e749      	b.n	80002f6 <__udivmoddi4+0x14a>
 8000462:	f1ac 0c02 	sub.w	ip, ip, #2
 8000466:	443d      	add	r5, r7
 8000468:	e713      	b.n	8000292 <__udivmoddi4+0xe6>
 800046a:	3802      	subs	r0, #2
 800046c:	443c      	add	r4, r7
 800046e:	e724      	b.n	80002ba <__udivmoddi4+0x10e>

08000470 <__aeabi_idiv0>:
 8000470:	4770      	bx	lr
 8000472:	bf00      	nop

08000474 <store_char>:
 8000474:	6c0b      	ldr	r3, [r1, #64]	; 0x40
 8000476:	6c4a      	ldr	r2, [r1, #68]	; 0x44
 8000478:	3301      	adds	r3, #1
 800047a:	f003 033f 	and.w	r3, r3, #63	; 0x3f
 800047e:	429a      	cmp	r2, r3
 8000480:	bf1e      	ittt	ne
 8000482:	6c0a      	ldrne	r2, [r1, #64]	; 0x40
 8000484:	5488      	strbne	r0, [r1, r2]
 8000486:	640b      	strne	r3, [r1, #64]	; 0x40
 8000488:	4770      	bx	lr
	...

0800048c <Uart_isr>:
 800048c:	6803      	ldr	r3, [r0, #0]
 800048e:	6819      	ldr	r1, [r3, #0]
 8000490:	68da      	ldr	r2, [r3, #12]
 8000492:	0688      	lsls	r0, r1, #26
 8000494:	d508      	bpl.n	80004a8 <Uart_isr+0x1c>
 8000496:	0690      	lsls	r0, r2, #26
 8000498:	d506      	bpl.n	80004a8 <Uart_isr+0x1c>
 800049a:	681a      	ldr	r2, [r3, #0]
 800049c:	6858      	ldr	r0, [r3, #4]
 800049e:	4b0e      	ldr	r3, [pc, #56]	; (80004d8 <Uart_isr+0x4c>)
 80004a0:	b2c0      	uxtb	r0, r0
 80004a2:	6819      	ldr	r1, [r3, #0]
 80004a4:	f7ff bfe6 	b.w	8000474 <store_char>
 80004a8:	0609      	lsls	r1, r1, #24
 80004aa:	d514      	bpl.n	80004d6 <Uart_isr+0x4a>
 80004ac:	0612      	lsls	r2, r2, #24
 80004ae:	d512      	bpl.n	80004d6 <Uart_isr+0x4a>
 80004b0:	4a0a      	ldr	r2, [pc, #40]	; (80004dc <Uart_isr+0x50>)
 80004b2:	6c10      	ldr	r0, [r2, #64]	; 0x40
 80004b4:	6c51      	ldr	r1, [r2, #68]	; 0x44
 80004b6:	4288      	cmp	r0, r1
 80004b8:	d104      	bne.n	80004c4 <Uart_isr+0x38>
 80004ba:	68da      	ldr	r2, [r3, #12]
 80004bc:	f022 0280 	bic.w	r2, r2, #128	; 0x80
 80004c0:	60da      	str	r2, [r3, #12]
 80004c2:	4770      	bx	lr
 80004c4:	6c51      	ldr	r1, [r2, #68]	; 0x44
 80004c6:	5c50      	ldrb	r0, [r2, r1]
 80004c8:	6c51      	ldr	r1, [r2, #68]	; 0x44
 80004ca:	3101      	adds	r1, #1
 80004cc:	f001 013f 	and.w	r1, r1, #63	; 0x3f
 80004d0:	6451      	str	r1, [r2, #68]	; 0x44
 80004d2:	681a      	ldr	r2, [r3, #0]
 80004d4:	6058      	str	r0, [r3, #4]
 80004d6:	4770      	bx	lr
 80004d8:	200003c0 	.word	0x200003c0
 80004dc:	200000ec 	.word	0x200000ec

080004e0 <SPI_TxBuffer>:
 80004e0:	4b05      	ldr	r3, [pc, #20]	; (80004f8 <SPI_TxBuffer+0x18>)
 80004e2:	460a      	mov	r2, r1
 80004e4:	6819      	ldr	r1, [r3, #0]
 80004e6:	688b      	ldr	r3, [r1, #8]
 80004e8:	079b      	lsls	r3, r3, #30
 80004ea:	d5fc      	bpl.n	80004e6 <SPI_TxBuffer+0x6>
 80004ec:	4601      	mov	r1, r0
 80004ee:	2364      	movs	r3, #100	; 0x64
 80004f0:	4801      	ldr	r0, [pc, #4]	; (80004f8 <SPI_TxBuffer+0x18>)
 80004f2:	f003 bab3 	b.w	8003a5c <HAL_SPI_Transmit>
 80004f6:	bf00      	nop
 80004f8:	200003cc 	.word	0x200003cc

080004fc <SPI_TxByte>:
 80004fc:	b507      	push	{r0, r1, r2, lr}
 80004fe:	4b08      	ldr	r3, [pc, #32]	; (8000520 <SPI_TxByte+0x24>)
 8000500:	f88d 0007 	strb.w	r0, [sp, #7]
 8000504:	681a      	ldr	r2, [r3, #0]
 8000506:	6893      	ldr	r3, [r2, #8]
 8000508:	079b      	lsls	r3, r3, #30
 800050a:	d5fc      	bpl.n	8000506 <SPI_TxByte+0xa>
 800050c:	2364      	movs	r3, #100	; 0x64
 800050e:	2201      	movs	r2, #1
 8000510:	f10d 0107 	add.w	r1, sp, #7
 8000514:	4802      	ldr	r0, [pc, #8]	; (8000520 <SPI_TxByte+0x24>)
 8000516:	f003 faa1 	bl	8003a5c <HAL_SPI_Transmit>
 800051a:	b003      	add	sp, #12
 800051c:	f85d fb04 	ldr.w	pc, [sp], #4
 8000520:	200003cc 	.word	0x200003cc

08000524 <SELECT>:
 8000524:	b508      	push	{r3, lr}
 8000526:	4805      	ldr	r0, [pc, #20]	; (800053c <SELECT+0x18>)
 8000528:	2200      	movs	r2, #0
 800052a:	2140      	movs	r1, #64	; 0x40
 800052c:	f001 fc60 	bl	8001df0 <HAL_GPIO_WritePin>
 8000530:	e8bd 4008 	ldmia.w	sp!, {r3, lr}
 8000534:	2001      	movs	r0, #1
 8000536:	f001 b873 	b.w	8001620 <HAL_Delay>
 800053a:	bf00      	nop
 800053c:	40020400 	.word	0x40020400

08000540 <DESELECT>:
 8000540:	b508      	push	{r3, lr}
 8000542:	4805      	ldr	r0, [pc, #20]	; (8000558 <DESELECT+0x18>)
 8000544:	2201      	movs	r2, #1
 8000546:	2140      	movs	r1, #64	; 0x40
 8000548:	f001 fc52 	bl	8001df0 <HAL_GPIO_WritePin>
 800054c:	e8bd 4008 	ldmia.w	sp!, {r3, lr}
 8000550:	2001      	movs	r0, #1
 8000552:	f001 b865 	b.w	8001620 <HAL_Delay>
 8000556:	bf00      	nop
 8000558:	40020400 	.word	0x40020400

0800055c <SPI_RxByte>:
 800055c:	b51f      	push	{r0, r1, r2, r3, r4, lr}
 800055e:	23ff      	movs	r3, #255	; 0xff
 8000560:	f88d 300e 	strb.w	r3, [sp, #14]
 8000564:	4b09      	ldr	r3, [pc, #36]	; (800058c <SPI_RxByte+0x30>)
 8000566:	681a      	ldr	r2, [r3, #0]
 8000568:	6893      	ldr	r3, [r2, #8]
 800056a:	079b      	lsls	r3, r3, #30
 800056c:	d5fc      	bpl.n	8000568 <SPI_RxByte+0xc>
 800056e:	2364      	movs	r3, #100	; 0x64
 8000570:	f10d 020f 	add.w	r2, sp, #15
 8000574:	9300      	str	r3, [sp, #0]
 8000576:	f10d 010e 	add.w	r1, sp, #14
 800057a:	2301      	movs	r3, #1
 800057c:	4803      	ldr	r0, [pc, #12]	; (800058c <SPI_RxByte+0x30>)
 800057e:	f003 fb1a 	bl	8003bb6 <HAL_SPI_TransmitReceive>
 8000582:	f89d 000f 	ldrb.w	r0, [sp, #15]
 8000586:	b005      	add	sp, #20
 8000588:	f85d fb04 	ldr.w	pc, [sp], #4
 800058c:	200003cc 	.word	0x200003cc

08000590 <SD_PowerOn>:
 8000590:	b513      	push	{r0, r1, r4, lr}
 8000592:	f7ff ffd5 	bl	8000540 <DESELECT>
 8000596:	240a      	movs	r4, #10
 8000598:	20ff      	movs	r0, #255	; 0xff
 800059a:	f7ff ffaf 	bl	80004fc <SPI_TxByte>
 800059e:	3c01      	subs	r4, #1
 80005a0:	d1fa      	bne.n	8000598 <SD_PowerOn+0x8>
 80005a2:	f7ff ffbf 	bl	8000524 <SELECT>
 80005a6:	2340      	movs	r3, #64	; 0x40
 80005a8:	9300      	str	r3, [sp, #0]
 80005aa:	f44f 4315 	mov.w	r3, #38144	; 0x9500
 80005ae:	2106      	movs	r1, #6
 80005b0:	4668      	mov	r0, sp
 80005b2:	f8ad 3004 	strh.w	r3, [sp, #4]
 80005b6:	f44f 5400 	mov.w	r4, #8192	; 0x2000
 80005ba:	f7ff ff91 	bl	80004e0 <SPI_TxBuffer>
 80005be:	f7ff ffcd 	bl	800055c <SPI_RxByte>
 80005c2:	2801      	cmp	r0, #1
 80005c4:	d001      	beq.n	80005ca <SD_PowerOn+0x3a>
 80005c6:	3c01      	subs	r4, #1
 80005c8:	d1f9      	bne.n	80005be <SD_PowerOn+0x2e>
 80005ca:	f7ff ffb9 	bl	8000540 <DESELECT>
 80005ce:	20ff      	movs	r0, #255	; 0xff
 80005d0:	f7ff ff94 	bl	80004fc <SPI_TxByte>
 80005d4:	2201      	movs	r2, #1
 80005d6:	4b02      	ldr	r3, [pc, #8]	; (80005e0 <SD_PowerOn+0x50>)
 80005d8:	701a      	strb	r2, [r3, #0]
 80005da:	b002      	add	sp, #8
 80005dc:	bd10      	pop	{r4, pc}
 80005de:	bf00      	nop
 80005e0:	20000135 	.word	0x20000135

080005e4 <SD_ReadyWait>:
 80005e4:	f44f 72fa 	mov.w	r2, #500	; 0x1f4
 80005e8:	b510      	push	{r4, lr}
 80005ea:	4c05      	ldr	r4, [pc, #20]	; (8000600 <SD_ReadyWait+0x1c>)
 80005ec:	8022      	strh	r2, [r4, #0]
 80005ee:	f7ff ffb5 	bl	800055c <SPI_RxByte>
 80005f2:	28ff      	cmp	r0, #255	; 0xff
 80005f4:	d002      	beq.n	80005fc <SD_ReadyWait+0x18>
 80005f6:	8823      	ldrh	r3, [r4, #0]
 80005f8:	2b00      	cmp	r3, #0
 80005fa:	d1f8      	bne.n	80005ee <SD_ReadyWait+0xa>
 80005fc:	bd10      	pop	{r4, pc}
 80005fe:	bf00      	nop
 8000600:	200003c4 	.word	0x200003c4

08000604 <SD_TxDataBlock>:
 8000604:	b570      	push	{r4, r5, r6, lr}
 8000606:	4606      	mov	r6, r0
 8000608:	460d      	mov	r5, r1
 800060a:	f7ff ffeb 	bl	80005e4 <SD_ReadyWait>
 800060e:	28ff      	cmp	r0, #255	; 0xff
 8000610:	f04f 0400 	mov.w	r4, #0
 8000614:	d123      	bne.n	800065e <SD_TxDataBlock+0x5a>
 8000616:	4628      	mov	r0, r5
 8000618:	f7ff ff70 	bl	80004fc <SPI_TxByte>
 800061c:	2dfd      	cmp	r5, #253	; 0xfd
 800061e:	d018      	beq.n	8000652 <SD_TxDataBlock+0x4e>
 8000620:	f44f 7100 	mov.w	r1, #512	; 0x200
 8000624:	4630      	mov	r0, r6
 8000626:	f7ff ff5b 	bl	80004e0 <SPI_TxBuffer>
 800062a:	2541      	movs	r5, #65	; 0x41
 800062c:	f7ff ff96 	bl	800055c <SPI_RxByte>
 8000630:	f7ff ff94 	bl	800055c <SPI_RxByte>
 8000634:	f7ff ff92 	bl	800055c <SPI_RxByte>
 8000638:	f000 031f 	and.w	r3, r0, #31
 800063c:	2b05      	cmp	r3, #5
 800063e:	4604      	mov	r4, r0
 8000640:	d003      	beq.n	800064a <SD_TxDataBlock+0x46>
 8000642:	3d01      	subs	r5, #1
 8000644:	f015 05ff 	ands.w	r5, r5, #255	; 0xff
 8000648:	d1f4      	bne.n	8000634 <SD_TxDataBlock+0x30>
 800064a:	f7ff ff87 	bl	800055c <SPI_RxByte>
 800064e:	2800      	cmp	r0, #0
 8000650:	d0fb      	beq.n	800064a <SD_TxDataBlock+0x46>
 8000652:	f004 041f 	and.w	r4, r4, #31
 8000656:	1f63      	subs	r3, r4, #5
 8000658:	4258      	negs	r0, r3
 800065a:	4158      	adcs	r0, r3
 800065c:	bd70      	pop	{r4, r5, r6, pc}
 800065e:	4620      	mov	r0, r4
 8000660:	e7fc      	b.n	800065c <SD_TxDataBlock+0x58>

08000662 <SD_SendCmd>:
 8000662:	b538      	push	{r3, r4, r5, lr}
 8000664:	4604      	mov	r4, r0
 8000666:	460d      	mov	r5, r1
 8000668:	f7ff ffbc 	bl	80005e4 <SD_ReadyWait>
 800066c:	28ff      	cmp	r0, #255	; 0xff
 800066e:	d128      	bne.n	80006c2 <SD_SendCmd+0x60>
 8000670:	4620      	mov	r0, r4
 8000672:	f7ff ff43 	bl	80004fc <SPI_TxByte>
 8000676:	0e28      	lsrs	r0, r5, #24
 8000678:	f7ff ff40 	bl	80004fc <SPI_TxByte>
 800067c:	f3c5 4007 	ubfx	r0, r5, #16, #8
 8000680:	f7ff ff3c 	bl	80004fc <SPI_TxByte>
 8000684:	f3c5 2007 	ubfx	r0, r5, #8, #8
 8000688:	f7ff ff38 	bl	80004fc <SPI_TxByte>
 800068c:	b2e8      	uxtb	r0, r5
 800068e:	f7ff ff35 	bl	80004fc <SPI_TxByte>
 8000692:	2c40      	cmp	r4, #64	; 0x40
 8000694:	d013      	beq.n	80006be <SD_SendCmd+0x5c>
 8000696:	2c48      	cmp	r4, #72	; 0x48
 8000698:	bf0c      	ite	eq
 800069a:	2087      	moveq	r0, #135	; 0x87
 800069c:	2001      	movne	r0, #1
 800069e:	f7ff ff2d 	bl	80004fc <SPI_TxByte>
 80006a2:	2c4c      	cmp	r4, #76	; 0x4c
 80006a4:	d101      	bne.n	80006aa <SD_SendCmd+0x48>
 80006a6:	f7ff ff59 	bl	800055c <SPI_RxByte>
 80006aa:	240a      	movs	r4, #10
 80006ac:	f7ff ff56 	bl	800055c <SPI_RxByte>
 80006b0:	0603      	lsls	r3, r0, #24
 80006b2:	d503      	bpl.n	80006bc <SD_SendCmd+0x5a>
 80006b4:	3c01      	subs	r4, #1
 80006b6:	f014 04ff 	ands.w	r4, r4, #255	; 0xff
 80006ba:	d1f7      	bne.n	80006ac <SD_SendCmd+0x4a>
 80006bc:	bd38      	pop	{r3, r4, r5, pc}
 80006be:	2095      	movs	r0, #149	; 0x95
 80006c0:	e7ed      	b.n	800069e <SD_SendCmd+0x3c>
 80006c2:	20ff      	movs	r0, #255	; 0xff
 80006c4:	e7fa      	b.n	80006bc <SD_SendCmd+0x5a>
	...

080006c8 <SD_RxDataBlock>:
 80006c8:	22c8      	movs	r2, #200	; 0xc8
 80006ca:	b570      	push	{r4, r5, r6, lr}
 80006cc:	4604      	mov	r4, r0
 80006ce:	460e      	mov	r6, r1
 80006d0:	4d0d      	ldr	r5, [pc, #52]	; (8000708 <SD_RxDataBlock+0x40>)
 80006d2:	802a      	strh	r2, [r5, #0]
 80006d4:	f7ff ff42 	bl	800055c <SPI_RxByte>
 80006d8:	28ff      	cmp	r0, #255	; 0xff
 80006da:	d103      	bne.n	80006e4 <SD_RxDataBlock+0x1c>
 80006dc:	8828      	ldrh	r0, [r5, #0]
 80006de:	2800      	cmp	r0, #0
 80006e0:	d1f8      	bne.n	80006d4 <SD_RxDataBlock+0xc>
 80006e2:	bd70      	pop	{r4, r5, r6, pc}
 80006e4:	28fe      	cmp	r0, #254	; 0xfe
 80006e6:	d10d      	bne.n	8000704 <SD_RxDataBlock+0x3c>
 80006e8:	1e65      	subs	r5, r4, #1
 80006ea:	4434      	add	r4, r6
 80006ec:	f7ff ff36 	bl	800055c <SPI_RxByte>
 80006f0:	f805 0f01 	strb.w	r0, [r5, #1]!
 80006f4:	42a5      	cmp	r5, r4
 80006f6:	d1f9      	bne.n	80006ec <SD_RxDataBlock+0x24>
 80006f8:	f7ff ff30 	bl	800055c <SPI_RxByte>
 80006fc:	f7ff ff2e 	bl	800055c <SPI_RxByte>
 8000700:	2001      	movs	r0, #1
 8000702:	e7ee      	b.n	80006e2 <SD_RxDataBlock+0x1a>
 8000704:	2000      	movs	r0, #0
 8000706:	e7ec      	b.n	80006e2 <SD_RxDataBlock+0x1a>
 8000708:	200003c6 	.word	0x200003c6

0800070c <SD_disk_initialize>:
 800070c:	e92d 41f3 	stmdb	sp!, {r0, r1, r4, r5, r6, r7, r8, lr}
 8000710:	2800      	cmp	r0, #0
 8000712:	f040 809c 	bne.w	800084e <SD_disk_initialize+0x142>
 8000716:	4b4f      	ldr	r3, [pc, #316]	; (8000854 <SD_disk_initialize+0x148>)
 8000718:	781e      	ldrb	r6, [r3, #0]
 800071a:	461f      	mov	r7, r3
 800071c:	f016 0602 	ands.w	r6, r6, #2
 8000720:	d004      	beq.n	800072c <SD_disk_initialize+0x20>
 8000722:	7818      	ldrb	r0, [r3, #0]
 8000724:	b2c0      	uxtb	r0, r0
 8000726:	b002      	add	sp, #8
 8000728:	e8bd 81f0 	ldmia.w	sp!, {r4, r5, r6, r7, r8, pc}
 800072c:	f7ff ff30 	bl	8000590 <SD_PowerOn>
 8000730:	f7ff fef8 	bl	8000524 <SELECT>
 8000734:	4631      	mov	r1, r6
 8000736:	2040      	movs	r0, #64	; 0x40
 8000738:	f7ff ff93 	bl	8000662 <SD_SendCmd>
 800073c:	2801      	cmp	r0, #1
 800073e:	4604      	mov	r4, r0
 8000740:	d126      	bne.n	8000790 <SD_disk_initialize+0x84>
 8000742:	f44f 737a 	mov.w	r3, #1000	; 0x3e8
 8000746:	4d44      	ldr	r5, [pc, #272]	; (8000858 <SD_disk_initialize+0x14c>)
 8000748:	f44f 71d5 	mov.w	r1, #426	; 0x1aa
 800074c:	2048      	movs	r0, #72	; 0x48
 800074e:	802b      	strh	r3, [r5, #0]
 8000750:	f7ff ff87 	bl	8000662 <SD_SendCmd>
 8000754:	2801      	cmp	r0, #1
 8000756:	d14a      	bne.n	80007ee <SD_disk_initialize+0xe2>
 8000758:	ae01      	add	r6, sp, #4
 800075a:	46b0      	mov	r8, r6
 800075c:	2404      	movs	r4, #4
 800075e:	f7ff fefd 	bl	800055c <SPI_RxByte>
 8000762:	3c01      	subs	r4, #1
 8000764:	f014 04ff 	ands.w	r4, r4, #255	; 0xff
 8000768:	f808 0b01 	strb.w	r0, [r8], #1
 800076c:	d1f7      	bne.n	800075e <SD_disk_initialize+0x52>
 800076e:	f89d 3006 	ldrb.w	r3, [sp, #6]
 8000772:	2b01      	cmp	r3, #1
 8000774:	d10c      	bne.n	8000790 <SD_disk_initialize+0x84>
 8000776:	f89d 3007 	ldrb.w	r3, [sp, #7]
 800077a:	2baa      	cmp	r3, #170	; 0xaa
 800077c:	d108      	bne.n	8000790 <SD_disk_initialize+0x84>
 800077e:	2100      	movs	r1, #0
 8000780:	2077      	movs	r0, #119	; 0x77
 8000782:	f7ff ff6e 	bl	8000662 <SD_SendCmd>
 8000786:	2801      	cmp	r0, #1
 8000788:	d904      	bls.n	8000794 <SD_disk_initialize+0x88>
 800078a:	882b      	ldrh	r3, [r5, #0]
 800078c:	2b00      	cmp	r3, #0
 800078e:	d1f6      	bne.n	800077e <SD_disk_initialize+0x72>
 8000790:	2400      	movs	r4, #0
 8000792:	e01f      	b.n	80007d4 <SD_disk_initialize+0xc8>
 8000794:	f04f 4180 	mov.w	r1, #1073741824	; 0x40000000
 8000798:	2069      	movs	r0, #105	; 0x69
 800079a:	f7ff ff62 	bl	8000662 <SD_SendCmd>
 800079e:	4601      	mov	r1, r0
 80007a0:	2800      	cmp	r0, #0
 80007a2:	d1f2      	bne.n	800078a <SD_disk_initialize+0x7e>
 80007a4:	882b      	ldrh	r3, [r5, #0]
 80007a6:	2b00      	cmp	r3, #0
 80007a8:	d0f2      	beq.n	8000790 <SD_disk_initialize+0x84>
 80007aa:	207a      	movs	r0, #122	; 0x7a
 80007ac:	f7ff ff59 	bl	8000662 <SD_SendCmd>
 80007b0:	2800      	cmp	r0, #0
 80007b2:	d1ed      	bne.n	8000790 <SD_disk_initialize+0x84>
 80007b4:	2404      	movs	r4, #4
 80007b6:	f7ff fed1 	bl	800055c <SPI_RxByte>
 80007ba:	3c01      	subs	r4, #1
 80007bc:	f014 04ff 	ands.w	r4, r4, #255	; 0xff
 80007c0:	f806 0b01 	strb.w	r0, [r6], #1
 80007c4:	d1f7      	bne.n	80007b6 <SD_disk_initialize+0xaa>
 80007c6:	f89d 3004 	ldrb.w	r3, [sp, #4]
 80007ca:	f013 0f40 	tst.w	r3, #64	; 0x40
 80007ce:	bf14      	ite	ne
 80007d0:	240c      	movne	r4, #12
 80007d2:	2404      	moveq	r4, #4
 80007d4:	4b21      	ldr	r3, [pc, #132]	; (800085c <SD_disk_initialize+0x150>)
 80007d6:	701c      	strb	r4, [r3, #0]
 80007d8:	f7ff feb2 	bl	8000540 <DESELECT>
 80007dc:	f7ff febe 	bl	800055c <SPI_RxByte>
 80007e0:	b394      	cbz	r4, 8000848 <SD_disk_initialize+0x13c>
 80007e2:	783b      	ldrb	r3, [r7, #0]
 80007e4:	f003 03fe 	and.w	r3, r3, #254	; 0xfe
 80007e8:	703b      	strb	r3, [r7, #0]
 80007ea:	7838      	ldrb	r0, [r7, #0]
 80007ec:	e79a      	b.n	8000724 <SD_disk_initialize+0x18>
 80007ee:	4631      	mov	r1, r6
 80007f0:	2077      	movs	r0, #119	; 0x77
 80007f2:	f7ff ff36 	bl	8000662 <SD_SendCmd>
 80007f6:	2801      	cmp	r0, #1
 80007f8:	d806      	bhi.n	8000808 <SD_disk_initialize+0xfc>
 80007fa:	4631      	mov	r1, r6
 80007fc:	2069      	movs	r0, #105	; 0x69
 80007fe:	f7ff ff30 	bl	8000662 <SD_SendCmd>
 8000802:	2801      	cmp	r0, #1
 8000804:	bf98      	it	ls
 8000806:	2402      	movls	r4, #2
 8000808:	2c02      	cmp	r4, #2
 800080a:	f04f 0100 	mov.w	r1, #0
 800080e:	d119      	bne.n	8000844 <SD_disk_initialize+0x138>
 8000810:	2077      	movs	r0, #119	; 0x77
 8000812:	f7ff ff26 	bl	8000662 <SD_SendCmd>
 8000816:	2801      	cmp	r0, #1
 8000818:	d903      	bls.n	8000822 <SD_disk_initialize+0x116>
 800081a:	882b      	ldrh	r3, [r5, #0]
 800081c:	2b00      	cmp	r3, #0
 800081e:	d1f3      	bne.n	8000808 <SD_disk_initialize+0xfc>
 8000820:	e7b6      	b.n	8000790 <SD_disk_initialize+0x84>
 8000822:	2100      	movs	r1, #0
 8000824:	2069      	movs	r0, #105	; 0x69
 8000826:	f7ff ff1c 	bl	8000662 <SD_SendCmd>
 800082a:	2800      	cmp	r0, #0
 800082c:	d1f5      	bne.n	800081a <SD_disk_initialize+0x10e>
 800082e:	882b      	ldrh	r3, [r5, #0]
 8000830:	2b00      	cmp	r3, #0
 8000832:	d0ad      	beq.n	8000790 <SD_disk_initialize+0x84>
 8000834:	f44f 7100 	mov.w	r1, #512	; 0x200
 8000838:	2050      	movs	r0, #80	; 0x50
 800083a:	f7ff ff12 	bl	8000662 <SD_SendCmd>
 800083e:	2800      	cmp	r0, #0
 8000840:	d0c8      	beq.n	80007d4 <SD_disk_initialize+0xc8>
 8000842:	e7a5      	b.n	8000790 <SD_disk_initialize+0x84>
 8000844:	2041      	movs	r0, #65	; 0x41
 8000846:	e7ee      	b.n	8000826 <SD_disk_initialize+0x11a>
 8000848:	4b05      	ldr	r3, [pc, #20]	; (8000860 <SD_disk_initialize+0x154>)
 800084a:	701c      	strb	r4, [r3, #0]
 800084c:	e7cd      	b.n	80007ea <SD_disk_initialize+0xde>
 800084e:	2001      	movs	r0, #1
 8000850:	e769      	b.n	8000726 <SD_disk_initialize+0x1a>
 8000852:	bf00      	nop
 8000854:	20000000 	.word	0x20000000
 8000858:	200003c6 	.word	0x200003c6
 800085c:	20000134 	.word	0x20000134
 8000860:	20000135 	.word	0x20000135

08000864 <SD_disk_status>:
 8000864:	b918      	cbnz	r0, 800086e <SD_disk_status+0xa>
 8000866:	4b03      	ldr	r3, [pc, #12]	; (8000874 <SD_disk_status+0x10>)
 8000868:	7818      	ldrb	r0, [r3, #0]
 800086a:	b2c0      	uxtb	r0, r0
 800086c:	4770      	bx	lr
 800086e:	2001      	movs	r0, #1
 8000870:	4770      	bx	lr
 8000872:	bf00      	nop
 8000874:	20000000 	.word	0x20000000

08000878 <SD_disk_read>:
 8000878:	b570      	push	{r4, r5, r6, lr}
 800087a:	460e      	mov	r6, r1
 800087c:	4615      	mov	r5, r2
 800087e:	461c      	mov	r4, r3
 8000880:	2800      	cmp	r0, #0
 8000882:	d137      	bne.n	80008f4 <SD_disk_read+0x7c>
 8000884:	2b00      	cmp	r3, #0
 8000886:	d035      	beq.n	80008f4 <SD_disk_read+0x7c>
 8000888:	4b1c      	ldr	r3, [pc, #112]	; (80008fc <SD_disk_read+0x84>)
 800088a:	781b      	ldrb	r3, [r3, #0]
 800088c:	07da      	lsls	r2, r3, #31
 800088e:	d433      	bmi.n	80008f8 <SD_disk_read+0x80>
 8000890:	4b1b      	ldr	r3, [pc, #108]	; (8000900 <SD_disk_read+0x88>)
 8000892:	781b      	ldrb	r3, [r3, #0]
 8000894:	075b      	lsls	r3, r3, #29
 8000896:	bf58      	it	pl
 8000898:	026d      	lslpl	r5, r5, #9
 800089a:	f7ff fe43 	bl	8000524 <SELECT>
 800089e:	2c01      	cmp	r4, #1
 80008a0:	4629      	mov	r1, r5
 80008a2:	d113      	bne.n	80008cc <SD_disk_read+0x54>
 80008a4:	2051      	movs	r0, #81	; 0x51
 80008a6:	f7ff fedc 	bl	8000662 <SD_SendCmd>
 80008aa:	b938      	cbnz	r0, 80008bc <SD_disk_read+0x44>
 80008ac:	f44f 7100 	mov.w	r1, #512	; 0x200
 80008b0:	4630      	mov	r0, r6
 80008b2:	f7ff ff09 	bl	80006c8 <SD_RxDataBlock>
 80008b6:	fab0 f480 	clz	r4, r0
 80008ba:	0964      	lsrs	r4, r4, #5
 80008bc:	f7ff fe40 	bl	8000540 <DESELECT>
 80008c0:	f7ff fe4c 	bl	800055c <SPI_RxByte>
 80008c4:	1e20      	subs	r0, r4, #0
 80008c6:	bf18      	it	ne
 80008c8:	2001      	movne	r0, #1
 80008ca:	bd70      	pop	{r4, r5, r6, pc}
 80008cc:	2052      	movs	r0, #82	; 0x52
 80008ce:	f7ff fec8 	bl	8000662 <SD_SendCmd>
 80008d2:	2800      	cmp	r0, #0
 80008d4:	d1f2      	bne.n	80008bc <SD_disk_read+0x44>
 80008d6:	f44f 7100 	mov.w	r1, #512	; 0x200
 80008da:	4630      	mov	r0, r6
 80008dc:	f7ff fef4 	bl	80006c8 <SD_RxDataBlock>
 80008e0:	b118      	cbz	r0, 80008ea <SD_disk_read+0x72>
 80008e2:	3c01      	subs	r4, #1
 80008e4:	f506 7600 	add.w	r6, r6, #512	; 0x200
 80008e8:	d1f5      	bne.n	80008d6 <SD_disk_read+0x5e>
 80008ea:	2100      	movs	r1, #0
 80008ec:	204c      	movs	r0, #76	; 0x4c
 80008ee:	f7ff feb8 	bl	8000662 <SD_SendCmd>
 80008f2:	e7e3      	b.n	80008bc <SD_disk_read+0x44>
 80008f4:	2004      	movs	r0, #4
 80008f6:	e7e8      	b.n	80008ca <SD_disk_read+0x52>
 80008f8:	2003      	movs	r0, #3
 80008fa:	e7e6      	b.n	80008ca <SD_disk_read+0x52>
 80008fc:	20000000 	.word	0x20000000
 8000900:	20000134 	.word	0x20000134

08000904 <SD_disk_write>:
 8000904:	b5f8      	push	{r3, r4, r5, r6, r7, lr}
 8000906:	460d      	mov	r5, r1
 8000908:	4616      	mov	r6, r2
 800090a:	461c      	mov	r4, r3
 800090c:	2800      	cmp	r0, #0
 800090e:	d147      	bne.n	80009a0 <SD_disk_write+0x9c>
 8000910:	2b00      	cmp	r3, #0
 8000912:	d045      	beq.n	80009a0 <SD_disk_write+0x9c>
 8000914:	4b25      	ldr	r3, [pc, #148]	; (80009ac <SD_disk_write+0xa8>)
 8000916:	781a      	ldrb	r2, [r3, #0]
 8000918:	07d0      	lsls	r0, r2, #31
 800091a:	d443      	bmi.n	80009a4 <SD_disk_write+0xa0>
 800091c:	781b      	ldrb	r3, [r3, #0]
 800091e:	0759      	lsls	r1, r3, #29
 8000920:	d442      	bmi.n	80009a8 <SD_disk_write+0xa4>
 8000922:	4f23      	ldr	r7, [pc, #140]	; (80009b0 <SD_disk_write+0xac>)
 8000924:	783a      	ldrb	r2, [r7, #0]
 8000926:	0752      	lsls	r2, r2, #29
 8000928:	bf58      	it	pl
 800092a:	0276      	lslpl	r6, r6, #9
 800092c:	f7ff fdfa 	bl	8000524 <SELECT>
 8000930:	2c01      	cmp	r4, #1
 8000932:	d113      	bne.n	800095c <SD_disk_write+0x58>
 8000934:	4631      	mov	r1, r6
 8000936:	2058      	movs	r0, #88	; 0x58
 8000938:	f7ff fe93 	bl	8000662 <SD_SendCmd>
 800093c:	bb70      	cbnz	r0, 800099c <SD_disk_write+0x98>
 800093e:	21fe      	movs	r1, #254	; 0xfe
 8000940:	4628      	mov	r0, r5
 8000942:	f7ff fe5f 	bl	8000604 <SD_TxDataBlock>
 8000946:	fab0 f480 	clz	r4, r0
 800094a:	0964      	lsrs	r4, r4, #5
 800094c:	f7ff fdf8 	bl	8000540 <DESELECT>
 8000950:	f7ff fe04 	bl	800055c <SPI_RxByte>
 8000954:	1e20      	subs	r0, r4, #0
 8000956:	bf18      	it	ne
 8000958:	2001      	movne	r0, #1
 800095a:	bdf8      	pop	{r3, r4, r5, r6, r7, pc}
 800095c:	783b      	ldrb	r3, [r7, #0]
 800095e:	079b      	lsls	r3, r3, #30
 8000960:	d507      	bpl.n	8000972 <SD_disk_write+0x6e>
 8000962:	2100      	movs	r1, #0
 8000964:	2077      	movs	r0, #119	; 0x77
 8000966:	f7ff fe7c 	bl	8000662 <SD_SendCmd>
 800096a:	4621      	mov	r1, r4
 800096c:	2057      	movs	r0, #87	; 0x57
 800096e:	f7ff fe78 	bl	8000662 <SD_SendCmd>
 8000972:	4631      	mov	r1, r6
 8000974:	2059      	movs	r0, #89	; 0x59
 8000976:	f7ff fe74 	bl	8000662 <SD_SendCmd>
 800097a:	2800      	cmp	r0, #0
 800097c:	d1e6      	bne.n	800094c <SD_disk_write+0x48>
 800097e:	21fc      	movs	r1, #252	; 0xfc
 8000980:	4628      	mov	r0, r5
 8000982:	f7ff fe3f 	bl	8000604 <SD_TxDataBlock>
 8000986:	b118      	cbz	r0, 8000990 <SD_disk_write+0x8c>
 8000988:	3c01      	subs	r4, #1
 800098a:	f505 7500 	add.w	r5, r5, #512	; 0x200
 800098e:	d1f6      	bne.n	800097e <SD_disk_write+0x7a>
 8000990:	21fd      	movs	r1, #253	; 0xfd
 8000992:	2000      	movs	r0, #0
 8000994:	f7ff fe36 	bl	8000604 <SD_TxDataBlock>
 8000998:	2800      	cmp	r0, #0
 800099a:	d1d7      	bne.n	800094c <SD_disk_write+0x48>
 800099c:	2401      	movs	r4, #1
 800099e:	e7d5      	b.n	800094c <SD_disk_write+0x48>
 80009a0:	2004      	movs	r0, #4
 80009a2:	e7da      	b.n	800095a <SD_disk_write+0x56>
 80009a4:	2003      	movs	r0, #3
 80009a6:	e7d8      	b.n	800095a <SD_disk_write+0x56>
 80009a8:	2002      	movs	r0, #2
 80009aa:	e7d6      	b.n	800095a <SD_disk_write+0x56>
 80009ac:	20000000 	.word	0x20000000
 80009b0:	20000134 	.word	0x20000134

080009b4 <SD_disk_ioctl>:
 80009b4:	b57f      	push	{r0, r1, r2, r3, r4, r5, r6, lr}
 80009b6:	460e      	mov	r6, r1
 80009b8:	4615      	mov	r5, r2
 80009ba:	4604      	mov	r4, r0
 80009bc:	2800      	cmp	r0, #0
 80009be:	f040 8092 	bne.w	8000ae6 <SD_disk_ioctl+0x132>
 80009c2:	2905      	cmp	r1, #5
 80009c4:	d113      	bne.n	80009ee <SD_disk_ioctl+0x3a>
 80009c6:	7813      	ldrb	r3, [r2, #0]
 80009c8:	2b01      	cmp	r3, #1
 80009ca:	d009      	beq.n	80009e0 <SD_disk_ioctl+0x2c>
 80009cc:	2b02      	cmp	r3, #2
 80009ce:	d00a      	beq.n	80009e6 <SD_disk_ioctl+0x32>
 80009d0:	2b00      	cmp	r3, #0
 80009d2:	f040 8088 	bne.w	8000ae6 <SD_disk_ioctl+0x132>
 80009d6:	4b46      	ldr	r3, [pc, #280]	; (8000af0 <SD_disk_ioctl+0x13c>)
 80009d8:	7018      	strb	r0, [r3, #0]
 80009da:	4620      	mov	r0, r4
 80009dc:	b004      	add	sp, #16
 80009de:	bd70      	pop	{r4, r5, r6, pc}
 80009e0:	f7ff fdd6 	bl	8000590 <SD_PowerOn>
 80009e4:	e7f9      	b.n	80009da <SD_disk_ioctl+0x26>
 80009e6:	4b42      	ldr	r3, [pc, #264]	; (8000af0 <SD_disk_ioctl+0x13c>)
 80009e8:	781b      	ldrb	r3, [r3, #0]
 80009ea:	7053      	strb	r3, [r2, #1]
 80009ec:	e7f5      	b.n	80009da <SD_disk_ioctl+0x26>
 80009ee:	4b41      	ldr	r3, [pc, #260]	; (8000af4 <SD_disk_ioctl+0x140>)
 80009f0:	7818      	ldrb	r0, [r3, #0]
 80009f2:	f010 0401 	ands.w	r4, r0, #1
 80009f6:	d178      	bne.n	8000aea <SD_disk_ioctl+0x136>
 80009f8:	f7ff fd94 	bl	8000524 <SELECT>
 80009fc:	2e0d      	cmp	r6, #13
 80009fe:	d868      	bhi.n	8000ad2 <SD_disk_ioctl+0x11e>
 8000a00:	e8df f006 	tbb	[pc, r6]
 8000a04:	6746074a 	.word	0x6746074a
 8000a08:	67676767 	.word	0x67676767
 8000a0c:	51676767 	.word	0x51676767
 8000a10:	625f      	.short	0x625f
 8000a12:	2100      	movs	r1, #0
 8000a14:	2049      	movs	r0, #73	; 0x49
 8000a16:	f7ff fe24 	bl	8000662 <SD_SendCmd>
 8000a1a:	4604      	mov	r4, r0
 8000a1c:	b128      	cbz	r0, 8000a2a <SD_disk_ioctl+0x76>
 8000a1e:	2401      	movs	r4, #1
 8000a20:	f7ff fd8e 	bl	8000540 <DESELECT>
 8000a24:	f7ff fd9a 	bl	800055c <SPI_RxByte>
 8000a28:	e7d7      	b.n	80009da <SD_disk_ioctl+0x26>
 8000a2a:	2110      	movs	r1, #16
 8000a2c:	4668      	mov	r0, sp
 8000a2e:	f7ff fe4b 	bl	80006c8 <SD_RxDataBlock>
 8000a32:	2800      	cmp	r0, #0
 8000a34:	d0f3      	beq.n	8000a1e <SD_disk_ioctl+0x6a>
 8000a36:	f89d 1000 	ldrb.w	r1, [sp]
 8000a3a:	f89d 3009 	ldrb.w	r3, [sp, #9]
 8000a3e:	0989      	lsrs	r1, r1, #6
 8000a40:	2901      	cmp	r1, #1
 8000a42:	f89d 2008 	ldrb.w	r2, [sp, #8]
 8000a46:	d106      	bne.n	8000a56 <SD_disk_ioctl+0xa2>
 8000a48:	3301      	adds	r3, #1
 8000a4a:	eb03 2202 	add.w	r2, r3, r2, lsl #8
 8000a4e:	b292      	uxth	r2, r2
 8000a50:	0292      	lsls	r2, r2, #10
 8000a52:	602a      	str	r2, [r5, #0]
 8000a54:	e7e4      	b.n	8000a20 <SD_disk_ioctl+0x6c>
 8000a56:	f89d 1007 	ldrb.w	r1, [sp, #7]
 8000a5a:	0992      	lsrs	r2, r2, #6
 8000a5c:	eb02 0281 	add.w	r2, r2, r1, lsl #2
 8000a60:	f89d 1006 	ldrb.w	r1, [sp, #6]
 8000a64:	3201      	adds	r2, #1
 8000a66:	0289      	lsls	r1, r1, #10
 8000a68:	f401 6140 	and.w	r1, r1, #3072	; 0xc00
 8000a6c:	440a      	add	r2, r1
 8000a6e:	f89d 1005 	ldrb.w	r1, [sp, #5]
 8000a72:	f89d 000a 	ldrb.w	r0, [sp, #10]
 8000a76:	f001 010f 	and.w	r1, r1, #15
 8000a7a:	005b      	lsls	r3, r3, #1
 8000a7c:	eb01 11d0 	add.w	r1, r1, r0, lsr #7
 8000a80:	f003 0306 	and.w	r3, r3, #6
 8000a84:	440b      	add	r3, r1
 8000a86:	3b07      	subs	r3, #7
 8000a88:	fa02 f303 	lsl.w	r3, r2, r3
 8000a8c:	602b      	str	r3, [r5, #0]
 8000a8e:	e7c7      	b.n	8000a20 <SD_disk_ioctl+0x6c>
 8000a90:	f44f 7300 	mov.w	r3, #512	; 0x200
 8000a94:	802b      	strh	r3, [r5, #0]
 8000a96:	e7c3      	b.n	8000a20 <SD_disk_ioctl+0x6c>
 8000a98:	f7ff fda4 	bl	80005e4 <SD_ReadyWait>
 8000a9c:	f1b0 04ff 	subs.w	r4, r0, #255	; 0xff
 8000aa0:	bf18      	it	ne
 8000aa2:	2401      	movne	r4, #1
 8000aa4:	e7bc      	b.n	8000a20 <SD_disk_ioctl+0x6c>
 8000aa6:	2100      	movs	r1, #0
 8000aa8:	2049      	movs	r0, #73	; 0x49
 8000aaa:	f7ff fdda 	bl	8000662 <SD_SendCmd>
 8000aae:	2800      	cmp	r0, #0
 8000ab0:	d1b5      	bne.n	8000a1e <SD_disk_ioctl+0x6a>
 8000ab2:	2110      	movs	r1, #16
 8000ab4:	4628      	mov	r0, r5
 8000ab6:	f7ff fe07 	bl	80006c8 <SD_RxDataBlock>
 8000aba:	fab0 f480 	clz	r4, r0
 8000abe:	0964      	lsrs	r4, r4, #5
 8000ac0:	e7ae      	b.n	8000a20 <SD_disk_ioctl+0x6c>
 8000ac2:	2100      	movs	r1, #0
 8000ac4:	204a      	movs	r0, #74	; 0x4a
 8000ac6:	e7f0      	b.n	8000aaa <SD_disk_ioctl+0xf6>
 8000ac8:	2100      	movs	r1, #0
 8000aca:	207a      	movs	r0, #122	; 0x7a
 8000acc:	f7ff fdc9 	bl	8000662 <SD_SendCmd>
 8000ad0:	b108      	cbz	r0, 8000ad6 <SD_disk_ioctl+0x122>
 8000ad2:	2404      	movs	r4, #4
 8000ad4:	e7a4      	b.n	8000a20 <SD_disk_ioctl+0x6c>
 8000ad6:	1d2c      	adds	r4, r5, #4
 8000ad8:	f7ff fd40 	bl	800055c <SPI_RxByte>
 8000adc:	f805 0b01 	strb.w	r0, [r5], #1
 8000ae0:	42ac      	cmp	r4, r5
 8000ae2:	d1f9      	bne.n	8000ad8 <SD_disk_ioctl+0x124>
 8000ae4:	e7f5      	b.n	8000ad2 <SD_disk_ioctl+0x11e>
 8000ae6:	2404      	movs	r4, #4
 8000ae8:	e777      	b.n	80009da <SD_disk_ioctl+0x26>
 8000aea:	2403      	movs	r4, #3
 8000aec:	e775      	b.n	80009da <SD_disk_ioctl+0x26>
 8000aee:	bf00      	nop
 8000af0:	20000135 	.word	0x20000135
 8000af4:	20000000 	.word	0x20000000

08000af8 <SystemClock_Config>:
 8000af8:	b510      	push	{r4, lr}
 8000afa:	b096      	sub	sp, #88	; 0x58
 8000afc:	221c      	movs	r2, #28
 8000afe:	2100      	movs	r1, #0
 8000b00:	a80b      	add	r0, sp, #44	; 0x2c
 8000b02:	f005 f925 	bl	8005d50 <memset>
 8000b06:	2214      	movs	r2, #20
 8000b08:	2100      	movs	r1, #0
 8000b0a:	a804      	add	r0, sp, #16
 8000b0c:	f005 f920 	bl	8005d50 <memset>
 8000b10:	2200      	movs	r2, #0
 8000b12:	e9cd 2201 	strd	r2, r2, [sp, #4]
 8000b16:	491c      	ldr	r1, [pc, #112]	; (8000b88 <SystemClock_Config+0x90>)
 8000b18:	9203      	str	r2, [sp, #12]
 8000b1a:	680b      	ldr	r3, [r1, #0]
 8000b1c:	2401      	movs	r4, #1
 8000b1e:	f423 53c0 	bic.w	r3, r3, #6144	; 0x1800
 8000b22:	f443 6300 	orr.w	r3, r3, #2048	; 0x800
 8000b26:	600b      	str	r3, [r1, #0]
 8000b28:	230b      	movs	r3, #11
 8000b2a:	e9cd 3409 	strd	r3, r4, [sp, #36]	; 0x24
 8000b2e:	2310      	movs	r3, #16
 8000b30:	2102      	movs	r1, #2
 8000b32:	e9cd 340d 	strd	r3, r4, [sp, #52]	; 0x34
 8000b36:	f44f 3380 	mov.w	r3, #65536	; 0x10000
 8000b3a:	e9cd 1312 	strd	r1, r3, [sp, #72]	; 0x48
 8000b3e:	f44f 0380 	mov.w	r3, #4194304	; 0x400000
 8000b42:	a809      	add	r0, sp, #36	; 0x24
 8000b44:	940c      	str	r4, [sp, #48]	; 0x30
 8000b46:	9214      	str	r2, [sp, #80]	; 0x50
 8000b48:	9315      	str	r3, [sp, #84]	; 0x54
 8000b4a:	f002 f86f 	bl	8002c2c <HAL_RCC_OscConfig>
 8000b4e:	b108      	cbz	r0, 8000b54 <SystemClock_Config+0x5c>
 8000b50:	b672      	cpsid	i
 8000b52:	e7fe      	b.n	8000b52 <SystemClock_Config+0x5a>
 8000b54:	220f      	movs	r2, #15
 8000b56:	2303      	movs	r3, #3
 8000b58:	e9cd 0006 	strd	r0, r0, [sp, #24]
 8000b5c:	9008      	str	r0, [sp, #32]
 8000b5e:	4621      	mov	r1, r4
 8000b60:	a804      	add	r0, sp, #16
 8000b62:	e9cd 2304 	strd	r2, r3, [sp, #16]
 8000b66:	f002 fab7 	bl	80030d8 <HAL_RCC_ClockConfig>
 8000b6a:	b108      	cbz	r0, 8000b70 <SystemClock_Config+0x78>
 8000b6c:	b672      	cpsid	i
 8000b6e:	e7fe      	b.n	8000b6e <SystemClock_Config+0x76>
 8000b70:	f44f 3300 	mov.w	r3, #131072	; 0x20000
 8000b74:	a801      	add	r0, sp, #4
 8000b76:	9401      	str	r4, [sp, #4]
 8000b78:	9302      	str	r3, [sp, #8]
 8000b7a:	f002 fb8f 	bl	800329c <HAL_RCCEx_PeriphCLKConfig>
 8000b7e:	b108      	cbz	r0, 8000b84 <SystemClock_Config+0x8c>
 8000b80:	b672      	cpsid	i
 8000b82:	e7fe      	b.n	8000b82 <SystemClock_Config+0x8a>
 8000b84:	b016      	add	sp, #88	; 0x58
 8000b86:	bd10      	pop	{r4, pc}
 8000b88:	40007000 	.word	0x40007000

08000b8c <writeCurrentTime>:
 8000b8c:	b510      	push	{r4, lr}
 8000b8e:	4c0d      	ldr	r4, [pc, #52]	; (8000bc4 <writeCurrentTime+0x38>)
 8000b90:	b086      	sub	sp, #24
 8000b92:	4621      	mov	r1, r4
 8000b94:	2200      	movs	r2, #0
 8000b96:	480c      	ldr	r0, [pc, #48]	; (8000bc8 <writeCurrentTime+0x3c>)
 8000b98:	f002 fe4c 	bl	8003834 <HAL_RTC_GetTime>
 8000b9c:	78a3      	ldrb	r3, [r4, #2]
 8000b9e:	490b      	ldr	r1, [pc, #44]	; (8000bcc <writeCurrentTime+0x40>)
 8000ba0:	9300      	str	r3, [sp, #0]
 8000ba2:	7863      	ldrb	r3, [r4, #1]
 8000ba4:	7822      	ldrb	r2, [r4, #0]
 8000ba6:	4c0a      	ldr	r4, [pc, #40]	; (8000bd0 <writeCurrentTime+0x44>)
 8000ba8:	a803      	add	r0, sp, #12
 8000baa:	f005 f8d9 	bl	8005d60 <siprintf>
 8000bae:	68e1      	ldr	r1, [r4, #12]
 8000bb0:	4620      	mov	r0, r4
 8000bb2:	f004 fdeb 	bl	800578c <f_lseek>
 8000bb6:	4620      	mov	r0, r4
 8000bb8:	4906      	ldr	r1, [pc, #24]	; (8000bd4 <writeCurrentTime+0x48>)
 8000bba:	aa03      	add	r2, sp, #12
 8000bbc:	f004 fefc 	bl	80059b8 <f_printf>
 8000bc0:	b006      	add	sp, #24
 8000bc2:	bd10      	pop	{r4, pc}
 8000bc4:	2000153c 	.word	0x2000153c
 8000bc8:	2000151c 	.word	0x2000151c
 8000bcc:	080065d0 	.word	0x080065d0
 8000bd0:	200015b4 	.word	0x200015b4
 8000bd4:	080065e0 	.word	0x080065e0

08000bd8 <logData2SDCard>:
 8000bd8:	e92d 43f8 	stmdb	sp!, {r3, r4, r5, r6, r7, r8, r9, lr}
 8000bdc:	4d17      	ldr	r5, [pc, #92]	; (8000c3c <logData2SDCard+0x64>)
 8000bde:	2213      	movs	r2, #19
 8000be0:	460c      	mov	r4, r1
 8000be2:	4606      	mov	r6, r0
 8000be4:	4916      	ldr	r1, [pc, #88]	; (8000c40 <logData2SDCard+0x68>)
 8000be6:	4628      	mov	r0, r5
 8000be8:	f004 fb6a 	bl	80052c0 <f_open>
 8000bec:	f642 0109 	movw	r1, #10249	; 0x2809
 8000bf0:	4628      	mov	r0, r5
 8000bf2:	f004 fdcb 	bl	800578c <f_lseek>
 8000bf6:	68e9      	ldr	r1, [r5, #12]
 8000bf8:	4628      	mov	r0, r5
 8000bfa:	f004 fdc7 	bl	800578c <f_lseek>
 8000bfe:	2700      	movs	r7, #0
 8000c00:	f7ff ffc4 	bl	8000b8c <writeCurrentTime>
 8000c04:	f8df 9040 	ldr.w	r9, [pc, #64]	; 8000c48 <logData2SDCard+0x70>
 8000c08:	f104 38ff 	add.w	r8, r4, #4294967295
 8000c0c:	45b8      	cmp	r8, r7
 8000c0e:	dc0d      	bgt.n	8000c2c <logData2SDCard+0x54>
 8000c10:	f104 4180 	add.w	r1, r4, #1073741824	; 0x40000000
 8000c14:	3901      	subs	r1, #1
 8000c16:	f856 2021 	ldr.w	r2, [r6, r1, lsl #2]
 8000c1a:	4808      	ldr	r0, [pc, #32]	; (8000c3c <logData2SDCard+0x64>)
 8000c1c:	4909      	ldr	r1, [pc, #36]	; (8000c44 <logData2SDCard+0x6c>)
 8000c1e:	f004 fecb 	bl	80059b8 <f_printf>
 8000c22:	e8bd 43f8 	ldmia.w	sp!, {r3, r4, r5, r6, r7, r8, r9, lr}
 8000c26:	4805      	ldr	r0, [pc, #20]	; (8000c3c <logData2SDCard+0x64>)
 8000c28:	f004 bd9f 	b.w	800576a <f_close>
 8000c2c:	f856 2027 	ldr.w	r2, [r6, r7, lsl #2]
 8000c30:	4649      	mov	r1, r9
 8000c32:	4628      	mov	r0, r5
 8000c34:	f004 fec0 	bl	80059b8 <f_printf>
 8000c38:	3701      	adds	r7, #1
 8000c3a:	e7e7      	b.n	8000c0c <logData2SDCard+0x34>
 8000c3c:	200015b4 	.word	0x200015b4
 8000c40:	2000154c 	.word	0x2000154c
 8000c44:	080065e7 	.word	0x080065e7
 8000c48:	080065e3 	.word	0x080065e3

08000c4c <selectChannel>:
 8000c4c:	b510      	push	{r4, lr}
 8000c4e:	460c      	mov	r4, r1
 8000c50:	2807      	cmp	r0, #7
 8000c52:	d838      	bhi.n	8000cc6 <selectChannel+0x7a>
 8000c54:	e8df f000 	tbb	[pc, r0]
 8000c58:	1e171504 	.word	0x1e171504
 8000c5c:	352e2c20 	.word	0x352e2c20
 8000c60:	2200      	movs	r2, #0
 8000c62:	8821      	ldrh	r1, [r4, #0]
 8000c64:	4818      	ldr	r0, [pc, #96]	; (8000cc8 <selectChannel+0x7c>)
 8000c66:	f001 f8c3 	bl	8001df0 <HAL_GPIO_WritePin>
 8000c6a:	2200      	movs	r2, #0
 8000c6c:	88a1      	ldrh	r1, [r4, #4]
 8000c6e:	4816      	ldr	r0, [pc, #88]	; (8000cc8 <selectChannel+0x7c>)
 8000c70:	f001 f8be 	bl	8001df0 <HAL_GPIO_WritePin>
 8000c74:	2200      	movs	r2, #0
 8000c76:	8921      	ldrh	r1, [r4, #8]
 8000c78:	4813      	ldr	r0, [pc, #76]	; (8000cc8 <selectChannel+0x7c>)
 8000c7a:	e8bd 4010 	ldmia.w	sp!, {r4, lr}
 8000c7e:	f001 b8b7 	b.w	8001df0 <HAL_GPIO_WritePin>
 8000c82:	2201      	movs	r2, #1
 8000c84:	e7ed      	b.n	8000c62 <selectChannel+0x16>
 8000c86:	2200      	movs	r2, #0
 8000c88:	8821      	ldrh	r1, [r4, #0]
 8000c8a:	480f      	ldr	r0, [pc, #60]	; (8000cc8 <selectChannel+0x7c>)
 8000c8c:	f001 f8b0 	bl	8001df0 <HAL_GPIO_WritePin>
 8000c90:	2201      	movs	r2, #1
 8000c92:	e7eb      	b.n	8000c6c <selectChannel+0x20>
 8000c94:	2201      	movs	r2, #1
 8000c96:	e7f7      	b.n	8000c88 <selectChannel+0x3c>
 8000c98:	2200      	movs	r2, #0
 8000c9a:	8821      	ldrh	r1, [r4, #0]
 8000c9c:	480a      	ldr	r0, [pc, #40]	; (8000cc8 <selectChannel+0x7c>)
 8000c9e:	f001 f8a7 	bl	8001df0 <HAL_GPIO_WritePin>
 8000ca2:	2200      	movs	r2, #0
 8000ca4:	88a1      	ldrh	r1, [r4, #4]
 8000ca6:	4808      	ldr	r0, [pc, #32]	; (8000cc8 <selectChannel+0x7c>)
 8000ca8:	f001 f8a2 	bl	8001df0 <HAL_GPIO_WritePin>
 8000cac:	2201      	movs	r2, #1
 8000cae:	e7e2      	b.n	8000c76 <selectChannel+0x2a>
 8000cb0:	2201      	movs	r2, #1
 8000cb2:	e7f2      	b.n	8000c9a <selectChannel+0x4e>
 8000cb4:	2200      	movs	r2, #0
 8000cb6:	8821      	ldrh	r1, [r4, #0]
 8000cb8:	4803      	ldr	r0, [pc, #12]	; (8000cc8 <selectChannel+0x7c>)
 8000cba:	f001 f899 	bl	8001df0 <HAL_GPIO_WritePin>
 8000cbe:	2201      	movs	r2, #1
 8000cc0:	e7f0      	b.n	8000ca4 <selectChannel+0x58>
 8000cc2:	2201      	movs	r2, #1
 8000cc4:	e7f7      	b.n	8000cb6 <selectChannel+0x6a>
 8000cc6:	bd10      	pop	{r4, pc}
 8000cc8:	40020000 	.word	0x40020000

08000ccc <enableMux>:
 8000ccc:	2200      	movs	r2, #0
 8000cce:	b289      	uxth	r1, r1
 8000cd0:	f001 b88e 	b.w	8001df0 <HAL_GPIO_WritePin>

08000cd4 <disableMux>:
 8000cd4:	2201      	movs	r2, #1
 8000cd6:	b289      	uxth	r1, r1
 8000cd8:	f001 b88a 	b.w	8001df0 <HAL_GPIO_WritePin>

08000cdc <muxInit>:
 8000cdc:	2201      	movs	r2, #1
 8000cde:	b570      	push	{r4, r5, r6, lr}
 8000ce0:	4c10      	ldr	r4, [pc, #64]	; (8000d24 <muxInit+0x48>)
 8000ce2:	4611      	mov	r1, r2
 8000ce4:	4810      	ldr	r0, [pc, #64]	; (8000d28 <muxInit+0x4c>)
 8000ce6:	f001 f883 	bl	8001df0 <HAL_GPIO_WritePin>
 8000cea:	6820      	ldr	r0, [r4, #0]
 8000cec:	2101      	movs	r1, #1
 8000cee:	f7ff fff1 	bl	8000cd4 <disableMux>
 8000cf2:	6860      	ldr	r0, [r4, #4]
 8000cf4:	2120      	movs	r1, #32
 8000cf6:	f7ff ffed 	bl	8000cd4 <disableMux>
 8000cfa:	68a0      	ldr	r0, [r4, #8]
 8000cfc:	2110      	movs	r1, #16
 8000cfe:	f7ff ffe9 	bl	8000cd4 <disableMux>
 8000d02:	68e0      	ldr	r0, [r4, #12]
 8000d04:	2180      	movs	r1, #128	; 0x80
 8000d06:	f7ff ffe5 	bl	8000cd4 <disableMux>
 8000d0a:	2400      	movs	r4, #0
 8000d0c:	4d07      	ldr	r5, [pc, #28]	; (8000d2c <muxInit+0x50>)
 8000d0e:	4e08      	ldr	r6, [pc, #32]	; (8000d30 <muxInit+0x54>)
 8000d10:	f856 1b04 	ldr.w	r1, [r6], #4
 8000d14:	f855 0b04 	ldr.w	r0, [r5], #4
 8000d18:	3401      	adds	r4, #1
 8000d1a:	f7ff ffdb 	bl	8000cd4 <disableMux>
 8000d1e:	2c08      	cmp	r4, #8
 8000d20:	d1f6      	bne.n	8000d10 <muxInit+0x34>
 8000d22:	bd70      	pop	{r4, r5, r6, pc}
 8000d24:	20000010 	.word	0x20000010
 8000d28:	40020800 	.word	0x40020800
 8000d2c:	2000002c 	.word	0x2000002c
 8000d30:	08006610 	.word	0x08006610

08000d34 <readPressure>:
 8000d34:	b538      	push	{r3, r4, r5, lr}
 8000d36:	4c09      	ldr	r4, [pc, #36]	; (8000d5c <readPressure+0x28>)
 8000d38:	4620      	mov	r0, r4
 8000d3a:	f000 fe87 	bl	8001a4c <HAL_ADC_Start>
 8000d3e:	f04f 31ff 	mov.w	r1, #4294967295
 8000d42:	4620      	mov	r0, r4
 8000d44:	f000 fd40 	bl	80017c8 <HAL_ADC_PollForConversion>
 8000d48:	4620      	mov	r0, r4
 8000d4a:	f000 fd93 	bl	8001874 <HAL_ADC_GetValue>
 8000d4e:	4605      	mov	r5, r0
 8000d50:	4620      	mov	r0, r4
 8000d52:	f000 fed8 	bl	8001b06 <HAL_ADC_Stop>
 8000d56:	4628      	mov	r0, r5
 8000d58:	bd38      	pop	{r3, r4, r5, pc}
 8000d5a:	bf00      	nop
 8000d5c:	20001560 	.word	0x20001560

08000d60 <sampleMat.part.0>:
 8000d60:	e92d 4ff0 	stmdb	sp!, {r4, r5, r6, r7, r8, r9, sl, fp, lr}
 8000d64:	2600      	movs	r6, #0
 8000d66:	4b27      	ldr	r3, [pc, #156]	; (8000e04 <sampleMat.part.0+0xa4>)
 8000d68:	b085      	sub	sp, #20
 8000d6a:	f8df 80b0 	ldr.w	r8, [pc, #176]	; 8000e1c <sampleMat.part.0+0xbc>
 8000d6e:	9002      	str	r0, [sp, #8]
 8000d70:	9301      	str	r3, [sp, #4]
 8000d72:	9b01      	ldr	r3, [sp, #4]
 8000d74:	f858 0b04 	ldr.w	r0, [r8], #4
 8000d78:	f853 ab04 	ldr.w	sl, [r3], #4
 8000d7c:	2400      	movs	r4, #0
 8000d7e:	4651      	mov	r1, sl
 8000d80:	9301      	str	r3, [sp, #4]
 8000d82:	f7ff ffa3 	bl	8000ccc <enableMux>
 8000d86:	4620      	mov	r0, r4
 8000d88:	491f      	ldr	r1, [pc, #124]	; (8000e08 <sampleMat.part.0+0xa8>)
 8000d8a:	f7ff ff5f 	bl	8000c4c <selectChannel>
 8000d8e:	4b1f      	ldr	r3, [pc, #124]	; (8000e0c <sampleMat.part.0+0xac>)
 8000d90:	4d1f      	ldr	r5, [pc, #124]	; (8000e10 <sampleMat.part.0+0xb0>)
 8000d92:	eb06 1984 	add.w	r9, r6, r4, lsl #6
 8000d96:	9300      	str	r3, [sp, #0]
 8000d98:	2700      	movs	r7, #0
 8000d9a:	9b00      	ldr	r3, [sp, #0]
 8000d9c:	f855 0b04 	ldr.w	r0, [r5], #4
 8000da0:	f853 bb04 	ldr.w	fp, [r3], #4
 8000da4:	4659      	mov	r1, fp
 8000da6:	9300      	str	r3, [sp, #0]
 8000da8:	f7ff ff90 	bl	8000ccc <enableMux>
 8000dac:	9b02      	ldr	r3, [sp, #8]
 8000dae:	eb03 0389 	add.w	r3, r3, r9, lsl #2
 8000db2:	4638      	mov	r0, r7
 8000db4:	4917      	ldr	r1, [pc, #92]	; (8000e14 <sampleMat.part.0+0xb4>)
 8000db6:	9303      	str	r3, [sp, #12]
 8000db8:	f7ff ff48 	bl	8000c4c <selectChannel>
 8000dbc:	f7ff ffba 	bl	8000d34 <readPressure>
 8000dc0:	9b03      	ldr	r3, [sp, #12]
 8000dc2:	3701      	adds	r7, #1
 8000dc4:	6819      	ldr	r1, [r3, #0]
 8000dc6:	2f08      	cmp	r7, #8
 8000dc8:	4408      	add	r0, r1
 8000dca:	f843 0b04 	str.w	r0, [r3], #4
 8000dce:	d1f0      	bne.n	8000db2 <sampleMat.part.0+0x52>
 8000dd0:	4659      	mov	r1, fp
 8000dd2:	f855 0c04 	ldr.w	r0, [r5, #-4]
 8000dd6:	f7ff ff7d 	bl	8000cd4 <disableMux>
 8000dda:	4b0f      	ldr	r3, [pc, #60]	; (8000e18 <sampleMat.part.0+0xb8>)
 8000ddc:	f109 0908 	add.w	r9, r9, #8
 8000de0:	429d      	cmp	r5, r3
 8000de2:	d1d9      	bne.n	8000d98 <sampleMat.part.0+0x38>
 8000de4:	3401      	adds	r4, #1
 8000de6:	2c08      	cmp	r4, #8
 8000de8:	d1cd      	bne.n	8000d86 <sampleMat.part.0+0x26>
 8000dea:	4651      	mov	r1, sl
 8000dec:	f858 0c04 	ldr.w	r0, [r8, #-4]
 8000df0:	f506 7600 	add.w	r6, r6, #512	; 0x200
 8000df4:	f7ff ff6e 	bl	8000cd4 <disableMux>
 8000df8:	f5b6 6f00 	cmp.w	r6, #2048	; 0x800
 8000dfc:	d1b9      	bne.n	8000d72 <sampleMat.part.0+0x12>
 8000dfe:	b005      	add	sp, #20
 8000e00:	e8bd 8ff0 	ldmia.w	sp!, {r4, r5, r6, r7, r8, r9, sl, fp, pc}
 8000e04:	08006600 	.word	0x08006600
 8000e08:	20000004 	.word	0x20000004
 8000e0c:	08006610 	.word	0x08006610
 8000e10:	2000002c 	.word	0x2000002c
 8000e14:	20000020 	.word	0x20000020
 8000e18:	2000004c 	.word	0x2000004c
 8000e1c:	20000010 	.word	0x20000010

08000e20 <sampleMat>:
 8000e20:	f5b1 6f00 	cmp.w	r1, #2048	; 0x800
 8000e24:	d101      	bne.n	8000e2a <sampleMat+0xa>
 8000e26:	f7ff bf9b 	b.w	8000d60 <sampleMat.part.0>
 8000e2a:	4770      	bx	lr

08000e2c <calibrate>:
 8000e2c:	b570      	push	{r4, r5, r6, lr}
 8000e2e:	2201      	movs	r2, #1
 8000e30:	4605      	mov	r5, r0
 8000e32:	460e      	mov	r6, r1
 8000e34:	4810      	ldr	r0, [pc, #64]	; (8000e78 <calibrate+0x4c>)
 8000e36:	f44f 5180 	mov.w	r1, #4096	; 0x1000
 8000e3a:	f000 ffd9 	bl	8001df0 <HAL_GPIO_WritePin>
 8000e3e:	2464      	movs	r4, #100	; 0x64
 8000e40:	4631      	mov	r1, r6
 8000e42:	4628      	mov	r0, r5
 8000e44:	f7ff ffec 	bl	8000e20 <sampleMat>
 8000e48:	3c01      	subs	r4, #1
 8000e4a:	d1f9      	bne.n	8000e40 <calibrate+0x14>
 8000e4c:	4623      	mov	r3, r4
 8000e4e:	2164      	movs	r1, #100	; 0x64
 8000e50:	42b3      	cmp	r3, r6
 8000e52:	db07      	blt.n	8000e64 <calibrate+0x38>
 8000e54:	e8bd 4070 	ldmia.w	sp!, {r4, r5, r6, lr}
 8000e58:	2200      	movs	r2, #0
 8000e5a:	f44f 5180 	mov.w	r1, #4096	; 0x1000
 8000e5e:	4806      	ldr	r0, [pc, #24]	; (8000e78 <calibrate+0x4c>)
 8000e60:	f000 bfc6 	b.w	8001df0 <HAL_GPIO_WritePin>
 8000e64:	f855 2023 	ldr.w	r2, [r5, r3, lsl #2]
 8000e68:	4252      	negs	r2, r2
 8000e6a:	fb92 f2f1 	sdiv	r2, r2, r1
 8000e6e:	f845 2023 	str.w	r2, [r5, r3, lsl #2]
 8000e72:	3301      	adds	r3, #1
 8000e74:	e7ec      	b.n	8000e50 <calibrate+0x24>
 8000e76:	bf00      	nop
 8000e78:	40020000 	.word	0x40020000

08000e7c <main>:
 8000e7c:	b580      	push	{r7, lr}
 8000e7e:	f5ad 4d80 	sub.w	sp, sp, #16384	; 0x4000
 8000e82:	b088      	sub	sp, #32
 8000e84:	f50d 5400 	add.w	r4, sp, #8192	; 0x2000
 8000e88:	3420      	adds	r4, #32
 8000e8a:	f000 fba7 	bl	80015dc <HAL_Init>
 8000e8e:	f7ff fe33 	bl	8000af8 <SystemClock_Config>
 8000e92:	2214      	movs	r2, #20
 8000e94:	2100      	movs	r1, #0
 8000e96:	4620      	mov	r0, r4
 8000e98:	f004 ff5a 	bl	8005d50 <memset>
 8000e9c:	4bb8      	ldr	r3, [pc, #736]	; (8001180 <main+0x304>)
 8000e9e:	f24f 31bb 	movw	r1, #62395	; 0xf3bb
 8000ea2:	69da      	ldr	r2, [r3, #28]
 8000ea4:	48b7      	ldr	r0, [pc, #732]	; (8001184 <main+0x308>)
 8000ea6:	f042 0204 	orr.w	r2, r2, #4
 8000eaa:	61da      	str	r2, [r3, #28]
 8000eac:	69da      	ldr	r2, [r3, #28]
 8000eae:	2500      	movs	r5, #0
 8000eb0:	f002 0204 	and.w	r2, r2, #4
 8000eb4:	9203      	str	r2, [sp, #12]
 8000eb6:	9a03      	ldr	r2, [sp, #12]
 8000eb8:	69da      	ldr	r2, [r3, #28]
 8000eba:	2701      	movs	r7, #1
 8000ebc:	f042 0220 	orr.w	r2, r2, #32
 8000ec0:	61da      	str	r2, [r3, #28]
 8000ec2:	69da      	ldr	r2, [r3, #28]
 8000ec4:	f44f 7880 	mov.w	r8, #256	; 0x100
 8000ec8:	f002 0220 	and.w	r2, r2, #32
 8000ecc:	9204      	str	r2, [sp, #16]
 8000ece:	9a04      	ldr	r2, [sp, #16]
 8000ed0:	69da      	ldr	r2, [r3, #28]
 8000ed2:	f04f 0a04 	mov.w	sl, #4
 8000ed6:	f042 0201 	orr.w	r2, r2, #1
 8000eda:	61da      	str	r2, [r3, #28]
 8000edc:	69da      	ldr	r2, [r3, #28]
 8000ede:	f04f 0910 	mov.w	r9, #16
 8000ee2:	f002 0201 	and.w	r2, r2, #1
 8000ee6:	9205      	str	r2, [sp, #20]
 8000ee8:	9a05      	ldr	r2, [sp, #20]
 8000eea:	69da      	ldr	r2, [r3, #28]
 8000eec:	4ea6      	ldr	r6, [pc, #664]	; (8001188 <main+0x30c>)
 8000eee:	f042 0202 	orr.w	r2, r2, #2
 8000ef2:	61da      	str	r2, [r3, #28]
 8000ef4:	69da      	ldr	r2, [r3, #28]
 8000ef6:	f002 0202 	and.w	r2, r2, #2
 8000efa:	9206      	str	r2, [sp, #24]
 8000efc:	9a06      	ldr	r2, [sp, #24]
 8000efe:	69da      	ldr	r2, [r3, #28]
 8000f00:	f042 0208 	orr.w	r2, r2, #8
 8000f04:	61da      	str	r2, [r3, #28]
 8000f06:	69db      	ldr	r3, [r3, #28]
 8000f08:	2200      	movs	r2, #0
 8000f0a:	f003 0308 	and.w	r3, r3, #8
 8000f0e:	9307      	str	r3, [sp, #28]
 8000f10:	9b07      	ldr	r3, [sp, #28]
 8000f12:	f000 ff6d 	bl	8001df0 <HAL_GPIO_WritePin>
 8000f16:	2200      	movs	r2, #0
 8000f18:	f241 01f7 	movw	r1, #4343	; 0x10f7
 8000f1c:	489b      	ldr	r0, [pc, #620]	; (800118c <main+0x310>)
 8000f1e:	f000 ff67 	bl	8001df0 <HAL_GPIO_WritePin>
 8000f22:	2200      	movs	r2, #0
 8000f24:	f641 4165 	movw	r1, #7269	; 0x1c65
 8000f28:	4899      	ldr	r0, [pc, #612]	; (8001190 <main+0x314>)
 8000f2a:	f000 ff61 	bl	8001df0 <HAL_GPIO_WritePin>
 8000f2e:	2200      	movs	r2, #0
 8000f30:	2104      	movs	r1, #4
 8000f32:	4898      	ldr	r0, [pc, #608]	; (8001194 <main+0x318>)
 8000f34:	f000 ff5c 	bl	8001df0 <HAL_GPIO_WritePin>
 8000f38:	f24f 33bb 	movw	r3, #62395	; 0xf3bb
 8000f3c:	4621      	mov	r1, r4
 8000f3e:	4891      	ldr	r0, [pc, #580]	; (8001184 <main+0x308>)
 8000f40:	e9c4 3700 	strd	r3, r7, [r4]
 8000f44:	e9c4 5502 	strd	r5, r5, [r4, #8]
 8000f48:	f000 fe8a 	bl	8001c60 <HAL_GPIO_Init>
 8000f4c:	f241 03f7 	movw	r3, #4343	; 0x10f7
 8000f50:	4621      	mov	r1, r4
 8000f52:	488e      	ldr	r0, [pc, #568]	; (800118c <main+0x310>)
 8000f54:	e9c4 3700 	strd	r3, r7, [r4]
 8000f58:	e9c4 5502 	strd	r5, r5, [r4, #8]
 8000f5c:	f000 fe80 	bl	8001c60 <HAL_GPIO_Init>
 8000f60:	f641 4365 	movw	r3, #7269	; 0x1c65
 8000f64:	4621      	mov	r1, r4
 8000f66:	488a      	ldr	r0, [pc, #552]	; (8001190 <main+0x314>)
 8000f68:	e9c4 3700 	strd	r3, r7, [r4]
 8000f6c:	e9c4 5502 	strd	r5, r5, [r4, #8]
 8000f70:	f000 fe76 	bl	8001c60 <HAL_GPIO_Init>
 8000f74:	2340      	movs	r3, #64	; 0x40
 8000f76:	4621      	mov	r1, r4
 8000f78:	4882      	ldr	r0, [pc, #520]	; (8001184 <main+0x308>)
 8000f7a:	e9c4 3500 	strd	r3, r5, [r4]
 8000f7e:	60a5      	str	r5, [r4, #8]
 8000f80:	f000 fe6e 	bl	8001c60 <HAL_GPIO_Init>
 8000f84:	4621      	mov	r1, r4
 8000f86:	4881      	ldr	r0, [pc, #516]	; (800118c <main+0x310>)
 8000f88:	e9c4 8500 	strd	r8, r5, [r4]
 8000f8c:	60a5      	str	r5, [r4, #8]
 8000f8e:	f000 fe67 	bl	8001c60 <HAL_GPIO_Init>
 8000f92:	4880      	ldr	r0, [pc, #512]	; (8001194 <main+0x318>)
 8000f94:	4621      	mov	r1, r4
 8000f96:	e9c4 a700 	strd	sl, r7, [r4]
 8000f9a:	e9c4 5502 	strd	r5, r5, [r4, #8]
 8000f9e:	f000 fe5f 	bl	8001c60 <HAL_GPIO_Init>
 8000fa2:	4b7d      	ldr	r3, [pc, #500]	; (8001198 <main+0x31c>)
 8000fa4:	4630      	mov	r0, r6
 8000fa6:	e9c4 5500 	strd	r5, r5, [r4]
 8000faa:	e9c6 3500 	strd	r3, r5, [r6]
 8000fae:	e9c6 5502 	strd	r5, r5, [r6, #8]
 8000fb2:	e9c6 5504 	strd	r5, r5, [r6, #16]
 8000fb6:	e9c6 5506 	strd	r5, r5, [r6, #24]
 8000fba:	e9c6 950d 	strd	r9, r5, [r6, #52]	; 0x34
 8000fbe:	60a5      	str	r5, [r4, #8]
 8000fc0:	6235      	str	r5, [r6, #32]
 8000fc2:	f886 5024 	strb.w	r5, [r6, #36]	; 0x24
 8000fc6:	62b7      	str	r7, [r6, #40]	; 0x28
 8000fc8:	f886 502c 	strb.w	r5, [r6, #44]	; 0x2c
 8000fcc:	f886 503c 	strb.w	r5, [r6, #60]	; 0x3c
 8000fd0:	f000 fb38 	bl	8001644 <HAL_ADC_Init>
 8000fd4:	b108      	cbz	r0, 8000fda <main+0x15e>
 8000fd6:	b672      	cpsid	i
 8000fd8:	e7fe      	b.n	8000fd8 <main+0x15c>
 8000fda:	2309      	movs	r3, #9
 8000fdc:	4621      	mov	r1, r4
 8000fde:	4630      	mov	r0, r6
 8000fe0:	e9c4 3700 	strd	r3, r7, [r4]
 8000fe4:	f8c4 a008 	str.w	sl, [r4, #8]
 8000fe8:	f000 fc48 	bl	800187c <HAL_ADC_ConfigChannel>
 8000fec:	4603      	mov	r3, r0
 8000fee:	b108      	cbz	r0, 8000ff4 <main+0x178>
 8000ff0:	b672      	cpsid	i
 8000ff2:	e7fe      	b.n	8000ff2 <main+0x176>
 8000ff4:	4869      	ldr	r0, [pc, #420]	; (800119c <main+0x320>)
 8000ff6:	4a6a      	ldr	r2, [pc, #424]	; (80011a0 <main+0x324>)
 8000ff8:	4e6a      	ldr	r6, [pc, #424]	; (80011a4 <main+0x328>)
 8000ffa:	e9c0 3302 	strd	r3, r3, [r0, #8]
 8000ffe:	e9c0 6200 	strd	r6, r2, [r0]
 8001002:	f44f 4280 	mov.w	r2, #16384	; 0x4000
 8001006:	e9c0 3306 	strd	r3, r3, [r0, #24]
 800100a:	e9c0 2304 	strd	r2, r3, [r0, #16]
 800100e:	6203      	str	r3, [r0, #32]
 8001010:	f000 fef4 	bl	8001dfc <HAL_I2C_Init>
 8001014:	4603      	mov	r3, r0
 8001016:	b108      	cbz	r0, 800101c <main+0x1a0>
 8001018:	b672      	cpsid	i
 800101a:	e7fe      	b.n	800101a <main+0x19e>
 800101c:	f44f 7282 	mov.w	r2, #260	; 0x104
 8001020:	4861      	ldr	r0, [pc, #388]	; (80011a8 <main+0x32c>)
 8001022:	4d62      	ldr	r5, [pc, #392]	; (80011ac <main+0x330>)
 8001024:	e9c0 3302 	strd	r3, r3, [r0, #8]
 8001028:	e9c0 5200 	strd	r5, r2, [r0]
 800102c:	e9c0 3304 	strd	r3, r3, [r0, #16]
 8001030:	f44f 7200 	mov.w	r2, #512	; 0x200
 8001034:	e9c0 3308 	strd	r3, r3, [r0, #32]
 8001038:	6283      	str	r3, [r0, #40]	; 0x28
 800103a:	230a      	movs	r3, #10
 800103c:	e9c0 2906 	strd	r2, r9, [r0, #24]
 8001040:	62c3      	str	r3, [r0, #44]	; 0x2c
 8001042:	f002 fcb7 	bl	80039b4 <HAL_SPI_Init>
 8001046:	4603      	mov	r3, r0
 8001048:	b108      	cbz	r0, 800104e <main+0x1d2>
 800104a:	b672      	cpsid	i
 800104c:	e7fe      	b.n	800104c <main+0x1d0>
 800104e:	f44f 32e1 	mov.w	r2, #115200	; 0x1c200
 8001052:	4857      	ldr	r0, [pc, #348]	; (80011b0 <main+0x334>)
 8001054:	4957      	ldr	r1, [pc, #348]	; (80011b4 <main+0x338>)
 8001056:	e9c0 3302 	strd	r3, r3, [r0, #8]
 800105a:	e9c0 1200 	strd	r1, r2, [r0]
 800105e:	220c      	movs	r2, #12
 8001060:	6103      	str	r3, [r0, #16]
 8001062:	e9c0 2305 	strd	r2, r3, [r0, #20]
 8001066:	61c3      	str	r3, [r0, #28]
 8001068:	f002 ff68 	bl	8003f3c <HAL_UART_Init>
 800106c:	4606      	mov	r6, r0
 800106e:	b108      	cbz	r0, 8001074 <main+0x1f8>
 8001070:	b672      	cpsid	i
 8001072:	e7fe      	b.n	8001072 <main+0x1f6>
 8001074:	f002 ff90 	bl	8003f98 <MX_FATFS_Init>
 8001078:	221c      	movs	r2, #28
 800107a:	4631      	mov	r1, r6
 800107c:	4620      	mov	r0, r4
 800107e:	4d4e      	ldr	r5, [pc, #312]	; (80011b8 <main+0x33c>)
 8001080:	e9cd 6608 	strd	r6, r6, [sp, #32]
 8001084:	960a      	str	r6, [sp, #40]	; 0x28
 8001086:	9602      	str	r6, [sp, #8]
 8001088:	f004 fe62 	bl	8005d50 <memset>
 800108c:	4b4b      	ldr	r3, [pc, #300]	; (80011bc <main+0x340>)
 800108e:	227f      	movs	r2, #127	; 0x7f
 8001090:	e9c5 3600 	strd	r3, r6, [r5]
 8001094:	23ff      	movs	r3, #255	; 0xff
 8001096:	4628      	mov	r0, r5
 8001098:	e9c5 2302 	strd	r2, r3, [r5, #8]
 800109c:	e9c5 6604 	strd	r6, r6, [r5, #16]
 80010a0:	61ae      	str	r6, [r5, #24]
 80010a2:	f002 fa03 	bl	80034ac <HAL_RTC_Init>
 80010a6:	4602      	mov	r2, r0
 80010a8:	b108      	cbz	r0, 80010ae <main+0x232>
 80010aa:	b672      	cpsid	i
 80010ac:	e7fe      	b.n	80010ac <main+0x230>
 80010ae:	2316      	movs	r3, #22
 80010b0:	e9cd 0009 	strd	r0, r0, [sp, #36]	; 0x24
 80010b4:	f88d 0022 	strb.w	r0, [sp, #34]	; 0x22
 80010b8:	a908      	add	r1, sp, #32
 80010ba:	4628      	mov	r0, r5
 80010bc:	f8ad 3020 	strh.w	r3, [sp, #32]
 80010c0:	f002 fa47 	bl	8003552 <HAL_RTC_SetTime>
 80010c4:	4602      	mov	r2, r0
 80010c6:	b108      	cbz	r0, 80010cc <main+0x250>
 80010c8:	b672      	cpsid	i
 80010ca:	e7fe      	b.n	80010ca <main+0x24e>
 80010cc:	4b3c      	ldr	r3, [pc, #240]	; (80011c0 <main+0x344>)
 80010ce:	4628      	mov	r0, r5
 80010d0:	a902      	add	r1, sp, #8
 80010d2:	9302      	str	r3, [sp, #8]
 80010d4:	f002 faa4 	bl	8003620 <HAL_RTC_SetDate>
 80010d8:	4602      	mov	r2, r0
 80010da:	b108      	cbz	r0, 80010e0 <main+0x264>
 80010dc:	b672      	cpsid	i
 80010de:	e7fe      	b.n	80010de <main+0x262>
 80010e0:	2306      	movs	r3, #6
 80010e2:	e9c4 0001 	strd	r0, r0, [r4, #4]
 80010e6:	e9c4 0003 	strd	r0, r0, [r4, #12]
 80010ea:	70a0      	strb	r0, [r4, #2]
 80010ec:	4621      	mov	r1, r4
 80010ee:	4628      	mov	r0, r5
 80010f0:	8023      	strh	r3, [r4, #0]
 80010f2:	7527      	strb	r7, [r4, #20]
 80010f4:	f8c4 8018 	str.w	r8, [r4, #24]
 80010f8:	f002 faea 	bl	80036d0 <HAL_RTC_SetAlarm_IT>
 80010fc:	4606      	mov	r6, r0
 80010fe:	b108      	cbz	r0, 8001104 <main+0x288>
 8001100:	b672      	cpsid	i
 8001102:	e7fe      	b.n	8001102 <main+0x286>
 8001104:	f7ff fdea 	bl	8000cdc <muxInit>
 8001108:	f44f 5200 	mov.w	r2, #8192	; 0x2000
 800110c:	4631      	mov	r1, r6
 800110e:	a808      	add	r0, sp, #32
 8001110:	f004 fe1e 	bl	8005d50 <memset>
 8001114:	4f2b      	ldr	r7, [pc, #172]	; (80011c4 <main+0x348>)
 8001116:	f44f 5200 	mov.w	r2, #8192	; 0x2000
 800111a:	4631      	mov	r1, r6
 800111c:	4620      	mov	r0, r4
 800111e:	f004 fe17 	bl	8005d50 <memset>
 8001122:	f44f 70fa 	mov.w	r0, #500	; 0x1f4
 8001126:	f000 fa7b 	bl	8001620 <HAL_Delay>
 800112a:	4632      	mov	r2, r6
 800112c:	4639      	mov	r1, r7
 800112e:	4628      	mov	r0, r5
 8001130:	f002 fb9f 	bl	8003872 <HAL_RTC_GetDate>
 8001134:	4632      	mov	r2, r6
 8001136:	4924      	ldr	r1, [pc, #144]	; (80011c8 <main+0x34c>)
 8001138:	4824      	ldr	r0, [pc, #144]	; (80011cc <main+0x350>)
 800113a:	f004 f88d 	bl	8005258 <f_mount>
 800113e:	78fb      	ldrb	r3, [r7, #3]
 8001140:	4923      	ldr	r1, [pc, #140]	; (80011d0 <main+0x354>)
 8001142:	9300      	str	r3, [sp, #0]
 8001144:	78bb      	ldrb	r3, [r7, #2]
 8001146:	787a      	ldrb	r2, [r7, #1]
 8001148:	4822      	ldr	r0, [pc, #136]	; (80011d4 <main+0x358>)
 800114a:	f004 fe09 	bl	8005d60 <siprintf>
 800114e:	4620      	mov	r0, r4
 8001150:	f44f 6100 	mov.w	r1, #2048	; 0x800
 8001154:	f7ff fe6a 	bl	8000e2c <calibrate>
 8001158:	f44f 707a 	mov.w	r0, #1000	; 0x3e8
 800115c:	f000 fa60 	bl	8001620 <HAL_Delay>
 8001160:	4621      	mov	r1, r4
 8001162:	f44f 5200 	mov.w	r2, #8192	; 0x2000
 8001166:	a808      	add	r0, sp, #32
 8001168:	f004 fde4 	bl	8005d34 <memcpy>
 800116c:	a808      	add	r0, sp, #32
 800116e:	f7ff fdf7 	bl	8000d60 <sampleMat.part.0>
 8001172:	f44f 6100 	mov.w	r1, #2048	; 0x800
 8001176:	a808      	add	r0, sp, #32
 8001178:	f7ff fd2e 	bl	8000bd8 <logData2SDCard>
 800117c:	e7f0      	b.n	8001160 <main+0x2e4>
 800117e:	bf00      	nop
 8001180:	40023800 	.word	0x40023800
 8001184:	40020800 	.word	0x40020800
 8001188:	20001560 	.word	0x20001560
 800118c:	40020000 	.word	0x40020000
 8001190:	40020400 	.word	0x40020400
 8001194:	40020c00 	.word	0x40020c00
 8001198:	40012400 	.word	0x40012400
 800119c:	2000145c 	.word	0x2000145c
 80011a0:	000186a0 	.word	0x000186a0
 80011a4:	40005400 	.word	0x40005400
 80011a8:	200003cc 	.word	0x200003cc
 80011ac:	40003800 	.word	0x40003800
 80011b0:	20000378 	.word	0x20000378
 80011b4:	40004800 	.word	0x40004800
 80011b8:	2000151c 	.word	0x2000151c
 80011bc:	40002800 	.word	0x40002800
 80011c0:	160b0305 	.word	0x160b0305
 80011c4:	200014b0 	.word	0x200014b0
 80011c8:	080065ea 	.word	0x080065ea
 80011cc:	20000424 	.word	0x20000424
 80011d0:	080065eb 	.word	0x080065eb
 80011d4:	2000154c 	.word	0x2000154c

080011d8 <HAL_MspInit>:
 80011d8:	b51f      	push	{r0, r1, r2, r3, r4, lr}
 80011da:	4b13      	ldr	r3, [pc, #76]	; (8001228 <HAL_MspInit+0x50>)
 80011dc:	2005      	movs	r0, #5
 80011de:	6a5a      	ldr	r2, [r3, #36]	; 0x24
 80011e0:	f042 4200 	orr.w	r2, r2, #2147483648	; 0x80000000
 80011e4:	625a      	str	r2, [r3, #36]	; 0x24
 80011e6:	6a5a      	ldr	r2, [r3, #36]	; 0x24
 80011e8:	f002 4200 	and.w	r2, r2, #2147483648	; 0x80000000
 80011ec:	9201      	str	r2, [sp, #4]
 80011ee:	9a01      	ldr	r2, [sp, #4]
 80011f0:	6a1a      	ldr	r2, [r3, #32]
 80011f2:	f042 0201 	orr.w	r2, r2, #1
 80011f6:	621a      	str	r2, [r3, #32]
 80011f8:	6a1a      	ldr	r2, [r3, #32]
 80011fa:	f002 0201 	and.w	r2, r2, #1
 80011fe:	9202      	str	r2, [sp, #8]
 8001200:	9a02      	ldr	r2, [sp, #8]
 8001202:	6a5a      	ldr	r2, [r3, #36]	; 0x24
 8001204:	f042 5280 	orr.w	r2, r2, #268435456	; 0x10000000
 8001208:	625a      	str	r2, [r3, #36]	; 0x24
 800120a:	2200      	movs	r2, #0
 800120c:	6a5b      	ldr	r3, [r3, #36]	; 0x24
 800120e:	4611      	mov	r1, r2
 8001210:	f003 5380 	and.w	r3, r3, #268435456	; 0x10000000
 8001214:	9303      	str	r3, [sp, #12]
 8001216:	9b03      	ldr	r3, [sp, #12]
 8001218:	f000 fca2 	bl	8001b60 <HAL_NVIC_SetPriority>
 800121c:	2005      	movs	r0, #5
 800121e:	b005      	add	sp, #20
 8001220:	f85d eb04 	ldr.w	lr, [sp], #4
 8001224:	f000 bcce 	b.w	8001bc4 <HAL_NVIC_EnableIRQ>
 8001228:	40023800 	.word	0x40023800

0800122c <HAL_ADC_MspInit>:
 800122c:	2214      	movs	r2, #20
 800122e:	b530      	push	{r4, r5, lr}
 8001230:	4604      	mov	r4, r0
 8001232:	b08b      	sub	sp, #44	; 0x2c
 8001234:	eb0d 0002 	add.w	r0, sp, r2
 8001238:	2100      	movs	r1, #0
 800123a:	f004 fd89 	bl	8005d50 <memset>
 800123e:	6822      	ldr	r2, [r4, #0]
 8001240:	4b22      	ldr	r3, [pc, #136]	; (80012cc <HAL_ADC_MspInit+0xa0>)
 8001242:	429a      	cmp	r2, r3
 8001244:	d13f      	bne.n	80012c6 <HAL_ADC_MspInit+0x9a>
 8001246:	f503 338a 	add.w	r3, r3, #70656	; 0x11400
 800124a:	6a1a      	ldr	r2, [r3, #32]
 800124c:	2503      	movs	r5, #3
 800124e:	f442 7200 	orr.w	r2, r2, #512	; 0x200
 8001252:	621a      	str	r2, [r3, #32]
 8001254:	6a1a      	ldr	r2, [r3, #32]
 8001256:	2400      	movs	r4, #0
 8001258:	f402 7200 	and.w	r2, r2, #512	; 0x200
 800125c:	9201      	str	r2, [sp, #4]
 800125e:	9a01      	ldr	r2, [sp, #4]
 8001260:	69da      	ldr	r2, [r3, #28]
 8001262:	481b      	ldr	r0, [pc, #108]	; (80012d0 <HAL_ADC_MspInit+0xa4>)
 8001264:	f042 0204 	orr.w	r2, r2, #4
 8001268:	61da      	str	r2, [r3, #28]
 800126a:	69da      	ldr	r2, [r3, #28]
 800126c:	a905      	add	r1, sp, #20
 800126e:	f002 0204 	and.w	r2, r2, #4
 8001272:	9202      	str	r2, [sp, #8]
 8001274:	9a02      	ldr	r2, [sp, #8]
 8001276:	69da      	ldr	r2, [r3, #28]
 8001278:	f042 0201 	orr.w	r2, r2, #1
 800127c:	61da      	str	r2, [r3, #28]
 800127e:	69da      	ldr	r2, [r3, #28]
 8001280:	f002 0201 	and.w	r2, r2, #1
 8001284:	9203      	str	r2, [sp, #12]
 8001286:	9a03      	ldr	r2, [sp, #12]
 8001288:	69da      	ldr	r2, [r3, #28]
 800128a:	f042 0202 	orr.w	r2, r2, #2
 800128e:	61da      	str	r2, [r3, #28]
 8001290:	69db      	ldr	r3, [r3, #28]
 8001292:	9407      	str	r4, [sp, #28]
 8001294:	f003 0302 	and.w	r3, r3, #2
 8001298:	9304      	str	r3, [sp, #16]
 800129a:	9b04      	ldr	r3, [sp, #16]
 800129c:	2304      	movs	r3, #4
 800129e:	e9cd 3505 	strd	r3, r5, [sp, #20]
 80012a2:	f000 fcdd 	bl	8001c60 <HAL_GPIO_Init>
 80012a6:	2308      	movs	r3, #8
 80012a8:	480a      	ldr	r0, [pc, #40]	; (80012d4 <HAL_ADC_MspInit+0xa8>)
 80012aa:	a905      	add	r1, sp, #20
 80012ac:	e9cd 3505 	strd	r3, r5, [sp, #20]
 80012b0:	9407      	str	r4, [sp, #28]
 80012b2:	f000 fcd5 	bl	8001c60 <HAL_GPIO_Init>
 80012b6:	2302      	movs	r3, #2
 80012b8:	4807      	ldr	r0, [pc, #28]	; (80012d8 <HAL_ADC_MspInit+0xac>)
 80012ba:	a905      	add	r1, sp, #20
 80012bc:	e9cd 3505 	strd	r3, r5, [sp, #20]
 80012c0:	9407      	str	r4, [sp, #28]
 80012c2:	f000 fccd 	bl	8001c60 <HAL_GPIO_Init>
 80012c6:	b00b      	add	sp, #44	; 0x2c
 80012c8:	bd30      	pop	{r4, r5, pc}
 80012ca:	bf00      	nop
 80012cc:	40012400 	.word	0x40012400
 80012d0:	40020800 	.word	0x40020800
 80012d4:	40020000 	.word	0x40020000
 80012d8:	40020400 	.word	0x40020400

080012dc <HAL_I2C_MspInit>:
 80012dc:	b530      	push	{r4, r5, lr}
 80012de:	4604      	mov	r4, r0
 80012e0:	b089      	sub	sp, #36	; 0x24
 80012e2:	2214      	movs	r2, #20
 80012e4:	2100      	movs	r1, #0
 80012e6:	a803      	add	r0, sp, #12
 80012e8:	f004 fd32 	bl	8005d50 <memset>
 80012ec:	6822      	ldr	r2, [r4, #0]
 80012ee:	4b1b      	ldr	r3, [pc, #108]	; (800135c <HAL_I2C_MspInit+0x80>)
 80012f0:	429a      	cmp	r2, r3
 80012f2:	d131      	bne.n	8001358 <HAL_I2C_MspInit+0x7c>
 80012f4:	4c1a      	ldr	r4, [pc, #104]	; (8001360 <HAL_I2C_MspInit+0x84>)
 80012f6:	f44f 7240 	mov.w	r2, #768	; 0x300
 80012fa:	69e3      	ldr	r3, [r4, #28]
 80012fc:	2500      	movs	r5, #0
 80012fe:	f043 0302 	orr.w	r3, r3, #2
 8001302:	61e3      	str	r3, [r4, #28]
 8001304:	69e3      	ldr	r3, [r4, #28]
 8001306:	4817      	ldr	r0, [pc, #92]	; (8001364 <HAL_I2C_MspInit+0x88>)
 8001308:	f003 0302 	and.w	r3, r3, #2
 800130c:	9301      	str	r3, [sp, #4]
 800130e:	9b01      	ldr	r3, [sp, #4]
 8001310:	2312      	movs	r3, #18
 8001312:	e9cd 2303 	strd	r2, r3, [sp, #12]
 8001316:	2303      	movs	r3, #3
 8001318:	e9cd 5305 	strd	r5, r3, [sp, #20]
 800131c:	2304      	movs	r3, #4
 800131e:	a903      	add	r1, sp, #12
 8001320:	9307      	str	r3, [sp, #28]
 8001322:	f000 fc9d 	bl	8001c60 <HAL_GPIO_Init>
 8001326:	6a63      	ldr	r3, [r4, #36]	; 0x24
 8001328:	462a      	mov	r2, r5
 800132a:	f443 1300 	orr.w	r3, r3, #2097152	; 0x200000
 800132e:	6263      	str	r3, [r4, #36]	; 0x24
 8001330:	6a63      	ldr	r3, [r4, #36]	; 0x24
 8001332:	4629      	mov	r1, r5
 8001334:	f403 1300 	and.w	r3, r3, #2097152	; 0x200000
 8001338:	201f      	movs	r0, #31
 800133a:	9302      	str	r3, [sp, #8]
 800133c:	9b02      	ldr	r3, [sp, #8]
 800133e:	f000 fc0f 	bl	8001b60 <HAL_NVIC_SetPriority>
 8001342:	201f      	movs	r0, #31
 8001344:	f000 fc3e 	bl	8001bc4 <HAL_NVIC_EnableIRQ>
 8001348:	2020      	movs	r0, #32
 800134a:	462a      	mov	r2, r5
 800134c:	4629      	mov	r1, r5
 800134e:	f000 fc07 	bl	8001b60 <HAL_NVIC_SetPriority>
 8001352:	2020      	movs	r0, #32
 8001354:	f000 fc36 	bl	8001bc4 <HAL_NVIC_EnableIRQ>
 8001358:	b009      	add	sp, #36	; 0x24
 800135a:	bd30      	pop	{r4, r5, pc}
 800135c:	40005400 	.word	0x40005400
 8001360:	40023800 	.word	0x40023800
 8001364:	40020400 	.word	0x40020400

08001368 <HAL_RTC_MspInit>:
 8001368:	b508      	push	{r3, lr}
 800136a:	6802      	ldr	r2, [r0, #0]
 800136c:	4b08      	ldr	r3, [pc, #32]	; (8001390 <HAL_RTC_MspInit+0x28>)
 800136e:	429a      	cmp	r2, r3
 8001370:	d10c      	bne.n	800138c <HAL_RTC_MspInit+0x24>
 8001372:	2201      	movs	r2, #1
 8001374:	4b07      	ldr	r3, [pc, #28]	; (8001394 <HAL_RTC_MspInit+0x2c>)
 8001376:	2029      	movs	r0, #41	; 0x29
 8001378:	601a      	str	r2, [r3, #0]
 800137a:	2200      	movs	r2, #0
 800137c:	4611      	mov	r1, r2
 800137e:	f000 fbef 	bl	8001b60 <HAL_NVIC_SetPriority>
 8001382:	e8bd 4008 	ldmia.w	sp!, {r3, lr}
 8001386:	2029      	movs	r0, #41	; 0x29
 8001388:	f000 bc1c 	b.w	8001bc4 <HAL_NVIC_EnableIRQ>
 800138c:	bd08      	pop	{r3, pc}
 800138e:	bf00      	nop
 8001390:	40002800 	.word	0x40002800
 8001394:	424706d8 	.word	0x424706d8

08001398 <HAL_SPI_MspInit>:
 8001398:	b510      	push	{r4, lr}
 800139a:	4604      	mov	r4, r0
 800139c:	b088      	sub	sp, #32
 800139e:	2214      	movs	r2, #20
 80013a0:	2100      	movs	r1, #0
 80013a2:	a803      	add	r0, sp, #12
 80013a4:	f004 fcd4 	bl	8005d50 <memset>
 80013a8:	6822      	ldr	r2, [r4, #0]
 80013aa:	4b18      	ldr	r3, [pc, #96]	; (800140c <HAL_SPI_MspInit+0x74>)
 80013ac:	429a      	cmp	r2, r3
 80013ae:	d12a      	bne.n	8001406 <HAL_SPI_MspInit+0x6e>
 80013b0:	f503 3300 	add.w	r3, r3, #131072	; 0x20000
 80013b4:	6a5a      	ldr	r2, [r3, #36]	; 0x24
 80013b6:	2400      	movs	r4, #0
 80013b8:	f442 4280 	orr.w	r2, r2, #16384	; 0x4000
 80013bc:	625a      	str	r2, [r3, #36]	; 0x24
 80013be:	6a5a      	ldr	r2, [r3, #36]	; 0x24
 80013c0:	4813      	ldr	r0, [pc, #76]	; (8001410 <HAL_SPI_MspInit+0x78>)
 80013c2:	f402 4280 	and.w	r2, r2, #16384	; 0x4000
 80013c6:	9201      	str	r2, [sp, #4]
 80013c8:	9a01      	ldr	r2, [sp, #4]
 80013ca:	69da      	ldr	r2, [r3, #28]
 80013cc:	a903      	add	r1, sp, #12
 80013ce:	f042 0202 	orr.w	r2, r2, #2
 80013d2:	61da      	str	r2, [r3, #28]
 80013d4:	69db      	ldr	r3, [r3, #28]
 80013d6:	f44f 4260 	mov.w	r2, #57344	; 0xe000
 80013da:	f003 0302 	and.w	r3, r3, #2
 80013de:	9302      	str	r3, [sp, #8]
 80013e0:	9b02      	ldr	r3, [sp, #8]
 80013e2:	2302      	movs	r3, #2
 80013e4:	e9cd 2303 	strd	r2, r3, [sp, #12]
 80013e8:	2303      	movs	r3, #3
 80013ea:	e9cd 4305 	strd	r4, r3, [sp, #20]
 80013ee:	2305      	movs	r3, #5
 80013f0:	9307      	str	r3, [sp, #28]
 80013f2:	f000 fc35 	bl	8001c60 <HAL_GPIO_Init>
 80013f6:	2024      	movs	r0, #36	; 0x24
 80013f8:	4622      	mov	r2, r4
 80013fa:	4621      	mov	r1, r4
 80013fc:	f000 fbb0 	bl	8001b60 <HAL_NVIC_SetPriority>
 8001400:	2024      	movs	r0, #36	; 0x24
 8001402:	f000 fbdf 	bl	8001bc4 <HAL_NVIC_EnableIRQ>
 8001406:	b008      	add	sp, #32
 8001408:	bd10      	pop	{r4, pc}
 800140a:	bf00      	nop
 800140c:	40003800 	.word	0x40003800
 8001410:	40020400 	.word	0x40020400

08001414 <HAL_UART_MspInit>:
 8001414:	b510      	push	{r4, lr}
 8001416:	4604      	mov	r4, r0
 8001418:	b088      	sub	sp, #32
 800141a:	2214      	movs	r2, #20
 800141c:	2100      	movs	r1, #0
 800141e:	a803      	add	r0, sp, #12
 8001420:	f004 fc96 	bl	8005d50 <memset>
 8001424:	6822      	ldr	r2, [r4, #0]
 8001426:	4b18      	ldr	r3, [pc, #96]	; (8001488 <HAL_UART_MspInit+0x74>)
 8001428:	429a      	cmp	r2, r3
 800142a:	d12a      	bne.n	8001482 <HAL_UART_MspInit+0x6e>
 800142c:	f503 33f8 	add.w	r3, r3, #126976	; 0x1f000
 8001430:	6a5a      	ldr	r2, [r3, #36]	; 0x24
 8001432:	2400      	movs	r4, #0
 8001434:	f442 2280 	orr.w	r2, r2, #262144	; 0x40000
 8001438:	625a      	str	r2, [r3, #36]	; 0x24
 800143a:	6a5a      	ldr	r2, [r3, #36]	; 0x24
 800143c:	4813      	ldr	r0, [pc, #76]	; (800148c <HAL_UART_MspInit+0x78>)
 800143e:	f402 2280 	and.w	r2, r2, #262144	; 0x40000
 8001442:	9201      	str	r2, [sp, #4]
 8001444:	9a01      	ldr	r2, [sp, #4]
 8001446:	69da      	ldr	r2, [r3, #28]
 8001448:	a903      	add	r1, sp, #12
 800144a:	f042 0204 	orr.w	r2, r2, #4
 800144e:	61da      	str	r2, [r3, #28]
 8001450:	69db      	ldr	r3, [r3, #28]
 8001452:	f44f 6240 	mov.w	r2, #3072	; 0xc00
 8001456:	f003 0304 	and.w	r3, r3, #4
 800145a:	9302      	str	r3, [sp, #8]
 800145c:	9b02      	ldr	r3, [sp, #8]
 800145e:	2302      	movs	r3, #2
 8001460:	e9cd 2303 	strd	r2, r3, [sp, #12]
 8001464:	2303      	movs	r3, #3
 8001466:	e9cd 4305 	strd	r4, r3, [sp, #20]
 800146a:	2307      	movs	r3, #7
 800146c:	9307      	str	r3, [sp, #28]
 800146e:	f000 fbf7 	bl	8001c60 <HAL_GPIO_Init>
 8001472:	2027      	movs	r0, #39	; 0x27
 8001474:	4622      	mov	r2, r4
 8001476:	4621      	mov	r1, r4
 8001478:	f000 fb72 	bl	8001b60 <HAL_NVIC_SetPriority>
 800147c:	2027      	movs	r0, #39	; 0x27
 800147e:	f000 fba1 	bl	8001bc4 <HAL_NVIC_EnableIRQ>
 8001482:	b008      	add	sp, #32
 8001484:	bd10      	pop	{r4, pc}
 8001486:	bf00      	nop
 8001488:	40004800 	.word	0x40004800
 800148c:	40020800 	.word	0x40020800

08001490 <NMI_Handler>:
 8001490:	e7fe      	b.n	8001490 <NMI_Handler>

08001492 <HardFault_Handler>:
 8001492:	e7fe      	b.n	8001492 <HardFault_Handler>

08001494 <MemManage_Handler>:
 8001494:	e7fe      	b.n	8001494 <MemManage_Handler>

08001496 <BusFault_Handler>:
 8001496:	e7fe      	b.n	8001496 <BusFault_Handler>

08001498 <UsageFault_Handler>:
 8001498:	e7fe      	b.n	8001498 <UsageFault_Handler>

0800149a <SVC_Handler>:
 800149a:	4770      	bx	lr

0800149c <DebugMon_Handler>:
 800149c:	4770      	bx	lr

0800149e <PendSV_Handler>:
 800149e:	4770      	bx	lr

080014a0 <SysTick_Handler>:
 80014a0:	4a05      	ldr	r2, [pc, #20]	; (80014b8 <SysTick_Handler+0x18>)
 80014a2:	8813      	ldrh	r3, [r2, #0]
 80014a4:	b10b      	cbz	r3, 80014aa <SysTick_Handler+0xa>
 80014a6:	3b01      	subs	r3, #1
 80014a8:	8013      	strh	r3, [r2, #0]
 80014aa:	4a04      	ldr	r2, [pc, #16]	; (80014bc <SysTick_Handler+0x1c>)
 80014ac:	8813      	ldrh	r3, [r2, #0]
 80014ae:	b10b      	cbz	r3, 80014b4 <SysTick_Handler+0x14>
 80014b0:	3b01      	subs	r3, #1
 80014b2:	8013      	strh	r3, [r2, #0]
 80014b4:	f000 b8a2 	b.w	80015fc <HAL_IncTick>
 80014b8:	200003c6 	.word	0x200003c6
 80014bc:	200003c4 	.word	0x200003c4

080014c0 <RCC_IRQHandler>:
 80014c0:	4770      	bx	lr
	...

080014c4 <I2C1_EV_IRQHandler>:
 80014c4:	4801      	ldr	r0, [pc, #4]	; (80014cc <I2C1_EV_IRQHandler+0x8>)
 80014c6:	f000 bea5 	b.w	8002214 <HAL_I2C_EV_IRQHandler>
 80014ca:	bf00      	nop
 80014cc:	2000145c 	.word	0x2000145c

080014d0 <I2C1_ER_IRQHandler>:
 80014d0:	4801      	ldr	r0, [pc, #4]	; (80014d8 <I2C1_ER_IRQHandler+0x8>)
 80014d2:	f001 bad1 	b.w	8002a78 <HAL_I2C_ER_IRQHandler>
 80014d6:	bf00      	nop
 80014d8:	2000145c 	.word	0x2000145c

080014dc <SPI2_IRQHandler>:
 80014dc:	4801      	ldr	r0, [pc, #4]	; (80014e4 <SPI2_IRQHandler+0x8>)
 80014de:	f002 bc5b 	b.w	8003d98 <HAL_SPI_IRQHandler>
 80014e2:	bf00      	nop
 80014e4:	200003cc 	.word	0x200003cc

080014e8 <USART3_IRQHandler>:
 80014e8:	4801      	ldr	r0, [pc, #4]	; (80014f0 <USART3_IRQHandler+0x8>)
 80014ea:	f7fe bfcf 	b.w	800048c <Uart_isr>
 80014ee:	bf00      	nop
 80014f0:	20000378 	.word	0x20000378

080014f4 <RTC_Alarm_IRQHandler>:
 80014f4:	4801      	ldr	r0, [pc, #4]	; (80014fc <RTC_Alarm_IRQHandler+0x8>)
 80014f6:	f001 bf7d 	b.w	80033f4 <HAL_RTC_AlarmIRQHandler>
 80014fa:	bf00      	nop
 80014fc:	2000151c 	.word	0x2000151c

08001500 <_sbrk>:
 8001500:	4b0b      	ldr	r3, [pc, #44]	; (8001530 <_sbrk+0x30>)
 8001502:	4602      	mov	r2, r0
 8001504:	6819      	ldr	r1, [r3, #0]
 8001506:	b510      	push	{r4, lr}
 8001508:	b909      	cbnz	r1, 800150e <_sbrk+0xe>
 800150a:	490a      	ldr	r1, [pc, #40]	; (8001534 <_sbrk+0x34>)
 800150c:	6019      	str	r1, [r3, #0]
 800150e:	6818      	ldr	r0, [r3, #0]
 8001510:	4909      	ldr	r1, [pc, #36]	; (8001538 <_sbrk+0x38>)
 8001512:	4c0a      	ldr	r4, [pc, #40]	; (800153c <_sbrk+0x3c>)
 8001514:	4402      	add	r2, r0
 8001516:	1b09      	subs	r1, r1, r4
 8001518:	428a      	cmp	r2, r1
 800151a:	d906      	bls.n	800152a <_sbrk+0x2a>
 800151c:	f004 fbe0 	bl	8005ce0 <__errno>
 8001520:	230c      	movs	r3, #12
 8001522:	6003      	str	r3, [r0, #0]
 8001524:	f04f 30ff 	mov.w	r0, #4294967295
 8001528:	bd10      	pop	{r4, pc}
 800152a:	601a      	str	r2, [r3, #0]
 800152c:	e7fc      	b.n	8001528 <_sbrk+0x28>
 800152e:	bf00      	nop
 8001530:	20000138 	.word	0x20000138
 8001534:	20004668 	.word	0x20004668
 8001538:	20008000 	.word	0x20008000
 800153c:	00000800 	.word	0x00000800

08001540 <SystemInit>:
 8001540:	4770      	bx	lr
	...

08001544 <Reset_Handler>:
 8001544:	480c      	ldr	r0, [pc, #48]	; (8001578 <LoopFillZerobss+0x12>)
 8001546:	490d      	ldr	r1, [pc, #52]	; (800157c <LoopFillZerobss+0x16>)
 8001548:	4a0d      	ldr	r2, [pc, #52]	; (8001580 <LoopFillZerobss+0x1a>)
 800154a:	2300      	movs	r3, #0
 800154c:	e002      	b.n	8001554 <LoopCopyDataInit>

0800154e <CopyDataInit>:
 800154e:	58d4      	ldr	r4, [r2, r3]
 8001550:	50c4      	str	r4, [r0, r3]
 8001552:	3304      	adds	r3, #4

08001554 <LoopCopyDataInit>:
 8001554:	18c4      	adds	r4, r0, r3
 8001556:	428c      	cmp	r4, r1
 8001558:	d3f9      	bcc.n	800154e <CopyDataInit>
 800155a:	4a0a      	ldr	r2, [pc, #40]	; (8001584 <LoopFillZerobss+0x1e>)
 800155c:	4c0a      	ldr	r4, [pc, #40]	; (8001588 <LoopFillZerobss+0x22>)
 800155e:	2300      	movs	r3, #0
 8001560:	e001      	b.n	8001566 <LoopFillZerobss>

08001562 <FillZerobss>:
 8001562:	6013      	str	r3, [r2, #0]
 8001564:	3204      	adds	r2, #4

08001566 <LoopFillZerobss>:
 8001566:	42a2      	cmp	r2, r4
 8001568:	d3fb      	bcc.n	8001562 <FillZerobss>
 800156a:	f7ff ffe9 	bl	8001540 <SystemInit>
 800156e:	f004 fbbd 	bl	8005cec <__libc_init_array>
 8001572:	f7ff fc83 	bl	8000e7c <main>
 8001576:	4770      	bx	lr
 8001578:	20000000 	.word	0x20000000
 800157c:	200000d0 	.word	0x200000d0
 8001580:	08006ae0 	.word	0x08006ae0
 8001584:	200000d0 	.word	0x200000d0
 8001588:	20004668 	.word	0x20004668

0800158c <ADC1_IRQHandler>:
 800158c:	e7fe      	b.n	800158c <ADC1_IRQHandler>
	...

08001590 <HAL_InitTick>:
 8001590:	b538      	push	{r3, r4, r5, lr}
 8001592:	4b0f      	ldr	r3, [pc, #60]	; (80015d0 <HAL_InitTick+0x40>)
 8001594:	4605      	mov	r5, r0
 8001596:	6818      	ldr	r0, [r3, #0]
 8001598:	b908      	cbnz	r0, 800159e <HAL_InitTick+0xe>
 800159a:	2001      	movs	r0, #1
 800159c:	bd38      	pop	{r3, r4, r5, pc}
 800159e:	f44f 737a 	mov.w	r3, #1000	; 0x3e8
 80015a2:	fbb3 f3f0 	udiv	r3, r3, r0
 80015a6:	4a0b      	ldr	r2, [pc, #44]	; (80015d4 <HAL_InitTick+0x44>)
 80015a8:	6810      	ldr	r0, [r2, #0]
 80015aa:	fbb0 f0f3 	udiv	r0, r0, r3
 80015ae:	f000 fb17 	bl	8001be0 <HAL_SYSTICK_Config>
 80015b2:	4604      	mov	r4, r0
 80015b4:	2800      	cmp	r0, #0
 80015b6:	d1f0      	bne.n	800159a <HAL_InitTick+0xa>
 80015b8:	2d0f      	cmp	r5, #15
 80015ba:	d8ee      	bhi.n	800159a <HAL_InitTick+0xa>
 80015bc:	4602      	mov	r2, r0
 80015be:	4629      	mov	r1, r5
 80015c0:	f04f 30ff 	mov.w	r0, #4294967295
 80015c4:	f000 facc 	bl	8001b60 <HAL_NVIC_SetPriority>
 80015c8:	4b03      	ldr	r3, [pc, #12]	; (80015d8 <HAL_InitTick+0x48>)
 80015ca:	4620      	mov	r0, r4
 80015cc:	601d      	str	r5, [r3, #0]
 80015ce:	e7e5      	b.n	800159c <HAL_InitTick+0xc>
 80015d0:	20000050 	.word	0x20000050
 80015d4:	2000004c 	.word	0x2000004c
 80015d8:	20000054 	.word	0x20000054

080015dc <HAL_Init>:
 80015dc:	b510      	push	{r4, lr}
 80015de:	2003      	movs	r0, #3
 80015e0:	f000 faac 	bl	8001b3c <HAL_NVIC_SetPriorityGrouping>
 80015e4:	200f      	movs	r0, #15
 80015e6:	f7ff ffd3 	bl	8001590 <HAL_InitTick>
 80015ea:	4604      	mov	r4, r0
 80015ec:	b918      	cbnz	r0, 80015f6 <HAL_Init+0x1a>
 80015ee:	f7ff fdf3 	bl	80011d8 <HAL_MspInit>
 80015f2:	4620      	mov	r0, r4
 80015f4:	bd10      	pop	{r4, pc}
 80015f6:	2401      	movs	r4, #1
 80015f8:	e7fb      	b.n	80015f2 <HAL_Init+0x16>
	...

080015fc <HAL_IncTick>:
 80015fc:	4a03      	ldr	r2, [pc, #12]	; (800160c <HAL_IncTick+0x10>)
 80015fe:	4904      	ldr	r1, [pc, #16]	; (8001610 <HAL_IncTick+0x14>)
 8001600:	6813      	ldr	r3, [r2, #0]
 8001602:	6809      	ldr	r1, [r1, #0]
 8001604:	440b      	add	r3, r1
 8001606:	6013      	str	r3, [r2, #0]
 8001608:	4770      	bx	lr
 800160a:	bf00      	nop
 800160c:	200025e4 	.word	0x200025e4
 8001610:	20000050 	.word	0x20000050

08001614 <HAL_GetTick>:
 8001614:	4b01      	ldr	r3, [pc, #4]	; (800161c <HAL_GetTick+0x8>)
 8001616:	6818      	ldr	r0, [r3, #0]
 8001618:	4770      	bx	lr
 800161a:	bf00      	nop
 800161c:	200025e4 	.word	0x200025e4

08001620 <HAL_Delay>:
 8001620:	b538      	push	{r3, r4, r5, lr}
 8001622:	4604      	mov	r4, r0
 8001624:	f7ff fff6 	bl	8001614 <HAL_GetTick>
 8001628:	4605      	mov	r5, r0
 800162a:	1c63      	adds	r3, r4, #1
 800162c:	bf1e      	ittt	ne
 800162e:	4b04      	ldrne	r3, [pc, #16]	; (8001640 <HAL_Delay+0x20>)
 8001630:	681b      	ldrne	r3, [r3, #0]
 8001632:	18e4      	addne	r4, r4, r3
 8001634:	f7ff ffee 	bl	8001614 <HAL_GetTick>
 8001638:	1b43      	subs	r3, r0, r5
 800163a:	42a3      	cmp	r3, r4
 800163c:	d3fa      	bcc.n	8001634 <HAL_Delay+0x14>
 800163e:	bd38      	pop	{r3, r4, r5, pc}
 8001640:	20000050 	.word	0x20000050

08001644 <HAL_ADC_Init>:
 8001644:	b5f7      	push	{r0, r1, r2, r4, r5, r6, r7, lr}
 8001646:	4604      	mov	r4, r0
 8001648:	b908      	cbnz	r0, 800164e <HAL_ADC_Init+0xa>
 800164a:	2001      	movs	r0, #1
 800164c:	e095      	b.n	800177a <HAL_ADC_Init+0x136>
 800164e:	6cc3      	ldr	r3, [r0, #76]	; 0x4c
 8001650:	b973      	cbnz	r3, 8001670 <HAL_ADC_Init+0x2c>
 8001652:	6503      	str	r3, [r0, #80]	; 0x50
 8001654:	f880 3048 	strb.w	r3, [r0, #72]	; 0x48
 8001658:	4b56      	ldr	r3, [pc, #344]	; (80017b4 <HAL_ADC_Init+0x170>)
 800165a:	6a1a      	ldr	r2, [r3, #32]
 800165c:	f042 0201 	orr.w	r2, r2, #1
 8001660:	621a      	str	r2, [r3, #32]
 8001662:	6a1b      	ldr	r3, [r3, #32]
 8001664:	f003 0301 	and.w	r3, r3, #1
 8001668:	9301      	str	r3, [sp, #4]
 800166a:	9b01      	ldr	r3, [sp, #4]
 800166c:	f7ff fdde 	bl	800122c <HAL_ADC_MspInit>
 8001670:	6ce3      	ldr	r3, [r4, #76]	; 0x4c
 8001672:	06db      	lsls	r3, r3, #27
 8001674:	d4e9      	bmi.n	800164a <HAL_ADC_Init+0x6>
 8001676:	6ce3      	ldr	r3, [r4, #76]	; 0x4c
 8001678:	4a4f      	ldr	r2, [pc, #316]	; (80017b8 <HAL_ADC_Init+0x174>)
 800167a:	f423 5388 	bic.w	r3, r3, #4352	; 0x1100
 800167e:	f023 0302 	bic.w	r3, r3, #2
 8001682:	f043 0302 	orr.w	r3, r3, #2
 8001686:	64e3      	str	r3, [r4, #76]	; 0x4c
 8001688:	6853      	ldr	r3, [r2, #4]
 800168a:	6861      	ldr	r1, [r4, #4]
 800168c:	f423 3340 	bic.w	r3, r3, #196608	; 0x30000
 8001690:	430b      	orrs	r3, r1
 8001692:	6053      	str	r3, [r2, #4]
 8001694:	f44f 7100 	mov.w	r1, #512	; 0x200
 8001698:	fa91 f1a1 	rbit	r1, r1
 800169c:	2302      	movs	r3, #2
 800169e:	fab1 f181 	clz	r1, r1
 80016a2:	f894 5024 	ldrb.w	r5, [r4, #36]	; 0x24
 80016a6:	fa93 f3a3 	rbit	r3, r3
 80016aa:	fab3 f383 	clz	r3, r3
 80016ae:	6960      	ldr	r0, [r4, #20]
 80016b0:	68e2      	ldr	r2, [r4, #12]
 80016b2:	fa05 f303 	lsl.w	r3, r5, r3
 80016b6:	4302      	orrs	r2, r0
 80016b8:	6a20      	ldr	r0, [r4, #32]
 80016ba:	6926      	ldr	r6, [r4, #16]
 80016bc:	4302      	orrs	r2, r0
 80016be:	f894 003c 	ldrb.w	r0, [r4, #60]	; 0x3c
 80016c2:	fa00 f101 	lsl.w	r1, r0, r1
 80016c6:	430a      	orrs	r2, r1
 80016c8:	4313      	orrs	r3, r2
 80016ca:	6b62      	ldr	r2, [r4, #52]	; 0x34
 80016cc:	6820      	ldr	r0, [r4, #0]
 80016ce:	2a10      	cmp	r2, #16
 80016d0:	bf1c      	itt	ne
 80016d2:	6ba1      	ldrne	r1, [r4, #56]	; 0x38
 80016d4:	430a      	orrne	r2, r1
 80016d6:	6801      	ldr	r1, [r0, #0]
 80016d8:	bf18      	it	ne
 80016da:	4313      	orrne	r3, r2
 80016dc:	f011 0140 	ands.w	r1, r1, #64	; 0x40
 80016e0:	d124      	bne.n	800172c <HAL_ADC_Init+0xe8>
 80016e2:	69a2      	ldr	r2, [r4, #24]
 80016e4:	69e7      	ldr	r7, [r4, #28]
 80016e6:	4313      	orrs	r3, r2
 80016e8:	68a2      	ldr	r2, [r4, #8]
 80016ea:	f5b6 7f80 	cmp.w	r6, #256	; 0x100
 80016ee:	ea42 0207 	orr.w	r2, r2, r7
 80016f2:	d044      	beq.n	800177e <HAL_ADC_Init+0x13a>
 80016f4:	2e01      	cmp	r6, #1
 80016f6:	bf08      	it	eq
 80016f8:	f44f 7180 	moveq.w	r1, #256	; 0x100
 80016fc:	430a      	orrs	r2, r1
 80016fe:	f894 102c 	ldrb.w	r1, [r4, #44]	; 0x2c
 8001702:	2901      	cmp	r1, #1
 8001704:	d10d      	bne.n	8001722 <HAL_ADC_Init+0xde>
 8001706:	2d00      	cmp	r5, #0
 8001708:	d13b      	bne.n	8001782 <HAL_ADC_Init+0x13e>
 800170a:	f44f 4160 	mov.w	r1, #57344	; 0xe000
 800170e:	fa91 f1a1 	rbit	r1, r1
 8001712:	fab1 f581 	clz	r5, r1
 8001716:	6b21      	ldr	r1, [r4, #48]	; 0x30
 8001718:	3901      	subs	r1, #1
 800171a:	40a9      	lsls	r1, r5
 800171c:	430a      	orrs	r2, r1
 800171e:	f442 6200 	orr.w	r2, r2, #2048	; 0x800
 8001722:	6845      	ldr	r5, [r0, #4]
 8001724:	4925      	ldr	r1, [pc, #148]	; (80017bc <HAL_ADC_Init+0x178>)
 8001726:	4029      	ands	r1, r5
 8001728:	430a      	orrs	r2, r1
 800172a:	6042      	str	r2, [r0, #4]
 800172c:	6881      	ldr	r1, [r0, #8]
 800172e:	4a24      	ldr	r2, [pc, #144]	; (80017c0 <HAL_ADC_Init+0x17c>)
 8001730:	f5b6 7f80 	cmp.w	r6, #256	; 0x100
 8001734:	ea02 0201 	and.w	r2, r2, r1
 8001738:	ea42 0203 	orr.w	r2, r2, r3
 800173c:	6082      	str	r2, [r0, #8]
 800173e:	d001      	beq.n	8001744 <HAL_ADC_Init+0x100>
 8001740:	2e01      	cmp	r6, #1
 8001742:	d127      	bne.n	8001794 <HAL_ADC_Init+0x150>
 8001744:	6b05      	ldr	r5, [r0, #48]	; 0x30
 8001746:	f04f 72f8 	mov.w	r2, #32505856	; 0x1f00000
 800174a:	fa92 f2a2 	rbit	r2, r2
 800174e:	fab2 f182 	clz	r1, r2
 8001752:	6aa2      	ldr	r2, [r4, #40]	; 0x28
 8001754:	3a01      	subs	r2, #1
 8001756:	408a      	lsls	r2, r1
 8001758:	f025 71f8 	bic.w	r1, r5, #32505856	; 0x1f00000
 800175c:	430a      	orrs	r2, r1
 800175e:	6302      	str	r2, [r0, #48]	; 0x30
 8001760:	6881      	ldr	r1, [r0, #8]
 8001762:	4a18      	ldr	r2, [pc, #96]	; (80017c4 <HAL_ADC_Init+0x180>)
 8001764:	400a      	ands	r2, r1
 8001766:	429a      	cmp	r2, r3
 8001768:	d118      	bne.n	800179c <HAL_ADC_Init+0x158>
 800176a:	2000      	movs	r0, #0
 800176c:	6520      	str	r0, [r4, #80]	; 0x50
 800176e:	6ce3      	ldr	r3, [r4, #76]	; 0x4c
 8001770:	f023 0303 	bic.w	r3, r3, #3
 8001774:	f043 0301 	orr.w	r3, r3, #1
 8001778:	64e3      	str	r3, [r4, #76]	; 0x4c
 800177a:	b003      	add	sp, #12
 800177c:	bdf0      	pop	{r4, r5, r6, r7, pc}
 800177e:	4631      	mov	r1, r6
 8001780:	e7bc      	b.n	80016fc <HAL_ADC_Init+0xb8>
 8001782:	6ce1      	ldr	r1, [r4, #76]	; 0x4c
 8001784:	f041 0120 	orr.w	r1, r1, #32
 8001788:	64e1      	str	r1, [r4, #76]	; 0x4c
 800178a:	6d21      	ldr	r1, [r4, #80]	; 0x50
 800178c:	f041 0101 	orr.w	r1, r1, #1
 8001790:	6521      	str	r1, [r4, #80]	; 0x50
 8001792:	e7c6      	b.n	8001722 <HAL_ADC_Init+0xde>
 8001794:	6b02      	ldr	r2, [r0, #48]	; 0x30
 8001796:	f022 72f8 	bic.w	r2, r2, #32505856	; 0x1f00000
 800179a:	e7e0      	b.n	800175e <HAL_ADC_Init+0x11a>
 800179c:	6ce3      	ldr	r3, [r4, #76]	; 0x4c
 800179e:	f023 0312 	bic.w	r3, r3, #18
 80017a2:	f043 0310 	orr.w	r3, r3, #16
 80017a6:	64e3      	str	r3, [r4, #76]	; 0x4c
 80017a8:	6d23      	ldr	r3, [r4, #80]	; 0x50
 80017aa:	f043 0301 	orr.w	r3, r3, #1
 80017ae:	6523      	str	r3, [r4, #80]	; 0x50
 80017b0:	e74b      	b.n	800164a <HAL_ADC_Init+0x6>
 80017b2:	bf00      	nop
 80017b4:	40023800 	.word	0x40023800
 80017b8:	40012700 	.word	0x40012700
 80017bc:	fcfc16ff 	.word	0xfcfc16ff
 80017c0:	c0fff18d 	.word	0xc0fff18d
 80017c4:	bf80fffe 	.word	0xbf80fffe

080017c8 <HAL_ADC_PollForConversion>:
 80017c8:	6803      	ldr	r3, [r0, #0]
 80017ca:	b570      	push	{r4, r5, r6, lr}
 80017cc:	689a      	ldr	r2, [r3, #8]
 80017ce:	4604      	mov	r4, r0
 80017d0:	0552      	lsls	r2, r2, #21
 80017d2:	460d      	mov	r5, r1
 80017d4:	d50b      	bpl.n	80017ee <HAL_ADC_PollForConversion+0x26>
 80017d6:	689b      	ldr	r3, [r3, #8]
 80017d8:	05de      	lsls	r6, r3, #23
 80017da:	d508      	bpl.n	80017ee <HAL_ADC_PollForConversion+0x26>
 80017dc:	6cc3      	ldr	r3, [r0, #76]	; 0x4c
 80017de:	f043 0320 	orr.w	r3, r3, #32
 80017e2:	64c3      	str	r3, [r0, #76]	; 0x4c
 80017e4:	2300      	movs	r3, #0
 80017e6:	f880 3048 	strb.w	r3, [r0, #72]	; 0x48
 80017ea:	2001      	movs	r0, #1
 80017ec:	bd70      	pop	{r4, r5, r6, pc}
 80017ee:	f7ff ff11 	bl	8001614 <HAL_GetTick>
 80017f2:	4606      	mov	r6, r0
 80017f4:	6823      	ldr	r3, [r4, #0]
 80017f6:	681a      	ldr	r2, [r3, #0]
 80017f8:	0791      	lsls	r1, r2, #30
 80017fa:	d50e      	bpl.n	800181a <HAL_ADC_PollForConversion+0x52>
 80017fc:	69a2      	ldr	r2, [r4, #24]
 80017fe:	b912      	cbnz	r2, 8001806 <HAL_ADC_PollForConversion+0x3e>
 8001800:	f06f 0212 	mvn.w	r2, #18
 8001804:	601a      	str	r2, [r3, #0]
 8001806:	6ce2      	ldr	r2, [r4, #76]	; 0x4c
 8001808:	f442 7200 	orr.w	r2, r2, #512	; 0x200
 800180c:	64e2      	str	r2, [r4, #76]	; 0x4c
 800180e:	689a      	ldr	r2, [r3, #8]
 8001810:	f012 5f40 	tst.w	r2, #805306368	; 0x30000000
 8001814:	d017      	beq.n	8001846 <HAL_ADC_PollForConversion+0x7e>
 8001816:	2000      	movs	r0, #0
 8001818:	e7e8      	b.n	80017ec <HAL_ADC_PollForConversion+0x24>
 800181a:	1c68      	adds	r0, r5, #1
 800181c:	d0eb      	beq.n	80017f6 <HAL_ADC_PollForConversion+0x2e>
 800181e:	b965      	cbnz	r5, 800183a <HAL_ADC_PollForConversion+0x72>
 8001820:	6823      	ldr	r3, [r4, #0]
 8001822:	681b      	ldr	r3, [r3, #0]
 8001824:	f013 0302 	ands.w	r3, r3, #2
 8001828:	d1e4      	bne.n	80017f4 <HAL_ADC_PollForConversion+0x2c>
 800182a:	6ce2      	ldr	r2, [r4, #76]	; 0x4c
 800182c:	2003      	movs	r0, #3
 800182e:	f042 0204 	orr.w	r2, r2, #4
 8001832:	64e2      	str	r2, [r4, #76]	; 0x4c
 8001834:	f884 3048 	strb.w	r3, [r4, #72]	; 0x48
 8001838:	e7d8      	b.n	80017ec <HAL_ADC_PollForConversion+0x24>
 800183a:	f7ff feeb 	bl	8001614 <HAL_GetTick>
 800183e:	1b80      	subs	r0, r0, r6
 8001840:	42a8      	cmp	r0, r5
 8001842:	d8ed      	bhi.n	8001820 <HAL_ADC_PollForConversion+0x58>
 8001844:	e7d6      	b.n	80017f4 <HAL_ADC_PollForConversion+0x2c>
 8001846:	f894 0024 	ldrb.w	r0, [r4, #36]	; 0x24
 800184a:	2800      	cmp	r0, #0
 800184c:	d1e3      	bne.n	8001816 <HAL_ADC_PollForConversion+0x4e>
 800184e:	6b1a      	ldr	r2, [r3, #48]	; 0x30
 8001850:	f012 7ff8 	tst.w	r2, #32505856	; 0x1f00000
 8001854:	d002      	beq.n	800185c <HAL_ADC_PollForConversion+0x94>
 8001856:	689b      	ldr	r3, [r3, #8]
 8001858:	055a      	lsls	r2, r3, #21
 800185a:	d4dc      	bmi.n	8001816 <HAL_ADC_PollForConversion+0x4e>
 800185c:	6ce3      	ldr	r3, [r4, #76]	; 0x4c
 800185e:	f423 7380 	bic.w	r3, r3, #256	; 0x100
 8001862:	64e3      	str	r3, [r4, #76]	; 0x4c
 8001864:	6ce3      	ldr	r3, [r4, #76]	; 0x4c
 8001866:	04db      	lsls	r3, r3, #19
 8001868:	d4d5      	bmi.n	8001816 <HAL_ADC_PollForConversion+0x4e>
 800186a:	6ce3      	ldr	r3, [r4, #76]	; 0x4c
 800186c:	f043 0301 	orr.w	r3, r3, #1
 8001870:	64e3      	str	r3, [r4, #76]	; 0x4c
 8001872:	e7bb      	b.n	80017ec <HAL_ADC_PollForConversion+0x24>

08001874 <HAL_ADC_GetValue>:
 8001874:	6803      	ldr	r3, [r0, #0]
 8001876:	6d98      	ldr	r0, [r3, #88]	; 0x58
 8001878:	4770      	bx	lr
	...

0800187c <HAL_ADC_ConfigChannel>:
 800187c:	2300      	movs	r3, #0
 800187e:	b573      	push	{r0, r1, r4, r5, r6, lr}
 8001880:	9301      	str	r3, [sp, #4]
 8001882:	f890 3048 	ldrb.w	r3, [r0, #72]	; 0x48
 8001886:	2b01      	cmp	r3, #1
 8001888:	f000 809a 	beq.w	80019c0 <HAL_ADC_ConfigChannel+0x144>
 800188c:	2301      	movs	r3, #1
 800188e:	f880 3048 	strb.w	r3, [r0, #72]	; 0x48
 8001892:	684d      	ldr	r5, [r1, #4]
 8001894:	6804      	ldr	r4, [r0, #0]
 8001896:	2d06      	cmp	r5, #6
 8001898:	680a      	ldr	r2, [r1, #0]
 800189a:	eb05 0385 	add.w	r3, r5, r5, lsl #2
 800189e:	d822      	bhi.n	80018e6 <HAL_ADC_ConfigChannel+0x6a>
 80018a0:	261f      	movs	r6, #31
 80018a2:	6c25      	ldr	r5, [r4, #64]	; 0x40
 80018a4:	3b05      	subs	r3, #5
 80018a6:	409e      	lsls	r6, r3
 80018a8:	ea25 0506 	bic.w	r5, r5, r6
 80018ac:	fa02 f303 	lsl.w	r3, r2, r3
 80018b0:	432b      	orrs	r3, r5
 80018b2:	6423      	str	r3, [r4, #64]	; 0x40
 80018b4:	2a09      	cmp	r2, #9
 80018b6:	d848      	bhi.n	800194a <HAL_ADC_ConfigChannel+0xce>
 80018b8:	2607      	movs	r6, #7
 80018ba:	6963      	ldr	r3, [r4, #20]
 80018bc:	688d      	ldr	r5, [r1, #8]
 80018be:	eb02 0242 	add.w	r2, r2, r2, lsl #1
 80018c2:	4096      	lsls	r6, r2
 80018c4:	ea23 0306 	bic.w	r3, r3, r6
 80018c8:	fa05 f202 	lsl.w	r2, r5, r2
 80018cc:	431a      	orrs	r2, r3
 80018ce:	6162      	str	r2, [r4, #20]
 80018d0:	6809      	ldr	r1, [r1, #0]
 80018d2:	f1a1 0310 	sub.w	r3, r1, #16
 80018d6:	2b01      	cmp	r3, #1
 80018d8:	d95a      	bls.n	8001990 <HAL_ADC_ConfigChannel+0x114>
 80018da:	2300      	movs	r3, #0
 80018dc:	f880 3048 	strb.w	r3, [r0, #72]	; 0x48
 80018e0:	4618      	mov	r0, r3
 80018e2:	b002      	add	sp, #8
 80018e4:	bd70      	pop	{r4, r5, r6, pc}
 80018e6:	2d0c      	cmp	r5, #12
 80018e8:	d80a      	bhi.n	8001900 <HAL_ADC_ConfigChannel+0x84>
 80018ea:	261f      	movs	r6, #31
 80018ec:	6be5      	ldr	r5, [r4, #60]	; 0x3c
 80018ee:	3b23      	subs	r3, #35	; 0x23
 80018f0:	409e      	lsls	r6, r3
 80018f2:	ea25 0506 	bic.w	r5, r5, r6
 80018f6:	fa02 f303 	lsl.w	r3, r2, r3
 80018fa:	432b      	orrs	r3, r5
 80018fc:	63e3      	str	r3, [r4, #60]	; 0x3c
 80018fe:	e7d9      	b.n	80018b4 <HAL_ADC_ConfigChannel+0x38>
 8001900:	2d12      	cmp	r5, #18
 8001902:	d80a      	bhi.n	800191a <HAL_ADC_ConfigChannel+0x9e>
 8001904:	261f      	movs	r6, #31
 8001906:	6ba5      	ldr	r5, [r4, #56]	; 0x38
 8001908:	3b41      	subs	r3, #65	; 0x41
 800190a:	409e      	lsls	r6, r3
 800190c:	ea25 0506 	bic.w	r5, r5, r6
 8001910:	fa02 f303 	lsl.w	r3, r2, r3
 8001914:	432b      	orrs	r3, r5
 8001916:	63a3      	str	r3, [r4, #56]	; 0x38
 8001918:	e7cc      	b.n	80018b4 <HAL_ADC_ConfigChannel+0x38>
 800191a:	2d18      	cmp	r5, #24
 800191c:	f04f 051f 	mov.w	r5, #31
 8001920:	d809      	bhi.n	8001936 <HAL_ADC_ConfigChannel+0xba>
 8001922:	6b66      	ldr	r6, [r4, #52]	; 0x34
 8001924:	3b5f      	subs	r3, #95	; 0x5f
 8001926:	409d      	lsls	r5, r3
 8001928:	ea26 0505 	bic.w	r5, r6, r5
 800192c:	fa02 f303 	lsl.w	r3, r2, r3
 8001930:	432b      	orrs	r3, r5
 8001932:	6363      	str	r3, [r4, #52]	; 0x34
 8001934:	e7be      	b.n	80018b4 <HAL_ADC_ConfigChannel+0x38>
 8001936:	6b26      	ldr	r6, [r4, #48]	; 0x30
 8001938:	3b7d      	subs	r3, #125	; 0x7d
 800193a:	409d      	lsls	r5, r3
 800193c:	ea26 0505 	bic.w	r5, r6, r5
 8001940:	fa02 f303 	lsl.w	r3, r2, r3
 8001944:	432b      	orrs	r3, r5
 8001946:	6323      	str	r3, [r4, #48]	; 0x30
 8001948:	e7b4      	b.n	80018b4 <HAL_ADC_ConfigChannel+0x38>
 800194a:	2a13      	cmp	r2, #19
 800194c:	d80e      	bhi.n	800196c <HAL_ADC_ConfigChannel+0xf0>
 800194e:	eb02 0242 	add.w	r2, r2, r2, lsl #1
 8001952:	f1a2 051e 	sub.w	r5, r2, #30
 8001956:	2207      	movs	r2, #7
 8001958:	6923      	ldr	r3, [r4, #16]
 800195a:	40aa      	lsls	r2, r5
 800195c:	ea23 0202 	bic.w	r2, r3, r2
 8001960:	688b      	ldr	r3, [r1, #8]
 8001962:	fa03 f505 	lsl.w	r5, r3, r5
 8001966:	432a      	orrs	r2, r5
 8001968:	6122      	str	r2, [r4, #16]
 800196a:	e7b1      	b.n	80018d0 <HAL_ADC_ConfigChannel+0x54>
 800196c:	2a1a      	cmp	r2, #26
 800196e:	d80d      	bhi.n	800198c <HAL_ADC_ConfigChannel+0x110>
 8001970:	2507      	movs	r5, #7
 8001972:	eb02 0242 	add.w	r2, r2, r2, lsl #1
 8001976:	68e3      	ldr	r3, [r4, #12]
 8001978:	3a3c      	subs	r2, #60	; 0x3c
 800197a:	4095      	lsls	r5, r2
 800197c:	ea23 0305 	bic.w	r3, r3, r5
 8001980:	688d      	ldr	r5, [r1, #8]
 8001982:	fa05 f202 	lsl.w	r2, r5, r2
 8001986:	431a      	orrs	r2, r3
 8001988:	60e2      	str	r2, [r4, #12]
 800198a:	e7a1      	b.n	80018d0 <HAL_ADC_ConfigChannel+0x54>
 800198c:	bf00      	nop
 800198e:	e79f      	b.n	80018d0 <HAL_ADC_ConfigChannel+0x54>
 8001990:	4b0c      	ldr	r3, [pc, #48]	; (80019c4 <HAL_ADC_ConfigChannel+0x148>)
 8001992:	685a      	ldr	r2, [r3, #4]
 8001994:	0212      	lsls	r2, r2, #8
 8001996:	d4a0      	bmi.n	80018da <HAL_ADC_ConfigChannel+0x5e>
 8001998:	685a      	ldr	r2, [r3, #4]
 800199a:	2910      	cmp	r1, #16
 800199c:	f442 0200 	orr.w	r2, r2, #8388608	; 0x800000
 80019a0:	605a      	str	r2, [r3, #4]
 80019a2:	d19a      	bne.n	80018da <HAL_ADC_ConfigChannel+0x5e>
 80019a4:	4b08      	ldr	r3, [pc, #32]	; (80019c8 <HAL_ADC_ConfigChannel+0x14c>)
 80019a6:	4a09      	ldr	r2, [pc, #36]	; (80019cc <HAL_ADC_ConfigChannel+0x150>)
 80019a8:	681b      	ldr	r3, [r3, #0]
 80019aa:	fbb3 f2f2 	udiv	r2, r3, r2
 80019ae:	230a      	movs	r3, #10
 80019b0:	4353      	muls	r3, r2
 80019b2:	9301      	str	r3, [sp, #4]
 80019b4:	9b01      	ldr	r3, [sp, #4]
 80019b6:	2b00      	cmp	r3, #0
 80019b8:	d08f      	beq.n	80018da <HAL_ADC_ConfigChannel+0x5e>
 80019ba:	9b01      	ldr	r3, [sp, #4]
 80019bc:	3b01      	subs	r3, #1
 80019be:	e7f8      	b.n	80019b2 <HAL_ADC_ConfigChannel+0x136>
 80019c0:	2002      	movs	r0, #2
 80019c2:	e78e      	b.n	80018e2 <HAL_ADC_ConfigChannel+0x66>
 80019c4:	40012700 	.word	0x40012700
 80019c8:	2000004c 	.word	0x2000004c
 80019cc:	000f4240 	.word	0x000f4240

080019d0 <ADC_Enable>:
 80019d0:	2300      	movs	r3, #0
 80019d2:	b537      	push	{r0, r1, r2, r4, r5, lr}
 80019d4:	9301      	str	r3, [sp, #4]
 80019d6:	6803      	ldr	r3, [r0, #0]
 80019d8:	4604      	mov	r4, r0
 80019da:	681a      	ldr	r2, [r3, #0]
 80019dc:	0652      	lsls	r2, r2, #25
 80019de:	d502      	bpl.n	80019e6 <ADC_Enable+0x16>
 80019e0:	2000      	movs	r0, #0
 80019e2:	b003      	add	sp, #12
 80019e4:	bd30      	pop	{r4, r5, pc}
 80019e6:	689a      	ldr	r2, [r3, #8]
 80019e8:	f042 0201 	orr.w	r2, r2, #1
 80019ec:	609a      	str	r2, [r3, #8]
 80019ee:	4b15      	ldr	r3, [pc, #84]	; (8001a44 <ADC_Enable+0x74>)
 80019f0:	4a15      	ldr	r2, [pc, #84]	; (8001a48 <ADC_Enable+0x78>)
 80019f2:	681b      	ldr	r3, [r3, #0]
 80019f4:	fbb3 f3f2 	udiv	r3, r3, r2
 80019f8:	eb03 0343 	add.w	r3, r3, r3, lsl #1
 80019fc:	9301      	str	r3, [sp, #4]
 80019fe:	9b01      	ldr	r3, [sp, #4]
 8001a00:	b9e3      	cbnz	r3, 8001a3c <ADC_Enable+0x6c>
 8001a02:	f7ff fe07 	bl	8001614 <HAL_GetTick>
 8001a06:	4605      	mov	r5, r0
 8001a08:	6823      	ldr	r3, [r4, #0]
 8001a0a:	681b      	ldr	r3, [r3, #0]
 8001a0c:	065b      	lsls	r3, r3, #25
 8001a0e:	d4e7      	bmi.n	80019e0 <ADC_Enable+0x10>
 8001a10:	f7ff fe00 	bl	8001614 <HAL_GetTick>
 8001a14:	1b40      	subs	r0, r0, r5
 8001a16:	2802      	cmp	r0, #2
 8001a18:	d9f6      	bls.n	8001a08 <ADC_Enable+0x38>
 8001a1a:	6823      	ldr	r3, [r4, #0]
 8001a1c:	681b      	ldr	r3, [r3, #0]
 8001a1e:	f013 0340 	ands.w	r3, r3, #64	; 0x40
 8001a22:	d1f1      	bne.n	8001a08 <ADC_Enable+0x38>
 8001a24:	6ce2      	ldr	r2, [r4, #76]	; 0x4c
 8001a26:	2001      	movs	r0, #1
 8001a28:	f042 0210 	orr.w	r2, r2, #16
 8001a2c:	64e2      	str	r2, [r4, #76]	; 0x4c
 8001a2e:	6d22      	ldr	r2, [r4, #80]	; 0x50
 8001a30:	f884 3048 	strb.w	r3, [r4, #72]	; 0x48
 8001a34:	f042 0201 	orr.w	r2, r2, #1
 8001a38:	6522      	str	r2, [r4, #80]	; 0x50
 8001a3a:	e7d2      	b.n	80019e2 <ADC_Enable+0x12>
 8001a3c:	9b01      	ldr	r3, [sp, #4]
 8001a3e:	3b01      	subs	r3, #1
 8001a40:	e7dc      	b.n	80019fc <ADC_Enable+0x2c>
 8001a42:	bf00      	nop
 8001a44:	2000004c 	.word	0x2000004c
 8001a48:	000f4240 	.word	0x000f4240

08001a4c <HAL_ADC_Start>:
 8001a4c:	b510      	push	{r4, lr}
 8001a4e:	f890 3048 	ldrb.w	r3, [r0, #72]	; 0x48
 8001a52:	4604      	mov	r4, r0
 8001a54:	2b01      	cmp	r3, #1
 8001a56:	d02e      	beq.n	8001ab6 <HAL_ADC_Start+0x6a>
 8001a58:	2301      	movs	r3, #1
 8001a5a:	f880 3048 	strb.w	r3, [r0, #72]	; 0x48
 8001a5e:	f7ff ffb7 	bl	80019d0 <ADC_Enable>
 8001a62:	bb38      	cbnz	r0, 8001ab4 <HAL_ADC_Start+0x68>
 8001a64:	6ce3      	ldr	r3, [r4, #76]	; 0x4c
 8001a66:	f423 63e0 	bic.w	r3, r3, #1792	; 0x700
 8001a6a:	f023 0301 	bic.w	r3, r3, #1
 8001a6e:	f443 7380 	orr.w	r3, r3, #256	; 0x100
 8001a72:	64e3      	str	r3, [r4, #76]	; 0x4c
 8001a74:	6823      	ldr	r3, [r4, #0]
 8001a76:	685a      	ldr	r2, [r3, #4]
 8001a78:	0552      	lsls	r2, r2, #21
 8001a7a:	bf41      	itttt	mi
 8001a7c:	6ce2      	ldrmi	r2, [r4, #76]	; 0x4c
 8001a7e:	f422 5240 	bicmi.w	r2, r2, #12288	; 0x3000
 8001a82:	f442 5280 	orrmi.w	r2, r2, #4096	; 0x1000
 8001a86:	64e2      	strmi	r2, [r4, #76]	; 0x4c
 8001a88:	6ce2      	ldr	r2, [r4, #76]	; 0x4c
 8001a8a:	f412 5280 	ands.w	r2, r2, #4096	; 0x1000
 8001a8e:	bf1c      	itt	ne
 8001a90:	6d22      	ldrne	r2, [r4, #80]	; 0x50
 8001a92:	f022 0206 	bicne.w	r2, r2, #6
 8001a96:	6522      	str	r2, [r4, #80]	; 0x50
 8001a98:	2200      	movs	r2, #0
 8001a9a:	f884 2048 	strb.w	r2, [r4, #72]	; 0x48
 8001a9e:	f06f 0222 	mvn.w	r2, #34	; 0x22
 8001aa2:	601a      	str	r2, [r3, #0]
 8001aa4:	689a      	ldr	r2, [r3, #8]
 8001aa6:	f012 5f40 	tst.w	r2, #805306368	; 0x30000000
 8001aaa:	d103      	bne.n	8001ab4 <HAL_ADC_Start+0x68>
 8001aac:	689a      	ldr	r2, [r3, #8]
 8001aae:	f042 4280 	orr.w	r2, r2, #1073741824	; 0x40000000
 8001ab2:	609a      	str	r2, [r3, #8]
 8001ab4:	bd10      	pop	{r4, pc}
 8001ab6:	2002      	movs	r0, #2
 8001ab8:	e7fc      	b.n	8001ab4 <HAL_ADC_Start+0x68>

08001aba <ADC_ConversionStop_Disable>:
 8001aba:	b538      	push	{r3, r4, r5, lr}
 8001abc:	6803      	ldr	r3, [r0, #0]
 8001abe:	4604      	mov	r4, r0
 8001ac0:	681a      	ldr	r2, [r3, #0]
 8001ac2:	0651      	lsls	r1, r2, #25
 8001ac4:	d401      	bmi.n	8001aca <ADC_ConversionStop_Disable+0x10>
 8001ac6:	2000      	movs	r0, #0
 8001ac8:	bd38      	pop	{r3, r4, r5, pc}
 8001aca:	689a      	ldr	r2, [r3, #8]
 8001acc:	f022 0201 	bic.w	r2, r2, #1
 8001ad0:	609a      	str	r2, [r3, #8]
 8001ad2:	f7ff fd9f 	bl	8001614 <HAL_GetTick>
 8001ad6:	4605      	mov	r5, r0
 8001ad8:	6823      	ldr	r3, [r4, #0]
 8001ada:	681b      	ldr	r3, [r3, #0]
 8001adc:	065b      	lsls	r3, r3, #25
 8001ade:	d5f2      	bpl.n	8001ac6 <ADC_ConversionStop_Disable+0xc>
 8001ae0:	f7ff fd98 	bl	8001614 <HAL_GetTick>
 8001ae4:	1b40      	subs	r0, r0, r5
 8001ae6:	2802      	cmp	r0, #2
 8001ae8:	d9f6      	bls.n	8001ad8 <ADC_ConversionStop_Disable+0x1e>
 8001aea:	6823      	ldr	r3, [r4, #0]
 8001aec:	681b      	ldr	r3, [r3, #0]
 8001aee:	065a      	lsls	r2, r3, #25
 8001af0:	d5f2      	bpl.n	8001ad8 <ADC_ConversionStop_Disable+0x1e>
 8001af2:	6ce3      	ldr	r3, [r4, #76]	; 0x4c
 8001af4:	2001      	movs	r0, #1
 8001af6:	f043 0310 	orr.w	r3, r3, #16
 8001afa:	64e3      	str	r3, [r4, #76]	; 0x4c
 8001afc:	6d23      	ldr	r3, [r4, #80]	; 0x50
 8001afe:	f043 0301 	orr.w	r3, r3, #1
 8001b02:	6523      	str	r3, [r4, #80]	; 0x50
 8001b04:	e7e0      	b.n	8001ac8 <ADC_ConversionStop_Disable+0xe>

08001b06 <HAL_ADC_Stop>:
 8001b06:	b510      	push	{r4, lr}
 8001b08:	f890 3048 	ldrb.w	r3, [r0, #72]	; 0x48
 8001b0c:	4604      	mov	r4, r0
 8001b0e:	2b01      	cmp	r3, #1
 8001b10:	d011      	beq.n	8001b36 <HAL_ADC_Stop+0x30>
 8001b12:	2301      	movs	r3, #1
 8001b14:	f880 3048 	strb.w	r3, [r0, #72]	; 0x48
 8001b18:	f7ff ffcf 	bl	8001aba <ADC_ConversionStop_Disable>
 8001b1c:	b938      	cbnz	r0, 8001b2e <HAL_ADC_Stop+0x28>
 8001b1e:	6ce3      	ldr	r3, [r4, #76]	; 0x4c
 8001b20:	f423 5388 	bic.w	r3, r3, #4352	; 0x1100
 8001b24:	f023 0301 	bic.w	r3, r3, #1
 8001b28:	f043 0301 	orr.w	r3, r3, #1
 8001b2c:	64e3      	str	r3, [r4, #76]	; 0x4c
 8001b2e:	2300      	movs	r3, #0
 8001b30:	f884 3048 	strb.w	r3, [r4, #72]	; 0x48
 8001b34:	bd10      	pop	{r4, pc}
 8001b36:	2002      	movs	r0, #2
 8001b38:	e7fc      	b.n	8001b34 <HAL_ADC_Stop+0x2e>
	...

08001b3c <HAL_NVIC_SetPriorityGrouping>:
 8001b3c:	4907      	ldr	r1, [pc, #28]	; (8001b5c <HAL_NVIC_SetPriorityGrouping+0x20>)
 8001b3e:	0203      	lsls	r3, r0, #8
 8001b40:	68ca      	ldr	r2, [r1, #12]
 8001b42:	f403 63e0 	and.w	r3, r3, #1792	; 0x700
 8001b46:	f422 62e0 	bic.w	r2, r2, #1792	; 0x700
 8001b4a:	0412      	lsls	r2, r2, #16
 8001b4c:	0c12      	lsrs	r2, r2, #16
 8001b4e:	4313      	orrs	r3, r2
 8001b50:	f043 63bf 	orr.w	r3, r3, #100139008	; 0x5f80000
 8001b54:	f443 3300 	orr.w	r3, r3, #131072	; 0x20000
 8001b58:	60cb      	str	r3, [r1, #12]
 8001b5a:	4770      	bx	lr
 8001b5c:	e000ed00 	.word	0xe000ed00

08001b60 <HAL_NVIC_SetPriority>:
 8001b60:	4b16      	ldr	r3, [pc, #88]	; (8001bbc <HAL_NVIC_SetPriority+0x5c>)
 8001b62:	b530      	push	{r4, r5, lr}
 8001b64:	68dc      	ldr	r4, [r3, #12]
 8001b66:	f3c4 2402 	ubfx	r4, r4, #8, #3
 8001b6a:	f1c4 0307 	rsb	r3, r4, #7
 8001b6e:	1d25      	adds	r5, r4, #4
 8001b70:	2b04      	cmp	r3, #4
 8001b72:	bf28      	it	cs
 8001b74:	2304      	movcs	r3, #4
 8001b76:	2d06      	cmp	r5, #6
 8001b78:	f04f 35ff 	mov.w	r5, #4294967295
 8001b7c:	bf98      	it	ls
 8001b7e:	2400      	movls	r4, #0
 8001b80:	fa05 f303 	lsl.w	r3, r5, r3
 8001b84:	bf88      	it	hi
 8001b86:	3c03      	subhi	r4, #3
 8001b88:	ea21 0303 	bic.w	r3, r1, r3
 8001b8c:	40a3      	lsls	r3, r4
 8001b8e:	fa05 f404 	lsl.w	r4, r5, r4
 8001b92:	ea22 0204 	bic.w	r2, r2, r4
 8001b96:	2800      	cmp	r0, #0
 8001b98:	ea43 0302 	orr.w	r3, r3, r2
 8001b9c:	bfac      	ite	ge
 8001b9e:	f100 4060 	addge.w	r0, r0, #3758096384	; 0xe0000000
 8001ba2:	4a07      	ldrlt	r2, [pc, #28]	; (8001bc0 <HAL_NVIC_SetPriority+0x60>)
 8001ba4:	ea4f 1303 	mov.w	r3, r3, lsl #4
 8001ba8:	b2db      	uxtb	r3, r3
 8001baa:	bfab      	itete	ge
 8001bac:	f500 4061 	addge.w	r0, r0, #57600	; 0xe100
 8001bb0:	f000 000f 	andlt.w	r0, r0, #15
 8001bb4:	f880 3300 	strbge.w	r3, [r0, #768]	; 0x300
 8001bb8:	5413      	strblt	r3, [r2, r0]
 8001bba:	bd30      	pop	{r4, r5, pc}
 8001bbc:	e000ed00 	.word	0xe000ed00
 8001bc0:	e000ed14 	.word	0xe000ed14

08001bc4 <HAL_NVIC_EnableIRQ>:
 8001bc4:	2800      	cmp	r0, #0
 8001bc6:	db08      	blt.n	8001bda <HAL_NVIC_EnableIRQ+0x16>
 8001bc8:	2301      	movs	r3, #1
 8001bca:	0942      	lsrs	r2, r0, #5
 8001bcc:	f000 001f 	and.w	r0, r0, #31
 8001bd0:	fa03 f000 	lsl.w	r0, r3, r0
 8001bd4:	4b01      	ldr	r3, [pc, #4]	; (8001bdc <HAL_NVIC_EnableIRQ+0x18>)
 8001bd6:	f843 0022 	str.w	r0, [r3, r2, lsl #2]
 8001bda:	4770      	bx	lr
 8001bdc:	e000e100 	.word	0xe000e100

08001be0 <HAL_SYSTICK_Config>:
 8001be0:	3801      	subs	r0, #1
 8001be2:	f1b0 7f80 	cmp.w	r0, #16777216	; 0x1000000
 8001be6:	d20a      	bcs.n	8001bfe <HAL_SYSTICK_Config+0x1e>
 8001be8:	21f0      	movs	r1, #240	; 0xf0
 8001bea:	4b06      	ldr	r3, [pc, #24]	; (8001c04 <HAL_SYSTICK_Config+0x24>)
 8001bec:	4a06      	ldr	r2, [pc, #24]	; (8001c08 <HAL_SYSTICK_Config+0x28>)
 8001bee:	6058      	str	r0, [r3, #4]
 8001bf0:	f882 1023 	strb.w	r1, [r2, #35]	; 0x23
 8001bf4:	2000      	movs	r0, #0
 8001bf6:	2207      	movs	r2, #7
 8001bf8:	6098      	str	r0, [r3, #8]
 8001bfa:	601a      	str	r2, [r3, #0]
 8001bfc:	4770      	bx	lr
 8001bfe:	2001      	movs	r0, #1
 8001c00:	4770      	bx	lr
 8001c02:	bf00      	nop
 8001c04:	e000e010 	.word	0xe000e010
 8001c08:	e000ed00 	.word	0xe000ed00

08001c0c <HAL_DMA_Abort_IT>:
 8001c0c:	b510      	push	{r4, lr}
 8001c0e:	f890 2021 	ldrb.w	r2, [r0, #33]	; 0x21
 8001c12:	2a02      	cmp	r2, #2
 8001c14:	d003      	beq.n	8001c1e <HAL_DMA_Abort_IT+0x12>
 8001c16:	2204      	movs	r2, #4
 8001c18:	6382      	str	r2, [r0, #56]	; 0x38
 8001c1a:	2001      	movs	r0, #1
 8001c1c:	bd10      	pop	{r4, pc}
 8001c1e:	6802      	ldr	r2, [r0, #0]
 8001c20:	6b43      	ldr	r3, [r0, #52]	; 0x34
 8001c22:	6811      	ldr	r1, [r2, #0]
 8001c24:	f021 010e 	bic.w	r1, r1, #14
 8001c28:	6011      	str	r1, [r2, #0]
 8001c2a:	6811      	ldr	r1, [r2, #0]
 8001c2c:	f021 0101 	bic.w	r1, r1, #1
 8001c30:	6011      	str	r1, [r2, #0]
 8001c32:	2101      	movs	r1, #1
 8001c34:	e9d0 420f 	ldrd	r4, r2, [r0, #60]	; 0x3c
 8001c38:	f002 021c 	and.w	r2, r2, #28
 8001c3c:	fa01 f202 	lsl.w	r2, r1, r2
 8001c40:	6062      	str	r2, [r4, #4]
 8001c42:	2400      	movs	r4, #0
 8001c44:	f880 1021 	strb.w	r1, [r0, #33]	; 0x21
 8001c48:	f880 4020 	strb.w	r4, [r0, #32]
 8001c4c:	b113      	cbz	r3, 8001c54 <HAL_DMA_Abort_IT+0x48>
 8001c4e:	4798      	blx	r3
 8001c50:	4620      	mov	r0, r4
 8001c52:	e7e3      	b.n	8001c1c <HAL_DMA_Abort_IT+0x10>
 8001c54:	4618      	mov	r0, r3
 8001c56:	e7e1      	b.n	8001c1c <HAL_DMA_Abort_IT+0x10>

08001c58 <HAL_DMA_GetState>:
 8001c58:	f890 0021 	ldrb.w	r0, [r0, #33]	; 0x21
 8001c5c:	4770      	bx	lr
	...

08001c60 <HAL_GPIO_Init>:
 8001c60:	2300      	movs	r3, #0
 8001c62:	e92d 4ff7 	stmdb	sp!, {r0, r1, r2, r4, r5, r6, r7, r8, r9, sl, fp, lr}
 8001c66:	f8df 9184 	ldr.w	r9, [pc, #388]	; 8001dec <HAL_GPIO_Init+0x18c>
 8001c6a:	4c5e      	ldr	r4, [pc, #376]	; (8001de4 <HAL_GPIO_Init+0x184>)
 8001c6c:	680a      	ldr	r2, [r1, #0]
 8001c6e:	fa32 f503 	lsrs.w	r5, r2, r3
 8001c72:	d102      	bne.n	8001c7a <HAL_GPIO_Init+0x1a>
 8001c74:	b003      	add	sp, #12
 8001c76:	e8bd 8ff0 	ldmia.w	sp!, {r4, r5, r6, r7, r8, r9, sl, fp, pc}
 8001c7a:	2501      	movs	r5, #1
 8001c7c:	fa05 fe03 	lsl.w	lr, r5, r3
 8001c80:	ea1e 0202 	ands.w	r2, lr, r2
 8001c84:	f000 80a3 	beq.w	8001dce <HAL_GPIO_Init+0x16e>
 8001c88:	f04f 0c03 	mov.w	ip, #3
 8001c8c:	684e      	ldr	r6, [r1, #4]
 8001c8e:	ea4f 0843 	mov.w	r8, r3, lsl #1
 8001c92:	f006 0503 	and.w	r5, r6, #3
 8001c96:	1e6f      	subs	r7, r5, #1
 8001c98:	fa0c fc08 	lsl.w	ip, ip, r8
 8001c9c:	2f01      	cmp	r7, #1
 8001c9e:	ea6f 0c0c 	mvn.w	ip, ip
 8001ca2:	d834      	bhi.n	8001d0e <HAL_GPIO_Init+0xae>
 8001ca4:	6887      	ldr	r7, [r0, #8]
 8001ca6:	ea07 0a0c 	and.w	sl, r7, ip
 8001caa:	68cf      	ldr	r7, [r1, #12]
 8001cac:	fa07 f708 	lsl.w	r7, r7, r8
 8001cb0:	ea47 070a 	orr.w	r7, r7, sl
 8001cb4:	6087      	str	r7, [r0, #8]
 8001cb6:	6847      	ldr	r7, [r0, #4]
 8001cb8:	ea27 0e0e 	bic.w	lr, r7, lr
 8001cbc:	f3c6 1700 	ubfx	r7, r6, #4, #1
 8001cc0:	409f      	lsls	r7, r3
 8001cc2:	ea47 070e 	orr.w	r7, r7, lr
 8001cc6:	6047      	str	r7, [r0, #4]
 8001cc8:	68c7      	ldr	r7, [r0, #12]
 8001cca:	2d02      	cmp	r5, #2
 8001ccc:	ea07 0e0c 	and.w	lr, r7, ip
 8001cd0:	688f      	ldr	r7, [r1, #8]
 8001cd2:	fa07 f708 	lsl.w	r7, r7, r8
 8001cd6:	ea47 070e 	orr.w	r7, r7, lr
 8001cda:	60c7      	str	r7, [r0, #12]
 8001cdc:	d119      	bne.n	8001d12 <HAL_GPIO_Init+0xb2>
 8001cde:	f04f 0e0f 	mov.w	lr, #15
 8001ce2:	ea4f 0ad3 	mov.w	sl, r3, lsr #3
 8001ce6:	eb00 0a8a 	add.w	sl, r0, sl, lsl #2
 8001cea:	f003 0b07 	and.w	fp, r3, #7
 8001cee:	f8da 7020 	ldr.w	r7, [sl, #32]
 8001cf2:	ea4f 0b8b 	mov.w	fp, fp, lsl #2
 8001cf6:	fa0e fe0b 	lsl.w	lr, lr, fp
 8001cfa:	ea27 0e0e 	bic.w	lr, r7, lr
 8001cfe:	690f      	ldr	r7, [r1, #16]
 8001d00:	fa07 f70b 	lsl.w	r7, r7, fp
 8001d04:	ea47 070e 	orr.w	r7, r7, lr
 8001d08:	f8ca 7020 	str.w	r7, [sl, #32]
 8001d0c:	e001      	b.n	8001d12 <HAL_GPIO_Init+0xb2>
 8001d0e:	2d03      	cmp	r5, #3
 8001d10:	d1da      	bne.n	8001cc8 <HAL_GPIO_Init+0x68>
 8001d12:	6807      	ldr	r7, [r0, #0]
 8001d14:	fa05 f508 	lsl.w	r5, r5, r8
 8001d18:	ea07 0c0c 	and.w	ip, r7, ip
 8001d1c:	ea45 050c 	orr.w	r5, r5, ip
 8001d20:	f416 3f40 	tst.w	r6, #196608	; 0x30000
 8001d24:	6005      	str	r5, [r0, #0]
 8001d26:	d052      	beq.n	8001dce <HAL_GPIO_Init+0x16e>
 8001d28:	f04f 0c0f 	mov.w	ip, #15
 8001d2c:	f8d9 5020 	ldr.w	r5, [r9, #32]
 8001d30:	f023 0703 	bic.w	r7, r3, #3
 8001d34:	f045 0501 	orr.w	r5, r5, #1
 8001d38:	f8c9 5020 	str.w	r5, [r9, #32]
 8001d3c:	f8d9 5020 	ldr.w	r5, [r9, #32]
 8001d40:	f107 4780 	add.w	r7, r7, #1073741824	; 0x40000000
 8001d44:	f005 0501 	and.w	r5, r5, #1
 8001d48:	9501      	str	r5, [sp, #4]
 8001d4a:	f507 3780 	add.w	r7, r7, #65536	; 0x10000
 8001d4e:	f003 0e03 	and.w	lr, r3, #3
 8001d52:	9d01      	ldr	r5, [sp, #4]
 8001d54:	ea4f 0e8e 	mov.w	lr, lr, lsl #2
 8001d58:	68bd      	ldr	r5, [r7, #8]
 8001d5a:	fa0c fc0e 	lsl.w	ip, ip, lr
 8001d5e:	ea25 0c0c 	bic.w	ip, r5, ip
 8001d62:	4d21      	ldr	r5, [pc, #132]	; (8001de8 <HAL_GPIO_Init+0x188>)
 8001d64:	42a8      	cmp	r0, r5
 8001d66:	d034      	beq.n	8001dd2 <HAL_GPIO_Init+0x172>
 8001d68:	f505 6580 	add.w	r5, r5, #1024	; 0x400
 8001d6c:	42a8      	cmp	r0, r5
 8001d6e:	d032      	beq.n	8001dd6 <HAL_GPIO_Init+0x176>
 8001d70:	f505 6580 	add.w	r5, r5, #1024	; 0x400
 8001d74:	42a8      	cmp	r0, r5
 8001d76:	d030      	beq.n	8001dda <HAL_GPIO_Init+0x17a>
 8001d78:	f505 6580 	add.w	r5, r5, #1024	; 0x400
 8001d7c:	42a8      	cmp	r0, r5
 8001d7e:	d02e      	beq.n	8001dde <HAL_GPIO_Init+0x17e>
 8001d80:	f505 6580 	add.w	r5, r5, #1024	; 0x400
 8001d84:	42a8      	cmp	r0, r5
 8001d86:	bf0c      	ite	eq
 8001d88:	2504      	moveq	r5, #4
 8001d8a:	2505      	movne	r5, #5
 8001d8c:	fa05 f50e 	lsl.w	r5, r5, lr
 8001d90:	ea45 050c 	orr.w	r5, r5, ip
 8001d94:	60bd      	str	r5, [r7, #8]
 8001d96:	43d7      	mvns	r7, r2
 8001d98:	6825      	ldr	r5, [r4, #0]
 8001d9a:	f416 3f80 	tst.w	r6, #65536	; 0x10000
 8001d9e:	bf0c      	ite	eq
 8001da0:	403d      	andeq	r5, r7
 8001da2:	4315      	orrne	r5, r2
 8001da4:	6025      	str	r5, [r4, #0]
 8001da6:	6865      	ldr	r5, [r4, #4]
 8001da8:	f416 3f00 	tst.w	r6, #131072	; 0x20000
 8001dac:	bf0c      	ite	eq
 8001dae:	403d      	andeq	r5, r7
 8001db0:	4315      	orrne	r5, r2
 8001db2:	6065      	str	r5, [r4, #4]
 8001db4:	68a5      	ldr	r5, [r4, #8]
 8001db6:	f416 1f80 	tst.w	r6, #1048576	; 0x100000
 8001dba:	bf0c      	ite	eq
 8001dbc:	403d      	andeq	r5, r7
 8001dbe:	4315      	orrne	r5, r2
 8001dc0:	60a5      	str	r5, [r4, #8]
 8001dc2:	68e5      	ldr	r5, [r4, #12]
 8001dc4:	02b6      	lsls	r6, r6, #10
 8001dc6:	bf54      	ite	pl
 8001dc8:	403d      	andpl	r5, r7
 8001dca:	4315      	orrmi	r5, r2
 8001dcc:	60e5      	str	r5, [r4, #12]
 8001dce:	3301      	adds	r3, #1
 8001dd0:	e74c      	b.n	8001c6c <HAL_GPIO_Init+0xc>
 8001dd2:	2500      	movs	r5, #0
 8001dd4:	e7da      	b.n	8001d8c <HAL_GPIO_Init+0x12c>
 8001dd6:	2501      	movs	r5, #1
 8001dd8:	e7d8      	b.n	8001d8c <HAL_GPIO_Init+0x12c>
 8001dda:	2502      	movs	r5, #2
 8001ddc:	e7d6      	b.n	8001d8c <HAL_GPIO_Init+0x12c>
 8001dde:	2503      	movs	r5, #3
 8001de0:	e7d4      	b.n	8001d8c <HAL_GPIO_Init+0x12c>
 8001de2:	bf00      	nop
 8001de4:	40010400 	.word	0x40010400
 8001de8:	40020000 	.word	0x40020000
 8001dec:	40023800 	.word	0x40023800

08001df0 <HAL_GPIO_WritePin>:
 8001df0:	b10a      	cbz	r2, 8001df6 <HAL_GPIO_WritePin+0x6>
 8001df2:	6181      	str	r1, [r0, #24]
 8001df4:	4770      	bx	lr
 8001df6:	0409      	lsls	r1, r1, #16
 8001df8:	e7fb      	b.n	8001df2 <HAL_GPIO_WritePin+0x2>
	...

08001dfc <HAL_I2C_Init>:
 8001dfc:	b570      	push	{r4, r5, r6, lr}
 8001dfe:	4604      	mov	r4, r0
 8001e00:	b908      	cbnz	r0, 8001e06 <HAL_I2C_Init+0xa>
 8001e02:	2001      	movs	r0, #1
 8001e04:	bd70      	pop	{r4, r5, r6, pc}
 8001e06:	f890 303d 	ldrb.w	r3, [r0, #61]	; 0x3d
 8001e0a:	f003 02ff 	and.w	r2, r3, #255	; 0xff
 8001e0e:	b91b      	cbnz	r3, 8001e18 <HAL_I2C_Init+0x1c>
 8001e10:	f880 203c 	strb.w	r2, [r0, #60]	; 0x3c
 8001e14:	f7ff fa62 	bl	80012dc <HAL_I2C_MspInit>
 8001e18:	2324      	movs	r3, #36	; 0x24
 8001e1a:	f884 303d 	strb.w	r3, [r4, #61]	; 0x3d
 8001e1e:	6823      	ldr	r3, [r4, #0]
 8001e20:	681a      	ldr	r2, [r3, #0]
 8001e22:	f022 0201 	bic.w	r2, r2, #1
 8001e26:	601a      	str	r2, [r3, #0]
 8001e28:	681a      	ldr	r2, [r3, #0]
 8001e2a:	f442 4200 	orr.w	r2, r2, #32768	; 0x8000
 8001e2e:	601a      	str	r2, [r3, #0]
 8001e30:	681a      	ldr	r2, [r3, #0]
 8001e32:	f422 4200 	bic.w	r2, r2, #32768	; 0x8000
 8001e36:	601a      	str	r2, [r3, #0]
 8001e38:	f001 fa10 	bl	800325c <HAL_RCC_GetPCLK1Freq>
 8001e3c:	4a3f      	ldr	r2, [pc, #252]	; (8001f3c <HAL_I2C_Init+0x140>)
 8001e3e:	6863      	ldr	r3, [r4, #4]
 8001e40:	4293      	cmp	r3, r2
 8001e42:	bf94      	ite	ls
 8001e44:	4a3e      	ldrls	r2, [pc, #248]	; (8001f40 <HAL_I2C_Init+0x144>)
 8001e46:	4a3f      	ldrhi	r2, [pc, #252]	; (8001f44 <HAL_I2C_Init+0x148>)
 8001e48:	4290      	cmp	r0, r2
 8001e4a:	bf8c      	ite	hi
 8001e4c:	2200      	movhi	r2, #0
 8001e4e:	2201      	movls	r2, #1
 8001e50:	2a00      	cmp	r2, #0
 8001e52:	d1d6      	bne.n	8001e02 <HAL_I2C_Init+0x6>
 8001e54:	4e3c      	ldr	r6, [pc, #240]	; (8001f48 <HAL_I2C_Init+0x14c>)
 8001e56:	6822      	ldr	r2, [r4, #0]
 8001e58:	fbb0 f6f6 	udiv	r6, r0, r6
 8001e5c:	6851      	ldr	r1, [r2, #4]
 8001e5e:	3801      	subs	r0, #1
 8001e60:	f021 013f 	bic.w	r1, r1, #63	; 0x3f
 8001e64:	4331      	orrs	r1, r6
 8001e66:	6051      	str	r1, [r2, #4]
 8001e68:	4934      	ldr	r1, [pc, #208]	; (8001f3c <HAL_I2C_Init+0x140>)
 8001e6a:	6a15      	ldr	r5, [r2, #32]
 8001e6c:	428b      	cmp	r3, r1
 8001e6e:	bf81      	itttt	hi
 8001e70:	f44f 7196 	movhi.w	r1, #300	; 0x12c
 8001e74:	4371      	mulhi	r1, r6
 8001e76:	f44f 767a 	movhi.w	r6, #1000	; 0x3e8
 8001e7a:	fbb1 f1f6 	udivhi	r1, r1, r6
 8001e7e:	f025 053f 	bic.w	r5, r5, #63	; 0x3f
 8001e82:	bf94      	ite	ls
 8001e84:	1c71      	addls	r1, r6, #1
 8001e86:	3101      	addhi	r1, #1
 8001e88:	4329      	orrs	r1, r5
 8001e8a:	6211      	str	r1, [r2, #32]
 8001e8c:	69d1      	ldr	r1, [r2, #28]
 8001e8e:	4d2b      	ldr	r5, [pc, #172]	; (8001f3c <HAL_I2C_Init+0x140>)
 8001e90:	f421 414f 	bic.w	r1, r1, #52992	; 0xcf00
 8001e94:	42ab      	cmp	r3, r5
 8001e96:	f021 01ff 	bic.w	r1, r1, #255	; 0xff
 8001e9a:	d832      	bhi.n	8001f02 <HAL_I2C_Init+0x106>
 8001e9c:	005b      	lsls	r3, r3, #1
 8001e9e:	fbb0 f0f3 	udiv	r0, r0, r3
 8001ea2:	1c43      	adds	r3, r0, #1
 8001ea4:	f640 70fc 	movw	r0, #4092	; 0xffc
 8001ea8:	4203      	tst	r3, r0
 8001eaa:	d042      	beq.n	8001f32 <HAL_I2C_Init+0x136>
 8001eac:	f3c3 030b 	ubfx	r3, r3, #0, #12
 8001eb0:	430b      	orrs	r3, r1
 8001eb2:	61d3      	str	r3, [r2, #28]
 8001eb4:	6811      	ldr	r1, [r2, #0]
 8001eb6:	e9d4 3007 	ldrd	r3, r0, [r4, #28]
 8001eba:	f021 01c0 	bic.w	r1, r1, #192	; 0xc0
 8001ebe:	4303      	orrs	r3, r0
 8001ec0:	430b      	orrs	r3, r1
 8001ec2:	6013      	str	r3, [r2, #0]
 8001ec4:	6891      	ldr	r1, [r2, #8]
 8001ec6:	e9d4 0303 	ldrd	r0, r3, [r4, #12]
 8001eca:	f421 4103 	bic.w	r1, r1, #33536	; 0x8300
 8001ece:	4303      	orrs	r3, r0
 8001ed0:	f021 01ff 	bic.w	r1, r1, #255	; 0xff
 8001ed4:	430b      	orrs	r3, r1
 8001ed6:	6093      	str	r3, [r2, #8]
 8001ed8:	68d1      	ldr	r1, [r2, #12]
 8001eda:	e9d4 3005 	ldrd	r3, r0, [r4, #20]
 8001ede:	f021 01ff 	bic.w	r1, r1, #255	; 0xff
 8001ee2:	4303      	orrs	r3, r0
 8001ee4:	430b      	orrs	r3, r1
 8001ee6:	60d3      	str	r3, [r2, #12]
 8001ee8:	6813      	ldr	r3, [r2, #0]
 8001eea:	2000      	movs	r0, #0
 8001eec:	f043 0301 	orr.w	r3, r3, #1
 8001ef0:	6013      	str	r3, [r2, #0]
 8001ef2:	2320      	movs	r3, #32
 8001ef4:	6420      	str	r0, [r4, #64]	; 0x40
 8001ef6:	f884 303d 	strb.w	r3, [r4, #61]	; 0x3d
 8001efa:	6320      	str	r0, [r4, #48]	; 0x30
 8001efc:	f884 003e 	strb.w	r0, [r4, #62]	; 0x3e
 8001f00:	e780      	b.n	8001e04 <HAL_I2C_Init+0x8>
 8001f02:	68a5      	ldr	r5, [r4, #8]
 8001f04:	b955      	cbnz	r5, 8001f1c <HAL_I2C_Init+0x120>
 8001f06:	eb03 0343 	add.w	r3, r3, r3, lsl #1
 8001f0a:	fbb0 f3f3 	udiv	r3, r0, r3
 8001f0e:	3301      	adds	r3, #1
 8001f10:	f3c3 030b 	ubfx	r3, r3, #0, #12
 8001f14:	b17b      	cbz	r3, 8001f36 <HAL_I2C_Init+0x13a>
 8001f16:	f443 4300 	orr.w	r3, r3, #32768	; 0x8000
 8001f1a:	e7c9      	b.n	8001eb0 <HAL_I2C_Init+0xb4>
 8001f1c:	2519      	movs	r5, #25
 8001f1e:	436b      	muls	r3, r5
 8001f20:	fbb0 f3f3 	udiv	r3, r0, r3
 8001f24:	3301      	adds	r3, #1
 8001f26:	f3c3 030b 	ubfx	r3, r3, #0, #12
 8001f2a:	b123      	cbz	r3, 8001f36 <HAL_I2C_Init+0x13a>
 8001f2c:	f443 4340 	orr.w	r3, r3, #49152	; 0xc000
 8001f30:	e7be      	b.n	8001eb0 <HAL_I2C_Init+0xb4>
 8001f32:	2304      	movs	r3, #4
 8001f34:	e7bc      	b.n	8001eb0 <HAL_I2C_Init+0xb4>
 8001f36:	2301      	movs	r3, #1
 8001f38:	e7ba      	b.n	8001eb0 <HAL_I2C_Init+0xb4>
 8001f3a:	bf00      	nop
 8001f3c:	000186a0 	.word	0x000186a0
 8001f40:	001e847f 	.word	0x001e847f
 8001f44:	003d08ff 	.word	0x003d08ff
 8001f48:	000f4240 	.word	0x000f4240

08001f4c <HAL_I2C_MasterTxCpltCallback>:
 8001f4c:	4770      	bx	lr

08001f4e <HAL_I2C_MasterRxCpltCallback>:
 8001f4e:	4770      	bx	lr

08001f50 <HAL_I2C_SlaveTxCpltCallback>:
 8001f50:	4770      	bx	lr

08001f52 <HAL_I2C_SlaveRxCpltCallback>:
 8001f52:	4770      	bx	lr

08001f54 <HAL_I2C_AddrCallback>:
 8001f54:	4770      	bx	lr

08001f56 <HAL_I2C_ListenCpltCallback>:
 8001f56:	4770      	bx	lr

08001f58 <HAL_I2C_MemTxCpltCallback>:
 8001f58:	4770      	bx	lr

08001f5a <I2C_MemoryTransmit_TXE_BTF>:
 8001f5a:	f890 203d 	ldrb.w	r2, [r0, #61]	; 0x3d
 8001f5e:	b508      	push	{r3, lr}
 8001f60:	6d03      	ldr	r3, [r0, #80]	; 0x50
 8001f62:	b2d2      	uxtb	r2, r2
 8001f64:	b983      	cbnz	r3, 8001f88 <I2C_MemoryTransmit_TXE_BTF+0x2e>
 8001f66:	6cc3      	ldr	r3, [r0, #76]	; 0x4c
 8001f68:	6802      	ldr	r2, [r0, #0]
 8001f6a:	2b01      	cmp	r3, #1
 8001f6c:	6c83      	ldr	r3, [r0, #72]	; 0x48
 8001f6e:	d105      	bne.n	8001f7c <I2C_MemoryTransmit_TXE_BTF+0x22>
 8001f70:	b2db      	uxtb	r3, r3
 8001f72:	6113      	str	r3, [r2, #16]
 8001f74:	6d03      	ldr	r3, [r0, #80]	; 0x50
 8001f76:	3302      	adds	r3, #2
 8001f78:	6503      	str	r3, [r0, #80]	; 0x50
 8001f7a:	bd08      	pop	{r3, pc}
 8001f7c:	f3c3 2307 	ubfx	r3, r3, #8, #8
 8001f80:	6113      	str	r3, [r2, #16]
 8001f82:	6d03      	ldr	r3, [r0, #80]	; 0x50
 8001f84:	3301      	adds	r3, #1
 8001f86:	e7f7      	b.n	8001f78 <I2C_MemoryTransmit_TXE_BTF+0x1e>
 8001f88:	6d03      	ldr	r3, [r0, #80]	; 0x50
 8001f8a:	2b01      	cmp	r3, #1
 8001f8c:	d103      	bne.n	8001f96 <I2C_MemoryTransmit_TXE_BTF+0x3c>
 8001f8e:	6c83      	ldr	r3, [r0, #72]	; 0x48
 8001f90:	6802      	ldr	r2, [r0, #0]
 8001f92:	b2db      	uxtb	r3, r3
 8001f94:	e7f4      	b.n	8001f80 <I2C_MemoryTransmit_TXE_BTF+0x26>
 8001f96:	6d03      	ldr	r3, [r0, #80]	; 0x50
 8001f98:	2b02      	cmp	r3, #2
 8001f9a:	d1ee      	bne.n	8001f7a <I2C_MemoryTransmit_TXE_BTF+0x20>
 8001f9c:	2a22      	cmp	r2, #34	; 0x22
 8001f9e:	d105      	bne.n	8001fac <I2C_MemoryTransmit_TXE_BTF+0x52>
 8001fa0:	6802      	ldr	r2, [r0, #0]
 8001fa2:	6813      	ldr	r3, [r2, #0]
 8001fa4:	f443 7380 	orr.w	r3, r3, #256	; 0x100
 8001fa8:	6013      	str	r3, [r2, #0]
 8001faa:	e7ea      	b.n	8001f82 <I2C_MemoryTransmit_TXE_BTF+0x28>
 8001fac:	8d43      	ldrh	r3, [r0, #42]	; 0x2a
 8001fae:	b29b      	uxth	r3, r3
 8001fb0:	b163      	cbz	r3, 8001fcc <I2C_MemoryTransmit_TXE_BTF+0x72>
 8001fb2:	2a21      	cmp	r2, #33	; 0x21
 8001fb4:	d10a      	bne.n	8001fcc <I2C_MemoryTransmit_TXE_BTF+0x72>
 8001fb6:	6a43      	ldr	r3, [r0, #36]	; 0x24
 8001fb8:	6802      	ldr	r2, [r0, #0]
 8001fba:	f813 1b01 	ldrb.w	r1, [r3], #1
 8001fbe:	6111      	str	r1, [r2, #16]
 8001fc0:	6243      	str	r3, [r0, #36]	; 0x24
 8001fc2:	8d43      	ldrh	r3, [r0, #42]	; 0x2a
 8001fc4:	3b01      	subs	r3, #1
 8001fc6:	b29b      	uxth	r3, r3
 8001fc8:	8543      	strh	r3, [r0, #42]	; 0x2a
 8001fca:	e7d6      	b.n	8001f7a <I2C_MemoryTransmit_TXE_BTF+0x20>
 8001fcc:	8d43      	ldrh	r3, [r0, #42]	; 0x2a
 8001fce:	b29b      	uxth	r3, r3
 8001fd0:	2b00      	cmp	r3, #0
 8001fd2:	d1d2      	bne.n	8001f7a <I2C_MemoryTransmit_TXE_BTF+0x20>
 8001fd4:	2a21      	cmp	r2, #33	; 0x21
 8001fd6:	d1d0      	bne.n	8001f7a <I2C_MemoryTransmit_TXE_BTF+0x20>
 8001fd8:	6802      	ldr	r2, [r0, #0]
 8001fda:	6851      	ldr	r1, [r2, #4]
 8001fdc:	f421 61e0 	bic.w	r1, r1, #1792	; 0x700
 8001fe0:	6051      	str	r1, [r2, #4]
 8001fe2:	6811      	ldr	r1, [r2, #0]
 8001fe4:	f441 7100 	orr.w	r1, r1, #512	; 0x200
 8001fe8:	6011      	str	r1, [r2, #0]
 8001fea:	2220      	movs	r2, #32
 8001fec:	6303      	str	r3, [r0, #48]	; 0x30
 8001fee:	f880 203d 	strb.w	r2, [r0, #61]	; 0x3d
 8001ff2:	f880 303e 	strb.w	r3, [r0, #62]	; 0x3e
 8001ff6:	f7ff ffaf 	bl	8001f58 <HAL_I2C_MemTxCpltCallback>
 8001ffa:	e7be      	b.n	8001f7a <I2C_MemoryTransmit_TXE_BTF+0x20>

08001ffc <HAL_I2C_MemRxCpltCallback>:
 8001ffc:	4770      	bx	lr

08001ffe <HAL_I2C_ErrorCallback>:
 8001ffe:	4770      	bx	lr

08002000 <HAL_I2C_AbortCpltCallback>:
 8002000:	4770      	bx	lr
	...

08002004 <I2C_DMAAbort>:
 8002004:	2300      	movs	r3, #0
 8002006:	b537      	push	{r0, r1, r2, r4, r5, lr}
 8002008:	6a40      	ldr	r0, [r0, #36]	; 0x24
 800200a:	9301      	str	r3, [sp, #4]
 800200c:	f890 203d 	ldrb.w	r2, [r0, #61]	; 0x3d
 8002010:	4b2b      	ldr	r3, [pc, #172]	; (80020c0 <I2C_DMAAbort+0xbc>)
 8002012:	b2d1      	uxtb	r1, r2
 8002014:	f246 12a8 	movw	r2, #25000	; 0x61a8
 8002018:	681b      	ldr	r3, [r3, #0]
 800201a:	fbb3 f2f2 	udiv	r2, r3, r2
 800201e:	2323      	movs	r3, #35	; 0x23
 8002020:	4353      	muls	r3, r2
 8002022:	9301      	str	r3, [sp, #4]
 8002024:	6803      	ldr	r3, [r0, #0]
 8002026:	9a01      	ldr	r2, [sp, #4]
 8002028:	bb42      	cbnz	r2, 800207c <I2C_DMAAbort+0x78>
 800202a:	6c02      	ldr	r2, [r0, #64]	; 0x40
 800202c:	f042 0220 	orr.w	r2, r2, #32
 8002030:	6402      	str	r2, [r0, #64]	; 0x40
 8002032:	6b45      	ldr	r5, [r0, #52]	; 0x34
 8002034:	b10d      	cbz	r5, 800203a <I2C_DMAAbort+0x36>
 8002036:	2200      	movs	r2, #0
 8002038:	62aa      	str	r2, [r5, #40]	; 0x28
 800203a:	6b84      	ldr	r4, [r0, #56]	; 0x38
 800203c:	b10c      	cbz	r4, 8002042 <I2C_DMAAbort+0x3e>
 800203e:	2200      	movs	r2, #0
 8002040:	62a2      	str	r2, [r4, #40]	; 0x28
 8002042:	681a      	ldr	r2, [r3, #0]
 8002044:	f422 6280 	bic.w	r2, r2, #1024	; 0x400
 8002048:	601a      	str	r2, [r3, #0]
 800204a:	2200      	movs	r2, #0
 800204c:	8542      	strh	r2, [r0, #42]	; 0x2a
 800204e:	b105      	cbz	r5, 8002052 <I2C_DMAAbort+0x4e>
 8002050:	636a      	str	r2, [r5, #52]	; 0x34
 8002052:	b104      	cbz	r4, 8002056 <I2C_DMAAbort+0x52>
 8002054:	6362      	str	r2, [r4, #52]	; 0x34
 8002056:	681a      	ldr	r2, [r3, #0]
 8002058:	f022 0201 	bic.w	r2, r2, #1
 800205c:	601a      	str	r2, [r3, #0]
 800205e:	f890 203d 	ldrb.w	r2, [r0, #61]	; 0x3d
 8002062:	2a60      	cmp	r2, #96	; 0x60
 8002064:	d111      	bne.n	800208a <I2C_DMAAbort+0x86>
 8002066:	2320      	movs	r3, #32
 8002068:	f880 303d 	strb.w	r3, [r0, #61]	; 0x3d
 800206c:	2300      	movs	r3, #0
 800206e:	f880 303e 	strb.w	r3, [r0, #62]	; 0x3e
 8002072:	6403      	str	r3, [r0, #64]	; 0x40
 8002074:	f7ff ffc4 	bl	8002000 <HAL_I2C_AbortCpltCallback>
 8002078:	b003      	add	sp, #12
 800207a:	bd30      	pop	{r4, r5, pc}
 800207c:	9a01      	ldr	r2, [sp, #4]
 800207e:	3a01      	subs	r2, #1
 8002080:	9201      	str	r2, [sp, #4]
 8002082:	681a      	ldr	r2, [r3, #0]
 8002084:	0592      	lsls	r2, r2, #22
 8002086:	d4ce      	bmi.n	8002026 <I2C_DMAAbort+0x22>
 8002088:	e7d3      	b.n	8002032 <I2C_DMAAbort+0x2e>
 800208a:	f001 0228 	and.w	r2, r1, #40	; 0x28
 800208e:	2a28      	cmp	r2, #40	; 0x28
 8002090:	d10e      	bne.n	80020b0 <I2C_DMAAbort+0xac>
 8002092:	6819      	ldr	r1, [r3, #0]
 8002094:	f041 0101 	orr.w	r1, r1, #1
 8002098:	6019      	str	r1, [r3, #0]
 800209a:	6819      	ldr	r1, [r3, #0]
 800209c:	f441 6180 	orr.w	r1, r1, #1024	; 0x400
 80020a0:	6019      	str	r1, [r3, #0]
 80020a2:	2300      	movs	r3, #0
 80020a4:	6303      	str	r3, [r0, #48]	; 0x30
 80020a6:	f880 203d 	strb.w	r2, [r0, #61]	; 0x3d
 80020aa:	f7ff ffa8 	bl	8001ffe <HAL_I2C_ErrorCallback>
 80020ae:	e7e3      	b.n	8002078 <I2C_DMAAbort+0x74>
 80020b0:	2320      	movs	r3, #32
 80020b2:	f880 303d 	strb.w	r3, [r0, #61]	; 0x3d
 80020b6:	2300      	movs	r3, #0
 80020b8:	f880 303e 	strb.w	r3, [r0, #62]	; 0x3e
 80020bc:	e7f5      	b.n	80020aa <I2C_DMAAbort+0xa6>
 80020be:	bf00      	nop
 80020c0:	2000004c 	.word	0x2000004c

080020c4 <I2C_ITError>:
 80020c4:	b510      	push	{r4, lr}
 80020c6:	f890 203d 	ldrb.w	r2, [r0, #61]	; 0x3d
 80020ca:	f890 303e 	ldrb.w	r3, [r0, #62]	; 0x3e
 80020ce:	4604      	mov	r4, r0
 80020d0:	2b10      	cmp	r3, #16
 80020d2:	b2d9      	uxtb	r1, r3
 80020d4:	b2d2      	uxtb	r2, r2
 80020d6:	6803      	ldr	r3, [r0, #0]
 80020d8:	d001      	beq.n	80020de <I2C_ITError+0x1a>
 80020da:	2940      	cmp	r1, #64	; 0x40
 80020dc:	d113      	bne.n	8002106 <I2C_ITError+0x42>
 80020de:	2a22      	cmp	r2, #34	; 0x22
 80020e0:	d111      	bne.n	8002106 <I2C_ITError+0x42>
 80020e2:	6819      	ldr	r1, [r3, #0]
 80020e4:	f421 6100 	bic.w	r1, r1, #2048	; 0x800
 80020e8:	6019      	str	r1, [r3, #0]
 80020ea:	6859      	ldr	r1, [r3, #4]
 80020ec:	f411 6100 	ands.w	r1, r1, #2048	; 0x800
 80020f0:	d106      	bne.n	8002100 <I2C_ITError+0x3c>
 80020f2:	2a60      	cmp	r2, #96	; 0x60
 80020f4:	bf1e      	ittt	ne
 80020f6:	2220      	movne	r2, #32
 80020f8:	f884 203d 	strbne.w	r2, [r4, #61]	; 0x3d
 80020fc:	f884 103e 	strbne.w	r1, [r4, #62]	; 0x3e
 8002100:	2200      	movs	r2, #0
 8002102:	6322      	str	r2, [r4, #48]	; 0x30
 8002104:	e007      	b.n	8002116 <I2C_ITError+0x52>
 8002106:	f002 0128 	and.w	r1, r2, #40	; 0x28
 800210a:	2928      	cmp	r1, #40	; 0x28
 800210c:	d1ed      	bne.n	80020ea <I2C_ITError+0x26>
 800210e:	2200      	movs	r2, #0
 8002110:	6322      	str	r2, [r4, #48]	; 0x30
 8002112:	f884 103d 	strb.w	r1, [r4, #61]	; 0x3d
 8002116:	685a      	ldr	r2, [r3, #4]
 8002118:	f412 6200 	ands.w	r2, r2, #2048	; 0x800
 800211c:	d04f      	beq.n	80021be <I2C_ITError+0xfa>
 800211e:	685a      	ldr	r2, [r3, #4]
 8002120:	6b60      	ldr	r0, [r4, #52]	; 0x34
 8002122:	f422 6200 	bic.w	r2, r2, #2048	; 0x800
 8002126:	605a      	str	r2, [r3, #4]
 8002128:	f890 3021 	ldrb.w	r3, [r0, #33]	; 0x21
 800212c:	2b01      	cmp	r3, #1
 800212e:	4b37      	ldr	r3, [pc, #220]	; (800220c <I2C_ITError+0x148>)
 8002130:	d02b      	beq.n	800218a <I2C_ITError+0xc6>
 8002132:	6343      	str	r3, [r0, #52]	; 0x34
 8002134:	f7ff fd6a 	bl	8001c0c <HAL_DMA_Abort_IT>
 8002138:	b150      	cbz	r0, 8002150 <I2C_ITError+0x8c>
 800213a:	6822      	ldr	r2, [r4, #0]
 800213c:	6b60      	ldr	r0, [r4, #52]	; 0x34
 800213e:	6813      	ldr	r3, [r2, #0]
 8002140:	f023 0301 	bic.w	r3, r3, #1
 8002144:	6013      	str	r3, [r2, #0]
 8002146:	2320      	movs	r3, #32
 8002148:	f884 303d 	strb.w	r3, [r4, #61]	; 0x3d
 800214c:	6b43      	ldr	r3, [r0, #52]	; 0x34
 800214e:	4798      	blx	r3
 8002150:	6c23      	ldr	r3, [r4, #64]	; 0x40
 8002152:	0719      	lsls	r1, r3, #28
 8002154:	bf1f      	itttt	ne
 8002156:	6822      	ldrne	r2, [r4, #0]
 8002158:	6853      	ldrne	r3, [r2, #4]
 800215a:	f423 63e0 	bicne.w	r3, r3, #1792	; 0x700
 800215e:	6053      	strne	r3, [r2, #4]
 8002160:	f894 303d 	ldrb.w	r3, [r4, #61]	; 0x3d
 8002164:	6c22      	ldr	r2, [r4, #64]	; 0x40
 8002166:	b2db      	uxtb	r3, r3
 8002168:	0752      	lsls	r2, r2, #29
 800216a:	d50d      	bpl.n	8002188 <I2C_ITError+0xc4>
 800216c:	2b28      	cmp	r3, #40	; 0x28
 800216e:	d10b      	bne.n	8002188 <I2C_ITError+0xc4>
 8002170:	4b27      	ldr	r3, [pc, #156]	; (8002210 <I2C_ITError+0x14c>)
 8002172:	2220      	movs	r2, #32
 8002174:	62e3      	str	r3, [r4, #44]	; 0x2c
 8002176:	2300      	movs	r3, #0
 8002178:	4620      	mov	r0, r4
 800217a:	6323      	str	r3, [r4, #48]	; 0x30
 800217c:	f884 203d 	strb.w	r2, [r4, #61]	; 0x3d
 8002180:	f884 303e 	strb.w	r3, [r4, #62]	; 0x3e
 8002184:	f7ff fee7 	bl	8001f56 <HAL_I2C_ListenCpltCallback>
 8002188:	bd10      	pop	{r4, pc}
 800218a:	6ba0      	ldr	r0, [r4, #56]	; 0x38
 800218c:	6343      	str	r3, [r0, #52]	; 0x34
 800218e:	f7ff fd3d 	bl	8001c0c <HAL_DMA_Abort_IT>
 8002192:	2800      	cmp	r0, #0
 8002194:	d0dc      	beq.n	8002150 <I2C_ITError+0x8c>
 8002196:	6823      	ldr	r3, [r4, #0]
 8002198:	695a      	ldr	r2, [r3, #20]
 800219a:	0651      	lsls	r1, r2, #25
 800219c:	d505      	bpl.n	80021aa <I2C_ITError+0xe6>
 800219e:	691a      	ldr	r2, [r3, #16]
 80021a0:	6a63      	ldr	r3, [r4, #36]	; 0x24
 80021a2:	701a      	strb	r2, [r3, #0]
 80021a4:	6a63      	ldr	r3, [r4, #36]	; 0x24
 80021a6:	3301      	adds	r3, #1
 80021a8:	6263      	str	r3, [r4, #36]	; 0x24
 80021aa:	6822      	ldr	r2, [r4, #0]
 80021ac:	6ba0      	ldr	r0, [r4, #56]	; 0x38
 80021ae:	6813      	ldr	r3, [r2, #0]
 80021b0:	f023 0301 	bic.w	r3, r3, #1
 80021b4:	6013      	str	r3, [r2, #0]
 80021b6:	2320      	movs	r3, #32
 80021b8:	f884 303d 	strb.w	r3, [r4, #61]	; 0x3d
 80021bc:	e7c6      	b.n	800214c <I2C_ITError+0x88>
 80021be:	f894 103d 	ldrb.w	r1, [r4, #61]	; 0x3d
 80021c2:	2960      	cmp	r1, #96	; 0x60
 80021c4:	d115      	bne.n	80021f2 <I2C_ITError+0x12e>
 80021c6:	2120      	movs	r1, #32
 80021c8:	f884 103d 	strb.w	r1, [r4, #61]	; 0x3d
 80021cc:	6422      	str	r2, [r4, #64]	; 0x40
 80021ce:	695a      	ldr	r2, [r3, #20]
 80021d0:	0652      	lsls	r2, r2, #25
 80021d2:	d505      	bpl.n	80021e0 <I2C_ITError+0x11c>
 80021d4:	691a      	ldr	r2, [r3, #16]
 80021d6:	6a63      	ldr	r3, [r4, #36]	; 0x24
 80021d8:	701a      	strb	r2, [r3, #0]
 80021da:	6a63      	ldr	r3, [r4, #36]	; 0x24
 80021dc:	3301      	adds	r3, #1
 80021de:	6263      	str	r3, [r4, #36]	; 0x24
 80021e0:	6822      	ldr	r2, [r4, #0]
 80021e2:	4620      	mov	r0, r4
 80021e4:	6813      	ldr	r3, [r2, #0]
 80021e6:	f023 0301 	bic.w	r3, r3, #1
 80021ea:	6013      	str	r3, [r2, #0]
 80021ec:	f7ff ff08 	bl	8002000 <HAL_I2C_AbortCpltCallback>
 80021f0:	e7ae      	b.n	8002150 <I2C_ITError+0x8c>
 80021f2:	695a      	ldr	r2, [r3, #20]
 80021f4:	0650      	lsls	r0, r2, #25
 80021f6:	d505      	bpl.n	8002204 <I2C_ITError+0x140>
 80021f8:	691a      	ldr	r2, [r3, #16]
 80021fa:	6a63      	ldr	r3, [r4, #36]	; 0x24
 80021fc:	701a      	strb	r2, [r3, #0]
 80021fe:	6a63      	ldr	r3, [r4, #36]	; 0x24
 8002200:	3301      	adds	r3, #1
 8002202:	6263      	str	r3, [r4, #36]	; 0x24
 8002204:	4620      	mov	r0, r4
 8002206:	f7ff fefa 	bl	8001ffe <HAL_I2C_ErrorCallback>
 800220a:	e7a1      	b.n	8002150 <I2C_ITError+0x8c>
 800220c:	08002005 	.word	0x08002005
 8002210:	ffff0000 	.word	0xffff0000

08002214 <HAL_I2C_EV_IRQHandler>:
 8002214:	b5f0      	push	{r4, r5, r6, r7, lr}
 8002216:	4604      	mov	r4, r0
 8002218:	6803      	ldr	r3, [r0, #0]
 800221a:	b08f      	sub	sp, #60	; 0x3c
 800221c:	685a      	ldr	r2, [r3, #4]
 800221e:	6ac6      	ldr	r6, [r0, #44]	; 0x2c
 8002220:	f890 003e 	ldrb.w	r0, [r0, #62]	; 0x3e
 8002224:	f894 103d 	ldrb.w	r1, [r4, #61]	; 0x3d
 8002228:	2810      	cmp	r0, #16
 800222a:	b2c5      	uxtb	r5, r0
 800222c:	b2c9      	uxtb	r1, r1
 800222e:	d002      	beq.n	8002236 <HAL_I2C_EV_IRQHandler+0x22>
 8002230:	2d40      	cmp	r5, #64	; 0x40
 8002232:	f040 82c0 	bne.w	80027b6 <HAL_I2C_EV_IRQHandler+0x5a2>
 8002236:	699f      	ldr	r7, [r3, #24]
 8002238:	6958      	ldr	r0, [r3, #20]
 800223a:	f010 0f01 	tst.w	r0, #1
 800223e:	d107      	bne.n	8002250 <HAL_I2C_EV_IRQHandler+0x3c>
 8002240:	f5b6 0f2a 	cmp.w	r6, #11141120	; 0xaa0000
 8002244:	d002      	beq.n	800224c <HAL_I2C_EV_IRQHandler+0x38>
 8002246:	f1b6 4f2a 	cmp.w	r6, #2852126720	; 0xaa000000
 800224a:	d151      	bne.n	80022f0 <HAL_I2C_EV_IRQHandler+0xdc>
 800224c:	b00f      	add	sp, #60	; 0x3c
 800224e:	bdf0      	pop	{r4, r5, r6, r7, pc}
 8002250:	0596      	lsls	r6, r2, #22
 8002252:	d54d      	bpl.n	80022f0 <HAL_I2C_EV_IRQHandler+0xdc>
 8002254:	6ae2      	ldr	r2, [r4, #44]	; 0x2c
 8002256:	f5b2 0f2a 	cmp.w	r2, #11141120	; 0xaa0000
 800225a:	d10c      	bne.n	8002276 <HAL_I2C_EV_IRQHandler+0x62>
 800225c:	2201      	movs	r2, #1
 800225e:	62e2      	str	r2, [r4, #44]	; 0x2c
 8002260:	f894 203e 	ldrb.w	r2, [r4, #62]	; 0x3e
 8002264:	2a40      	cmp	r2, #64	; 0x40
 8002266:	d111      	bne.n	800228c <HAL_I2C_EV_IRQHandler+0x78>
 8002268:	6d22      	ldr	r2, [r4, #80]	; 0x50
 800226a:	b952      	cbnz	r2, 8002282 <HAL_I2C_EV_IRQHandler+0x6e>
 800226c:	6c62      	ldr	r2, [r4, #68]	; 0x44
 800226e:	f002 02fe 	and.w	r2, r2, #254	; 0xfe
 8002272:	611a      	str	r2, [r3, #16]
 8002274:	e7ea      	b.n	800224c <HAL_I2C_EV_IRQHandler+0x38>
 8002276:	6ae2      	ldr	r2, [r4, #44]	; 0x2c
 8002278:	f1b2 4f2a 	cmp.w	r2, #2852126720	; 0xaa000000
 800227c:	d1f0      	bne.n	8002260 <HAL_I2C_EV_IRQHandler+0x4c>
 800227e:	2208      	movs	r2, #8
 8002280:	e7ed      	b.n	800225e <HAL_I2C_EV_IRQHandler+0x4a>
 8002282:	6c62      	ldr	r2, [r4, #68]	; 0x44
 8002284:	f042 0201 	orr.w	r2, r2, #1
 8002288:	b2d2      	uxtb	r2, r2
 800228a:	e7f2      	b.n	8002272 <HAL_I2C_EV_IRQHandler+0x5e>
 800228c:	6922      	ldr	r2, [r4, #16]
 800228e:	f5b2 4f80 	cmp.w	r2, #16384	; 0x4000
 8002292:	d11a      	bne.n	80022ca <HAL_I2C_EV_IRQHandler+0xb6>
 8002294:	f894 203d 	ldrb.w	r2, [r4, #61]	; 0x3d
 8002298:	2a21      	cmp	r2, #33	; 0x21
 800229a:	6c62      	ldr	r2, [r4, #68]	; 0x44
 800229c:	d111      	bne.n	80022c2 <HAL_I2C_EV_IRQHandler+0xae>
 800229e:	f002 02fe 	and.w	r2, r2, #254	; 0xfe
 80022a2:	611a      	str	r2, [r3, #16]
 80022a4:	6b62      	ldr	r2, [r4, #52]	; 0x34
 80022a6:	b10a      	cbz	r2, 80022ac <HAL_I2C_EV_IRQHandler+0x98>
 80022a8:	6a92      	ldr	r2, [r2, #40]	; 0x28
 80022aa:	b92a      	cbnz	r2, 80022b8 <HAL_I2C_EV_IRQHandler+0xa4>
 80022ac:	6ba2      	ldr	r2, [r4, #56]	; 0x38
 80022ae:	2a00      	cmp	r2, #0
 80022b0:	d0cc      	beq.n	800224c <HAL_I2C_EV_IRQHandler+0x38>
 80022b2:	6a92      	ldr	r2, [r2, #40]	; 0x28
 80022b4:	2a00      	cmp	r2, #0
 80022b6:	d0c9      	beq.n	800224c <HAL_I2C_EV_IRQHandler+0x38>
 80022b8:	685a      	ldr	r2, [r3, #4]
 80022ba:	f442 6200 	orr.w	r2, r2, #2048	; 0x800
 80022be:	605a      	str	r2, [r3, #4]
 80022c0:	e7c4      	b.n	800224c <HAL_I2C_EV_IRQHandler+0x38>
 80022c2:	f042 0201 	orr.w	r2, r2, #1
 80022c6:	b2d2      	uxtb	r2, r2
 80022c8:	e7eb      	b.n	80022a2 <HAL_I2C_EV_IRQHandler+0x8e>
 80022ca:	6d22      	ldr	r2, [r4, #80]	; 0x50
 80022cc:	b932      	cbnz	r2, 80022dc <HAL_I2C_EV_IRQHandler+0xc8>
 80022ce:	6c62      	ldr	r2, [r4, #68]	; 0x44
 80022d0:	11d2      	asrs	r2, r2, #7
 80022d2:	f002 0206 	and.w	r2, r2, #6
 80022d6:	f042 02f0 	orr.w	r2, r2, #240	; 0xf0
 80022da:	e7ca      	b.n	8002272 <HAL_I2C_EV_IRQHandler+0x5e>
 80022dc:	6d22      	ldr	r2, [r4, #80]	; 0x50
 80022de:	2a01      	cmp	r2, #1
 80022e0:	d1b4      	bne.n	800224c <HAL_I2C_EV_IRQHandler+0x38>
 80022e2:	6c62      	ldr	r2, [r4, #68]	; 0x44
 80022e4:	11d2      	asrs	r2, r2, #7
 80022e6:	f002 0206 	and.w	r2, r2, #6
 80022ea:	f042 02f1 	orr.w	r2, r2, #241	; 0xf1
 80022ee:	e7c0      	b.n	8002272 <HAL_I2C_EV_IRQHandler+0x5e>
 80022f0:	0706      	lsls	r6, r0, #28
 80022f2:	d503      	bpl.n	80022fc <HAL_I2C_EV_IRQHandler+0xe8>
 80022f4:	0596      	lsls	r6, r2, #22
 80022f6:	d501      	bpl.n	80022fc <HAL_I2C_EV_IRQHandler+0xe8>
 80022f8:	6c62      	ldr	r2, [r4, #68]	; 0x44
 80022fa:	e7e4      	b.n	80022c6 <HAL_I2C_EV_IRQHandler+0xb2>
 80022fc:	0786      	lsls	r6, r0, #30
 80022fe:	f140 80dd 	bpl.w	80024bc <HAL_I2C_EV_IRQHandler+0x2a8>
 8002302:	0596      	lsls	r6, r2, #22
 8002304:	f140 80da 	bpl.w	80024bc <HAL_I2C_EV_IRQHandler+0x2a8>
 8002308:	f894 103e 	ldrb.w	r1, [r4, #62]	; 0x3e
 800230c:	6ae2      	ldr	r2, [r4, #44]	; 0x2c
 800230e:	6b25      	ldr	r5, [r4, #48]	; 0x30
 8002310:	f894 003d 	ldrb.w	r0, [r4, #61]	; 0x3d
 8002314:	b2c9      	uxtb	r1, r1
 8002316:	2822      	cmp	r0, #34	; 0x22
 8002318:	f040 80c8 	bne.w	80024ac <HAL_I2C_EV_IRQHandler+0x298>
 800231c:	6d20      	ldr	r0, [r4, #80]	; 0x50
 800231e:	b940      	cbnz	r0, 8002332 <HAL_I2C_EV_IRQHandler+0x11e>
 8002320:	2940      	cmp	r1, #64	; 0x40
 8002322:	d106      	bne.n	8002332 <HAL_I2C_EV_IRQHandler+0x11e>
 8002324:	9001      	str	r0, [sp, #4]
 8002326:	695a      	ldr	r2, [r3, #20]
 8002328:	9201      	str	r2, [sp, #4]
 800232a:	699b      	ldr	r3, [r3, #24]
 800232c:	9301      	str	r3, [sp, #4]
 800232e:	9b01      	ldr	r3, [sp, #4]
 8002330:	e78c      	b.n	800224c <HAL_I2C_EV_IRQHandler+0x38>
 8002332:	6d21      	ldr	r1, [r4, #80]	; 0x50
 8002334:	b989      	cbnz	r1, 800235a <HAL_I2C_EV_IRQHandler+0x146>
 8002336:	6920      	ldr	r0, [r4, #16]
 8002338:	f5b0 4f40 	cmp.w	r0, #49152	; 0xc000
 800233c:	d10d      	bne.n	800235a <HAL_I2C_EV_IRQHandler+0x146>
 800233e:	9102      	str	r1, [sp, #8]
 8002340:	695a      	ldr	r2, [r3, #20]
 8002342:	9202      	str	r2, [sp, #8]
 8002344:	699a      	ldr	r2, [r3, #24]
 8002346:	9202      	str	r2, [sp, #8]
 8002348:	9a02      	ldr	r2, [sp, #8]
 800234a:	681a      	ldr	r2, [r3, #0]
 800234c:	f442 7280 	orr.w	r2, r2, #256	; 0x100
 8002350:	601a      	str	r2, [r3, #0]
 8002352:	6d23      	ldr	r3, [r4, #80]	; 0x50
 8002354:	3301      	adds	r3, #1
 8002356:	6523      	str	r3, [r4, #80]	; 0x50
 8002358:	e778      	b.n	800224c <HAL_I2C_EV_IRQHandler+0x38>
 800235a:	8d61      	ldrh	r1, [r4, #42]	; 0x2a
 800235c:	b289      	uxth	r1, r1
 800235e:	b951      	cbnz	r1, 8002376 <HAL_I2C_EV_IRQHandler+0x162>
 8002360:	9103      	str	r1, [sp, #12]
 8002362:	695a      	ldr	r2, [r3, #20]
 8002364:	9203      	str	r2, [sp, #12]
 8002366:	699a      	ldr	r2, [r3, #24]
 8002368:	9203      	str	r2, [sp, #12]
 800236a:	9a03      	ldr	r2, [sp, #12]
 800236c:	681a      	ldr	r2, [r3, #0]
 800236e:	f442 7200 	orr.w	r2, r2, #512	; 0x200
 8002372:	601a      	str	r2, [r3, #0]
 8002374:	e019      	b.n	80023aa <HAL_I2C_EV_IRQHandler+0x196>
 8002376:	8d61      	ldrh	r1, [r4, #42]	; 0x2a
 8002378:	b289      	uxth	r1, r1
 800237a:	2901      	cmp	r1, #1
 800237c:	d149      	bne.n	8002412 <HAL_I2C_EV_IRQHandler+0x1fe>
 800237e:	f512 3f80 	cmn.w	r2, #65536	; 0x10000
 8002382:	d11b      	bne.n	80023bc <HAL_I2C_EV_IRQHandler+0x1a8>
 8002384:	681a      	ldr	r2, [r3, #0]
 8002386:	f422 6280 	bic.w	r2, r2, #1024	; 0x400
 800238a:	601a      	str	r2, [r3, #0]
 800238c:	685a      	ldr	r2, [r3, #4]
 800238e:	f412 6200 	ands.w	r2, r2, #2048	; 0x800
 8002392:	d00c      	beq.n	80023ae <HAL_I2C_EV_IRQHandler+0x19a>
 8002394:	681a      	ldr	r2, [r3, #0]
 8002396:	f422 6280 	bic.w	r2, r2, #1024	; 0x400
 800239a:	601a      	str	r2, [r3, #0]
 800239c:	2200      	movs	r2, #0
 800239e:	9204      	str	r2, [sp, #16]
 80023a0:	695a      	ldr	r2, [r3, #20]
 80023a2:	9204      	str	r2, [sp, #16]
 80023a4:	699b      	ldr	r3, [r3, #24]
 80023a6:	9304      	str	r3, [sp, #16]
 80023a8:	9b04      	ldr	r3, [sp, #16]
 80023aa:	2300      	movs	r3, #0
 80023ac:	e7d3      	b.n	8002356 <HAL_I2C_EV_IRQHandler+0x142>
 80023ae:	9205      	str	r2, [sp, #20]
 80023b0:	695a      	ldr	r2, [r3, #20]
 80023b2:	9205      	str	r2, [sp, #20]
 80023b4:	699a      	ldr	r2, [r3, #24]
 80023b6:	9205      	str	r2, [sp, #20]
 80023b8:	9a05      	ldr	r2, [sp, #20]
 80023ba:	e7d7      	b.n	800236c <HAL_I2C_EV_IRQHandler+0x158>
 80023bc:	2a08      	cmp	r2, #8
 80023be:	d01c      	beq.n	80023fa <HAL_I2C_EV_IRQHandler+0x1e6>
 80023c0:	2a20      	cmp	r2, #32
 80023c2:	d01a      	beq.n	80023fa <HAL_I2C_EV_IRQHandler+0x1e6>
 80023c4:	2d12      	cmp	r5, #18
 80023c6:	d10d      	bne.n	80023e4 <HAL_I2C_EV_IRQHandler+0x1d0>
 80023c8:	2a01      	cmp	r2, #1
 80023ca:	d116      	bne.n	80023fa <HAL_I2C_EV_IRQHandler+0x1e6>
 80023cc:	681a      	ldr	r2, [r3, #0]
 80023ce:	f422 6280 	bic.w	r2, r2, #1024	; 0x400
 80023d2:	601a      	str	r2, [r3, #0]
 80023d4:	2200      	movs	r2, #0
 80023d6:	9206      	str	r2, [sp, #24]
 80023d8:	695a      	ldr	r2, [r3, #20]
 80023da:	9206      	str	r2, [sp, #24]
 80023dc:	699b      	ldr	r3, [r3, #24]
 80023de:	9306      	str	r3, [sp, #24]
 80023e0:	9b06      	ldr	r3, [sp, #24]
 80023e2:	e7e2      	b.n	80023aa <HAL_I2C_EV_IRQHandler+0x196>
 80023e4:	2a10      	cmp	r2, #16
 80023e6:	d8f1      	bhi.n	80023cc <HAL_I2C_EV_IRQHandler+0x1b8>
 80023e8:	4991      	ldr	r1, [pc, #580]	; (8002630 <HAL_I2C_EV_IRQHandler+0x41c>)
 80023ea:	fa21 f202 	lsr.w	r2, r1, r2
 80023ee:	07d7      	lsls	r7, r2, #31
 80023f0:	d5ec      	bpl.n	80023cc <HAL_I2C_EV_IRQHandler+0x1b8>
 80023f2:	681a      	ldr	r2, [r3, #0]
 80023f4:	f442 6280 	orr.w	r2, r2, #1024	; 0x400
 80023f8:	e7eb      	b.n	80023d2 <HAL_I2C_EV_IRQHandler+0x1be>
 80023fa:	681a      	ldr	r2, [r3, #0]
 80023fc:	f422 6280 	bic.w	r2, r2, #1024	; 0x400
 8002400:	601a      	str	r2, [r3, #0]
 8002402:	2200      	movs	r2, #0
 8002404:	9207      	str	r2, [sp, #28]
 8002406:	695a      	ldr	r2, [r3, #20]
 8002408:	9207      	str	r2, [sp, #28]
 800240a:	699a      	ldr	r2, [r3, #24]
 800240c:	9207      	str	r2, [sp, #28]
 800240e:	9a07      	ldr	r2, [sp, #28]
 8002410:	e7ac      	b.n	800236c <HAL_I2C_EV_IRQHandler+0x158>
 8002412:	8d61      	ldrh	r1, [r4, #42]	; 0x2a
 8002414:	b289      	uxth	r1, r1
 8002416:	2902      	cmp	r1, #2
 8002418:	d12a      	bne.n	8002470 <HAL_I2C_EV_IRQHandler+0x25c>
 800241a:	2a10      	cmp	r2, #16
 800241c:	d803      	bhi.n	8002426 <HAL_I2C_EV_IRQHandler+0x212>
 800241e:	4984      	ldr	r1, [pc, #528]	; (8002630 <HAL_I2C_EV_IRQHandler+0x41c>)
 8002420:	40d1      	lsrs	r1, r2
 8002422:	07ce      	lsls	r6, r1, #31
 8002424:	d420      	bmi.n	8002468 <HAL_I2C_EV_IRQHandler+0x254>
 8002426:	6819      	ldr	r1, [r3, #0]
 8002428:	f421 6180 	bic.w	r1, r1, #1024	; 0x400
 800242c:	6019      	str	r1, [r3, #0]
 800242e:	6819      	ldr	r1, [r3, #0]
 8002430:	f441 6100 	orr.w	r1, r1, #2048	; 0x800
 8002434:	6019      	str	r1, [r3, #0]
 8002436:	6859      	ldr	r1, [r3, #4]
 8002438:	050d      	lsls	r5, r1, #20
 800243a:	d50d      	bpl.n	8002458 <HAL_I2C_EV_IRQHandler+0x244>
 800243c:	f512 3f80 	cmn.w	r2, #65536	; 0x10000
 8002440:	d006      	beq.n	8002450 <HAL_I2C_EV_IRQHandler+0x23c>
 8002442:	1e51      	subs	r1, r2, #1
 8002444:	291f      	cmp	r1, #31
 8002446:	d807      	bhi.n	8002458 <HAL_I2C_EV_IRQHandler+0x244>
 8002448:	4a7a      	ldr	r2, [pc, #488]	; (8002634 <HAL_I2C_EV_IRQHandler+0x420>)
 800244a:	40ca      	lsrs	r2, r1
 800244c:	07d0      	lsls	r0, r2, #31
 800244e:	d503      	bpl.n	8002458 <HAL_I2C_EV_IRQHandler+0x244>
 8002450:	685a      	ldr	r2, [r3, #4]
 8002452:	f442 5280 	orr.w	r2, r2, #4096	; 0x1000
 8002456:	605a      	str	r2, [r3, #4]
 8002458:	2200      	movs	r2, #0
 800245a:	9208      	str	r2, [sp, #32]
 800245c:	695a      	ldr	r2, [r3, #20]
 800245e:	9208      	str	r2, [sp, #32]
 8002460:	699b      	ldr	r3, [r3, #24]
 8002462:	9308      	str	r3, [sp, #32]
 8002464:	9b08      	ldr	r3, [sp, #32]
 8002466:	e7a0      	b.n	80023aa <HAL_I2C_EV_IRQHandler+0x196>
 8002468:	6819      	ldr	r1, [r3, #0]
 800246a:	f441 6180 	orr.w	r1, r1, #1024	; 0x400
 800246e:	e7e1      	b.n	8002434 <HAL_I2C_EV_IRQHandler+0x220>
 8002470:	6819      	ldr	r1, [r3, #0]
 8002472:	f441 6180 	orr.w	r1, r1, #1024	; 0x400
 8002476:	6019      	str	r1, [r3, #0]
 8002478:	6859      	ldr	r1, [r3, #4]
 800247a:	0509      	lsls	r1, r1, #20
 800247c:	d50e      	bpl.n	800249c <HAL_I2C_EV_IRQHandler+0x288>
 800247e:	f512 3f80 	cmn.w	r2, #65536	; 0x10000
 8002482:	d007      	beq.n	8002494 <HAL_I2C_EV_IRQHandler+0x280>
 8002484:	3a01      	subs	r2, #1
 8002486:	2a1f      	cmp	r2, #31
 8002488:	d808      	bhi.n	800249c <HAL_I2C_EV_IRQHandler+0x288>
 800248a:	496a      	ldr	r1, [pc, #424]	; (8002634 <HAL_I2C_EV_IRQHandler+0x420>)
 800248c:	fa21 f202 	lsr.w	r2, r1, r2
 8002490:	07d2      	lsls	r2, r2, #31
 8002492:	d503      	bpl.n	800249c <HAL_I2C_EV_IRQHandler+0x288>
 8002494:	685a      	ldr	r2, [r3, #4]
 8002496:	f442 5280 	orr.w	r2, r2, #4096	; 0x1000
 800249a:	605a      	str	r2, [r3, #4]
 800249c:	2200      	movs	r2, #0
 800249e:	9209      	str	r2, [sp, #36]	; 0x24
 80024a0:	695a      	ldr	r2, [r3, #20]
 80024a2:	9209      	str	r2, [sp, #36]	; 0x24
 80024a4:	699b      	ldr	r3, [r3, #24]
 80024a6:	9309      	str	r3, [sp, #36]	; 0x24
 80024a8:	9b09      	ldr	r3, [sp, #36]	; 0x24
 80024aa:	e77e      	b.n	80023aa <HAL_I2C_EV_IRQHandler+0x196>
 80024ac:	2200      	movs	r2, #0
 80024ae:	920a      	str	r2, [sp, #40]	; 0x28
 80024b0:	695a      	ldr	r2, [r3, #20]
 80024b2:	920a      	str	r2, [sp, #40]	; 0x28
 80024b4:	699b      	ldr	r3, [r3, #24]
 80024b6:	930a      	str	r3, [sp, #40]	; 0x28
 80024b8:	9b0a      	ldr	r3, [sp, #40]	; 0x28
 80024ba:	e6c7      	b.n	800224c <HAL_I2C_EV_IRQHandler+0x38>
 80024bc:	077f      	lsls	r7, r7, #29
 80024be:	f140 808d 	bpl.w	80025dc <HAL_I2C_EV_IRQHandler+0x3c8>
 80024c2:	685e      	ldr	r6, [r3, #4]
 80024c4:	0536      	lsls	r6, r6, #20
 80024c6:	f53f aec1 	bmi.w	800224c <HAL_I2C_EV_IRQHandler+0x38>
 80024ca:	0607      	lsls	r7, r0, #24
 80024cc:	f3c0 0680 	ubfx	r6, r0, #2, #1
 80024d0:	d53e      	bpl.n	8002550 <HAL_I2C_EV_IRQHandler+0x33c>
 80024d2:	0550      	lsls	r0, r2, #21
 80024d4:	d53c      	bpl.n	8002550 <HAL_I2C_EV_IRQHandler+0x33c>
 80024d6:	2e00      	cmp	r6, #0
 80024d8:	d13d      	bne.n	8002556 <HAL_I2C_EV_IRQHandler+0x342>
 80024da:	f894 203d 	ldrb.w	r2, [r4, #61]	; 0x3d
 80024de:	8d25      	ldrh	r5, [r4, #40]	; 0x28
 80024e0:	f894 103e 	ldrb.w	r1, [r4, #62]	; 0x3e
 80024e4:	b2d2      	uxtb	r2, r2
 80024e6:	6ae0      	ldr	r0, [r4, #44]	; 0x2c
 80024e8:	b2c9      	uxtb	r1, r1
 80024ea:	b9c5      	cbnz	r5, 800251e <HAL_I2C_EV_IRQHandler+0x30a>
 80024ec:	2a21      	cmp	r2, #33	; 0x21
 80024ee:	d118      	bne.n	8002522 <HAL_I2C_EV_IRQHandler+0x30e>
 80024f0:	2808      	cmp	r0, #8
 80024f2:	d058      	beq.n	80025a6 <HAL_I2C_EV_IRQHandler+0x392>
 80024f4:	2820      	cmp	r0, #32
 80024f6:	d056      	beq.n	80025a6 <HAL_I2C_EV_IRQHandler+0x392>
 80024f8:	f510 3f80 	cmn.w	r0, #65536	; 0x10000
 80024fc:	d053      	beq.n	80025a6 <HAL_I2C_EV_IRQHandler+0x392>
 80024fe:	685a      	ldr	r2, [r3, #4]
 8002500:	f422 62e0 	bic.w	r2, r2, #1792	; 0x700
 8002504:	605a      	str	r2, [r3, #4]
 8002506:	2311      	movs	r3, #17
 8002508:	6323      	str	r3, [r4, #48]	; 0x30
 800250a:	2300      	movs	r3, #0
 800250c:	f884 303e 	strb.w	r3, [r4, #62]	; 0x3e
 8002510:	2320      	movs	r3, #32
 8002512:	4620      	mov	r0, r4
 8002514:	f884 303d 	strb.w	r3, [r4, #61]	; 0x3d
 8002518:	f7ff fd18 	bl	8001f4c <HAL_I2C_MasterTxCpltCallback>
 800251c:	e696      	b.n	800224c <HAL_I2C_EV_IRQHandler+0x38>
 800251e:	2a21      	cmp	r2, #33	; 0x21
 8002520:	d005      	beq.n	800252e <HAL_I2C_EV_IRQHandler+0x31a>
 8002522:	2940      	cmp	r1, #64	; 0x40
 8002524:	f47f ae92 	bne.w	800224c <HAL_I2C_EV_IRQHandler+0x38>
 8002528:	2a22      	cmp	r2, #34	; 0x22
 800252a:	f47f ae8f 	bne.w	800224c <HAL_I2C_EV_IRQHandler+0x38>
 800252e:	8d62      	ldrh	r2, [r4, #42]	; 0x2a
 8002530:	b292      	uxth	r2, r2
 8002532:	b91a      	cbnz	r2, 800253c <HAL_I2C_EV_IRQHandler+0x328>
 8002534:	685a      	ldr	r2, [r3, #4]
 8002536:	f422 6280 	bic.w	r2, r2, #1024	; 0x400
 800253a:	e6c0      	b.n	80022be <HAL_I2C_EV_IRQHandler+0xaa>
 800253c:	f894 203e 	ldrb.w	r2, [r4, #62]	; 0x3e
 8002540:	2a40      	cmp	r2, #64	; 0x40
 8002542:	d116      	bne.n	8002572 <HAL_I2C_EV_IRQHandler+0x35e>
 8002544:	4620      	mov	r0, r4
 8002546:	b00f      	add	sp, #60	; 0x3c
 8002548:	e8bd 40f0 	ldmia.w	sp!, {r4, r5, r6, r7, lr}
 800254c:	f7ff bd05 	b.w	8001f5a <I2C_MemoryTransmit_TXE_BTF>
 8002550:	2e00      	cmp	r6, #0
 8002552:	f43f ae7b 	beq.w	800224c <HAL_I2C_EV_IRQHandler+0x38>
 8002556:	0597      	lsls	r7, r2, #22
 8002558:	f57f ae78 	bpl.w	800224c <HAL_I2C_EV_IRQHandler+0x38>
 800255c:	2921      	cmp	r1, #33	; 0x21
 800255e:	d139      	bne.n	80025d4 <HAL_I2C_EV_IRQHandler+0x3c0>
 8002560:	6ae1      	ldr	r1, [r4, #44]	; 0x2c
 8002562:	f894 203d 	ldrb.w	r2, [r4, #61]	; 0x3d
 8002566:	2a21      	cmp	r2, #33	; 0x21
 8002568:	f47f ae70 	bne.w	800224c <HAL_I2C_EV_IRQHandler+0x38>
 800256c:	8d62      	ldrh	r2, [r4, #42]	; 0x2a
 800256e:	b292      	uxth	r2, r2
 8002570:	b14a      	cbz	r2, 8002586 <HAL_I2C_EV_IRQHandler+0x372>
 8002572:	6a62      	ldr	r2, [r4, #36]	; 0x24
 8002574:	f812 1b01 	ldrb.w	r1, [r2], #1
 8002578:	6119      	str	r1, [r3, #16]
 800257a:	6262      	str	r2, [r4, #36]	; 0x24
 800257c:	8d63      	ldrh	r3, [r4, #42]	; 0x2a
 800257e:	3b01      	subs	r3, #1
 8002580:	b29b      	uxth	r3, r3
 8002582:	8563      	strh	r3, [r4, #42]	; 0x2a
 8002584:	e662      	b.n	800224c <HAL_I2C_EV_IRQHandler+0x38>
 8002586:	2908      	cmp	r1, #8
 8002588:	d00d      	beq.n	80025a6 <HAL_I2C_EV_IRQHandler+0x392>
 800258a:	2920      	cmp	r1, #32
 800258c:	d00b      	beq.n	80025a6 <HAL_I2C_EV_IRQHandler+0x392>
 800258e:	f511 3f80 	cmn.w	r1, #65536	; 0x10000
 8002592:	d008      	beq.n	80025a6 <HAL_I2C_EV_IRQHandler+0x392>
 8002594:	6859      	ldr	r1, [r3, #4]
 8002596:	f421 61e0 	bic.w	r1, r1, #1792	; 0x700
 800259a:	6059      	str	r1, [r3, #4]
 800259c:	2311      	movs	r3, #17
 800259e:	6323      	str	r3, [r4, #48]	; 0x30
 80025a0:	f884 203e 	strb.w	r2, [r4, #62]	; 0x3e
 80025a4:	e7b4      	b.n	8002510 <HAL_I2C_EV_IRQHandler+0x2fc>
 80025a6:	685a      	ldr	r2, [r3, #4]
 80025a8:	4620      	mov	r0, r4
 80025aa:	f422 62e0 	bic.w	r2, r2, #1792	; 0x700
 80025ae:	605a      	str	r2, [r3, #4]
 80025b0:	681a      	ldr	r2, [r3, #0]
 80025b2:	f442 7200 	orr.w	r2, r2, #512	; 0x200
 80025b6:	601a      	str	r2, [r3, #0]
 80025b8:	2300      	movs	r3, #0
 80025ba:	2220      	movs	r2, #32
 80025bc:	6323      	str	r3, [r4, #48]	; 0x30
 80025be:	f884 203d 	strb.w	r2, [r4, #61]	; 0x3d
 80025c2:	f894 203e 	ldrb.w	r2, [r4, #62]	; 0x3e
 80025c6:	f884 303e 	strb.w	r3, [r4, #62]	; 0x3e
 80025ca:	2a40      	cmp	r2, #64	; 0x40
 80025cc:	d1a4      	bne.n	8002518 <HAL_I2C_EV_IRQHandler+0x304>
 80025ce:	f7ff fcc3 	bl	8001f58 <HAL_I2C_MemTxCpltCallback>
 80025d2:	e63b      	b.n	800224c <HAL_I2C_EV_IRQHandler+0x38>
 80025d4:	2d40      	cmp	r5, #64	; 0x40
 80025d6:	f47f ae39 	bne.w	800224c <HAL_I2C_EV_IRQHandler+0x38>
 80025da:	e7b3      	b.n	8002544 <HAL_I2C_EV_IRQHandler+0x330>
 80025dc:	6859      	ldr	r1, [r3, #4]
 80025de:	050e      	lsls	r6, r1, #20
 80025e0:	f53f ae34 	bmi.w	800224c <HAL_I2C_EV_IRQHandler+0x38>
 80025e4:	0645      	lsls	r5, r0, #25
 80025e6:	f3c0 0180 	ubfx	r1, r0, #2, #1
 80025ea:	d57a      	bpl.n	80026e2 <HAL_I2C_EV_IRQHandler+0x4ce>
 80025ec:	0550      	lsls	r0, r2, #21
 80025ee:	d578      	bpl.n	80026e2 <HAL_I2C_EV_IRQHandler+0x4ce>
 80025f0:	2900      	cmp	r1, #0
 80025f2:	d179      	bne.n	80026e8 <HAL_I2C_EV_IRQHandler+0x4d4>
 80025f4:	f894 203d 	ldrb.w	r2, [r4, #61]	; 0x3d
 80025f8:	2a22      	cmp	r2, #34	; 0x22
 80025fa:	f47f ae27 	bne.w	800224c <HAL_I2C_EV_IRQHandler+0x38>
 80025fe:	8d62      	ldrh	r2, [r4, #42]	; 0x2a
 8002600:	b292      	uxth	r2, r2
 8002602:	2a03      	cmp	r2, #3
 8002604:	d918      	bls.n	8002638 <HAL_I2C_EV_IRQHandler+0x424>
 8002606:	691a      	ldr	r2, [r3, #16]
 8002608:	6a63      	ldr	r3, [r4, #36]	; 0x24
 800260a:	701a      	strb	r2, [r3, #0]
 800260c:	6a63      	ldr	r3, [r4, #36]	; 0x24
 800260e:	3301      	adds	r3, #1
 8002610:	6263      	str	r3, [r4, #36]	; 0x24
 8002612:	8d63      	ldrh	r3, [r4, #42]	; 0x2a
 8002614:	3b01      	subs	r3, #1
 8002616:	b29b      	uxth	r3, r3
 8002618:	8563      	strh	r3, [r4, #42]	; 0x2a
 800261a:	8d63      	ldrh	r3, [r4, #42]	; 0x2a
 800261c:	b29b      	uxth	r3, r3
 800261e:	2b03      	cmp	r3, #3
 8002620:	f47f ae14 	bne.w	800224c <HAL_I2C_EV_IRQHandler+0x38>
 8002624:	6822      	ldr	r2, [r4, #0]
 8002626:	6853      	ldr	r3, [r2, #4]
 8002628:	f423 6380 	bic.w	r3, r3, #1024	; 0x400
 800262c:	6053      	str	r3, [r2, #4]
 800262e:	e60d      	b.n	800224c <HAL_I2C_EV_IRQHandler+0x38>
 8002630:	00010014 	.word	0x00010014
 8002634:	80008081 	.word	0x80008081
 8002638:	6ae0      	ldr	r0, [r4, #44]	; 0x2c
 800263a:	2802      	cmp	r0, #2
 800263c:	f43f ae06 	beq.w	800224c <HAL_I2C_EV_IRQHandler+0x38>
 8002640:	2a01      	cmp	r2, #1
 8002642:	f63f ae03 	bhi.w	800224c <HAL_I2C_EV_IRQHandler+0x38>
 8002646:	910b      	str	r1, [sp, #44]	; 0x2c
 8002648:	f246 11a8 	movw	r1, #25000	; 0x61a8
 800264c:	4a72      	ldr	r2, [pc, #456]	; (8002818 <HAL_I2C_EV_IRQHandler+0x604>)
 800264e:	6812      	ldr	r2, [r2, #0]
 8002650:	fbb2 f2f1 	udiv	r2, r2, r1
 8002654:	eb02 0282 	add.w	r2, r2, r2, lsl #2
 8002658:	920b      	str	r2, [sp, #44]	; 0x2c
 800265a:	9a0b      	ldr	r2, [sp, #44]	; 0x2c
 800265c:	3a01      	subs	r2, #1
 800265e:	920b      	str	r2, [sp, #44]	; 0x2c
 8002660:	990b      	ldr	r1, [sp, #44]	; 0x2c
 8002662:	b9d1      	cbnz	r1, 800269a <HAL_I2C_EV_IRQHandler+0x486>
 8002664:	6c22      	ldr	r2, [r4, #64]	; 0x40
 8002666:	4620      	mov	r0, r4
 8002668:	f042 0220 	orr.w	r2, r2, #32
 800266c:	6422      	str	r2, [r4, #64]	; 0x40
 800266e:	685a      	ldr	r2, [r3, #4]
 8002670:	f422 62e0 	bic.w	r2, r2, #1792	; 0x700
 8002674:	605a      	str	r2, [r3, #4]
 8002676:	691a      	ldr	r2, [r3, #16]
 8002678:	6a63      	ldr	r3, [r4, #36]	; 0x24
 800267a:	701a      	strb	r2, [r3, #0]
 800267c:	6a63      	ldr	r3, [r4, #36]	; 0x24
 800267e:	3301      	adds	r3, #1
 8002680:	6263      	str	r3, [r4, #36]	; 0x24
 8002682:	8d63      	ldrh	r3, [r4, #42]	; 0x2a
 8002684:	3b01      	subs	r3, #1
 8002686:	b29b      	uxth	r3, r3
 8002688:	8563      	strh	r3, [r4, #42]	; 0x2a
 800268a:	2320      	movs	r3, #32
 800268c:	f884 303d 	strb.w	r3, [r4, #61]	; 0x3d
 8002690:	f884 103e 	strb.w	r1, [r4, #62]	; 0x3e
 8002694:	f7ff fcb3 	bl	8001ffe <HAL_I2C_ErrorCallback>
 8002698:	e5d8      	b.n	800224c <HAL_I2C_EV_IRQHandler+0x38>
 800269a:	681a      	ldr	r2, [r3, #0]
 800269c:	f412 7200 	ands.w	r2, r2, #512	; 0x200
 80026a0:	d1db      	bne.n	800265a <HAL_I2C_EV_IRQHandler+0x446>
 80026a2:	6819      	ldr	r1, [r3, #0]
 80026a4:	f421 6180 	bic.w	r1, r1, #1024	; 0x400
 80026a8:	6019      	str	r1, [r3, #0]
 80026aa:	6859      	ldr	r1, [r3, #4]
 80026ac:	f421 61e0 	bic.w	r1, r1, #1792	; 0x700
 80026b0:	6059      	str	r1, [r3, #4]
 80026b2:	6919      	ldr	r1, [r3, #16]
 80026b4:	6a63      	ldr	r3, [r4, #36]	; 0x24
 80026b6:	7019      	strb	r1, [r3, #0]
 80026b8:	6a63      	ldr	r3, [r4, #36]	; 0x24
 80026ba:	3301      	adds	r3, #1
 80026bc:	6263      	str	r3, [r4, #36]	; 0x24
 80026be:	8d63      	ldrh	r3, [r4, #42]	; 0x2a
 80026c0:	3b01      	subs	r3, #1
 80026c2:	b29b      	uxth	r3, r3
 80026c4:	8563      	strh	r3, [r4, #42]	; 0x2a
 80026c6:	2320      	movs	r3, #32
 80026c8:	f884 303d 	strb.w	r3, [r4, #61]	; 0x3d
 80026cc:	f894 303e 	ldrb.w	r3, [r4, #62]	; 0x3e
 80026d0:	f884 203e 	strb.w	r2, [r4, #62]	; 0x3e
 80026d4:	2b40      	cmp	r3, #64	; 0x40
 80026d6:	d168      	bne.n	80027aa <HAL_I2C_EV_IRQHandler+0x596>
 80026d8:	6322      	str	r2, [r4, #48]	; 0x30
 80026da:	4620      	mov	r0, r4
 80026dc:	f7ff fc8e 	bl	8001ffc <HAL_I2C_MemRxCpltCallback>
 80026e0:	e5b4      	b.n	800224c <HAL_I2C_EV_IRQHandler+0x38>
 80026e2:	2900      	cmp	r1, #0
 80026e4:	f43f adb2 	beq.w	800224c <HAL_I2C_EV_IRQHandler+0x38>
 80026e8:	0592      	lsls	r2, r2, #22
 80026ea:	f57f adaf 	bpl.w	800224c <HAL_I2C_EV_IRQHandler+0x38>
 80026ee:	6ae2      	ldr	r2, [r4, #44]	; 0x2c
 80026f0:	8d60      	ldrh	r0, [r4, #42]	; 0x2a
 80026f2:	6a61      	ldr	r1, [r4, #36]	; 0x24
 80026f4:	b280      	uxth	r0, r0
 80026f6:	2804      	cmp	r0, #4
 80026f8:	d109      	bne.n	800270e <HAL_I2C_EV_IRQHandler+0x4fa>
 80026fa:	685a      	ldr	r2, [r3, #4]
 80026fc:	f422 6280 	bic.w	r2, r2, #1024	; 0x400
 8002700:	605a      	str	r2, [r3, #4]
 8002702:	691b      	ldr	r3, [r3, #16]
 8002704:	700b      	strb	r3, [r1, #0]
 8002706:	6a63      	ldr	r3, [r4, #36]	; 0x24
 8002708:	3301      	adds	r3, #1
 800270a:	6263      	str	r3, [r4, #36]	; 0x24
 800270c:	e736      	b.n	800257c <HAL_I2C_EV_IRQHandler+0x368>
 800270e:	8d60      	ldrh	r0, [r4, #42]	; 0x2a
 8002710:	b280      	uxth	r0, r0
 8002712:	2803      	cmp	r0, #3
 8002714:	d10c      	bne.n	8002730 <HAL_I2C_EV_IRQHandler+0x51c>
 8002716:	6858      	ldr	r0, [r3, #4]
 8002718:	2a04      	cmp	r2, #4
 800271a:	f420 6080 	bic.w	r0, r0, #1024	; 0x400
 800271e:	6058      	str	r0, [r3, #4]
 8002720:	d0ef      	beq.n	8002702 <HAL_I2C_EV_IRQHandler+0x4ee>
 8002722:	2a02      	cmp	r2, #2
 8002724:	d0ed      	beq.n	8002702 <HAL_I2C_EV_IRQHandler+0x4ee>
 8002726:	681a      	ldr	r2, [r3, #0]
 8002728:	f422 6280 	bic.w	r2, r2, #1024	; 0x400
 800272c:	601a      	str	r2, [r3, #0]
 800272e:	e7e8      	b.n	8002702 <HAL_I2C_EV_IRQHandler+0x4ee>
 8002730:	8d60      	ldrh	r0, [r4, #42]	; 0x2a
 8002732:	b280      	uxth	r0, r0
 8002734:	2802      	cmp	r0, #2
 8002736:	d1e4      	bne.n	8002702 <HAL_I2C_EV_IRQHandler+0x4ee>
 8002738:	2a01      	cmp	r2, #1
 800273a:	d001      	beq.n	8002740 <HAL_I2C_EV_IRQHandler+0x52c>
 800273c:	2a10      	cmp	r2, #16
 800273e:	d128      	bne.n	8002792 <HAL_I2C_EV_IRQHandler+0x57e>
 8002740:	681a      	ldr	r2, [r3, #0]
 8002742:	f422 6280 	bic.w	r2, r2, #1024	; 0x400
 8002746:	601a      	str	r2, [r3, #0]
 8002748:	691b      	ldr	r3, [r3, #16]
 800274a:	700b      	strb	r3, [r1, #0]
 800274c:	6a62      	ldr	r2, [r4, #36]	; 0x24
 800274e:	1c53      	adds	r3, r2, #1
 8002750:	6263      	str	r3, [r4, #36]	; 0x24
 8002752:	8d63      	ldrh	r3, [r4, #42]	; 0x2a
 8002754:	3b01      	subs	r3, #1
 8002756:	b29b      	uxth	r3, r3
 8002758:	8563      	strh	r3, [r4, #42]	; 0x2a
 800275a:	6823      	ldr	r3, [r4, #0]
 800275c:	691b      	ldr	r3, [r3, #16]
 800275e:	7053      	strb	r3, [r2, #1]
 8002760:	6a63      	ldr	r3, [r4, #36]	; 0x24
 8002762:	6822      	ldr	r2, [r4, #0]
 8002764:	3301      	adds	r3, #1
 8002766:	6263      	str	r3, [r4, #36]	; 0x24
 8002768:	8d63      	ldrh	r3, [r4, #42]	; 0x2a
 800276a:	3b01      	subs	r3, #1
 800276c:	b29b      	uxth	r3, r3
 800276e:	8563      	strh	r3, [r4, #42]	; 0x2a
 8002770:	6853      	ldr	r3, [r2, #4]
 8002772:	f423 7340 	bic.w	r3, r3, #768	; 0x300
 8002776:	6053      	str	r3, [r2, #4]
 8002778:	2320      	movs	r3, #32
 800277a:	f884 303d 	strb.w	r3, [r4, #61]	; 0x3d
 800277e:	f894 303e 	ldrb.w	r3, [r4, #62]	; 0x3e
 8002782:	2b40      	cmp	r3, #64	; 0x40
 8002784:	f04f 0300 	mov.w	r3, #0
 8002788:	f884 303e 	strb.w	r3, [r4, #62]	; 0x3e
 800278c:	d10d      	bne.n	80027aa <HAL_I2C_EV_IRQHandler+0x596>
 800278e:	6323      	str	r3, [r4, #48]	; 0x30
 8002790:	e7a3      	b.n	80026da <HAL_I2C_EV_IRQHandler+0x4c6>
 8002792:	2a04      	cmp	r2, #4
 8002794:	d001      	beq.n	800279a <HAL_I2C_EV_IRQHandler+0x586>
 8002796:	2a02      	cmp	r2, #2
 8002798:	d103      	bne.n	80027a2 <HAL_I2C_EV_IRQHandler+0x58e>
 800279a:	681a      	ldr	r2, [r3, #0]
 800279c:	f442 6280 	orr.w	r2, r2, #1024	; 0x400
 80027a0:	e7d1      	b.n	8002746 <HAL_I2C_EV_IRQHandler+0x532>
 80027a2:	681a      	ldr	r2, [r3, #0]
 80027a4:	f442 7200 	orr.w	r2, r2, #512	; 0x200
 80027a8:	e7cd      	b.n	8002746 <HAL_I2C_EV_IRQHandler+0x532>
 80027aa:	2312      	movs	r3, #18
 80027ac:	4620      	mov	r0, r4
 80027ae:	6323      	str	r3, [r4, #48]	; 0x30
 80027b0:	f7ff fbcd 	bl	8001f4e <HAL_I2C_MasterRxCpltCallback>
 80027b4:	e54a      	b.n	800224c <HAL_I2C_EV_IRQHandler+0x38>
 80027b6:	6c20      	ldr	r0, [r4, #64]	; 0x40
 80027b8:	b308      	cbz	r0, 80027fe <HAL_I2C_EV_IRQHandler+0x5ea>
 80027ba:	2500      	movs	r5, #0
 80027bc:	6958      	ldr	r0, [r3, #20]
 80027be:	0787      	lsls	r7, r0, #30
 80027c0:	d52c      	bpl.n	800281c <HAL_I2C_EV_IRQHandler+0x608>
 80027c2:	0596      	lsls	r6, r2, #22
 80027c4:	d52a      	bpl.n	800281c <HAL_I2C_EV_IRQHandler+0x608>
 80027c6:	6c22      	ldr	r2, [r4, #64]	; 0x40
 80027c8:	b102      	cbz	r2, 80027cc <HAL_I2C_EV_IRQHandler+0x5b8>
 80027ca:	699d      	ldr	r5, [r3, #24]
 80027cc:	f894 203d 	ldrb.w	r2, [r4, #61]	; 0x3d
 80027d0:	f002 0228 	and.w	r2, r2, #40	; 0x28
 80027d4:	2a28      	cmp	r2, #40	; 0x28
 80027d6:	d115      	bne.n	8002804 <HAL_I2C_EV_IRQHandler+0x5f0>
 80027d8:	685a      	ldr	r2, [r3, #4]
 80027da:	ea6f 0195 	mvn.w	r1, r5, lsr #2
 80027de:	f422 6280 	bic.w	r2, r2, #1024	; 0x400
 80027e2:	605a      	str	r2, [r3, #4]
 80027e4:	2300      	movs	r3, #0
 80027e6:	062f      	lsls	r7, r5, #24
 80027e8:	4620      	mov	r0, r4
 80027ea:	bf54      	ite	pl
 80027ec:	89a2      	ldrhpl	r2, [r4, #12]
 80027ee:	8b22      	ldrhmi	r2, [r4, #24]
 80027f0:	f001 0101 	and.w	r1, r1, #1
 80027f4:	f884 303c 	strb.w	r3, [r4, #60]	; 0x3c
 80027f8:	f7ff fbac 	bl	8001f54 <HAL_I2C_AddrCallback>
 80027fc:	e526      	b.n	800224c <HAL_I2C_EV_IRQHandler+0x38>
 80027fe:	699d      	ldr	r5, [r3, #24]
 8002800:	6958      	ldr	r0, [r3, #20]
 8002802:	e7dc      	b.n	80027be <HAL_I2C_EV_IRQHandler+0x5aa>
 8002804:	2200      	movs	r2, #0
 8002806:	920c      	str	r2, [sp, #48]	; 0x30
 8002808:	6959      	ldr	r1, [r3, #20]
 800280a:	910c      	str	r1, [sp, #48]	; 0x30
 800280c:	699b      	ldr	r3, [r3, #24]
 800280e:	f884 203c 	strb.w	r2, [r4, #60]	; 0x3c
 8002812:	930c      	str	r3, [sp, #48]	; 0x30
 8002814:	9b0c      	ldr	r3, [sp, #48]	; 0x30
 8002816:	e519      	b.n	800224c <HAL_I2C_EV_IRQHandler+0x38>
 8002818:	2000004c 	.word	0x2000004c
 800281c:	06c6      	lsls	r6, r0, #27
 800281e:	f140 80b1 	bpl.w	8002984 <HAL_I2C_EV_IRQHandler+0x770>
 8002822:	0595      	lsls	r5, r2, #22
 8002824:	f140 80ae 	bpl.w	8002984 <HAL_I2C_EV_IRQHandler+0x770>
 8002828:	f894 503d 	ldrb.w	r5, [r4, #61]	; 0x3d
 800282c:	685a      	ldr	r2, [r3, #4]
 800282e:	b2ed      	uxtb	r5, r5
 8002830:	f422 62e0 	bic.w	r2, r2, #1792	; 0x700
 8002834:	605a      	str	r2, [r3, #4]
 8002836:	2200      	movs	r2, #0
 8002838:	920d      	str	r2, [sp, #52]	; 0x34
 800283a:	695a      	ldr	r2, [r3, #20]
 800283c:	920d      	str	r2, [sp, #52]	; 0x34
 800283e:	681a      	ldr	r2, [r3, #0]
 8002840:	f042 0201 	orr.w	r2, r2, #1
 8002844:	601a      	str	r2, [r3, #0]
 8002846:	9a0d      	ldr	r2, [sp, #52]	; 0x34
 8002848:	681a      	ldr	r2, [r3, #0]
 800284a:	f422 6280 	bic.w	r2, r2, #1024	; 0x400
 800284e:	601a      	str	r2, [r3, #0]
 8002850:	685a      	ldr	r2, [r3, #4]
 8002852:	0510      	lsls	r0, r2, #20
 8002854:	d520      	bpl.n	8002898 <HAL_I2C_EV_IRQHandler+0x684>
 8002856:	f005 02f7 	and.w	r2, r5, #247	; 0xf7
 800285a:	2a22      	cmp	r2, #34	; 0x22
 800285c:	d14a      	bne.n	80028f4 <HAL_I2C_EV_IRQHandler+0x6e0>
 800285e:	6ba0      	ldr	r0, [r4, #56]	; 0x38
 8002860:	6802      	ldr	r2, [r0, #0]
 8002862:	6852      	ldr	r2, [r2, #4]
 8002864:	b292      	uxth	r2, r2
 8002866:	8562      	strh	r2, [r4, #42]	; 0x2a
 8002868:	8d62      	ldrh	r2, [r4, #42]	; 0x2a
 800286a:	b292      	uxth	r2, r2
 800286c:	b11a      	cbz	r2, 8002876 <HAL_I2C_EV_IRQHandler+0x662>
 800286e:	6c22      	ldr	r2, [r4, #64]	; 0x40
 8002870:	f042 0204 	orr.w	r2, r2, #4
 8002874:	6422      	str	r2, [r4, #64]	; 0x40
 8002876:	685a      	ldr	r2, [r3, #4]
 8002878:	f422 6200 	bic.w	r2, r2, #2048	; 0x800
 800287c:	605a      	str	r2, [r3, #4]
 800287e:	f7ff f9eb 	bl	8001c58 <HAL_DMA_GetState>
 8002882:	2801      	cmp	r0, #1
 8002884:	d008      	beq.n	8002898 <HAL_I2C_EV_IRQHandler+0x684>
 8002886:	6ba0      	ldr	r0, [r4, #56]	; 0x38
 8002888:	4b79      	ldr	r3, [pc, #484]	; (8002a70 <HAL_I2C_EV_IRQHandler+0x85c>)
 800288a:	6343      	str	r3, [r0, #52]	; 0x34
 800288c:	f7ff f9be 	bl	8001c0c <HAL_DMA_Abort_IT>
 8002890:	b110      	cbz	r0, 8002898 <HAL_I2C_EV_IRQHandler+0x684>
 8002892:	6ba0      	ldr	r0, [r4, #56]	; 0x38
 8002894:	6b43      	ldr	r3, [r0, #52]	; 0x34
 8002896:	4798      	blx	r3
 8002898:	8d63      	ldrh	r3, [r4, #42]	; 0x2a
 800289a:	b29b      	uxth	r3, r3
 800289c:	b313      	cbz	r3, 80028e4 <HAL_I2C_EV_IRQHandler+0x6d0>
 800289e:	6823      	ldr	r3, [r4, #0]
 80028a0:	695a      	ldr	r2, [r3, #20]
 80028a2:	0751      	lsls	r1, r2, #29
 80028a4:	d509      	bpl.n	80028ba <HAL_I2C_EV_IRQHandler+0x6a6>
 80028a6:	691a      	ldr	r2, [r3, #16]
 80028a8:	6a63      	ldr	r3, [r4, #36]	; 0x24
 80028aa:	701a      	strb	r2, [r3, #0]
 80028ac:	6a63      	ldr	r3, [r4, #36]	; 0x24
 80028ae:	3301      	adds	r3, #1
 80028b0:	6263      	str	r3, [r4, #36]	; 0x24
 80028b2:	8d63      	ldrh	r3, [r4, #42]	; 0x2a
 80028b4:	3b01      	subs	r3, #1
 80028b6:	b29b      	uxth	r3, r3
 80028b8:	8563      	strh	r3, [r4, #42]	; 0x2a
 80028ba:	6823      	ldr	r3, [r4, #0]
 80028bc:	695a      	ldr	r2, [r3, #20]
 80028be:	0652      	lsls	r2, r2, #25
 80028c0:	d509      	bpl.n	80028d6 <HAL_I2C_EV_IRQHandler+0x6c2>
 80028c2:	691a      	ldr	r2, [r3, #16]
 80028c4:	6a63      	ldr	r3, [r4, #36]	; 0x24
 80028c6:	701a      	strb	r2, [r3, #0]
 80028c8:	6a63      	ldr	r3, [r4, #36]	; 0x24
 80028ca:	3301      	adds	r3, #1
 80028cc:	6263      	str	r3, [r4, #36]	; 0x24
 80028ce:	8d63      	ldrh	r3, [r4, #42]	; 0x2a
 80028d0:	3b01      	subs	r3, #1
 80028d2:	b29b      	uxth	r3, r3
 80028d4:	8563      	strh	r3, [r4, #42]	; 0x2a
 80028d6:	8d63      	ldrh	r3, [r4, #42]	; 0x2a
 80028d8:	b29b      	uxth	r3, r3
 80028da:	b11b      	cbz	r3, 80028e4 <HAL_I2C_EV_IRQHandler+0x6d0>
 80028dc:	6c23      	ldr	r3, [r4, #64]	; 0x40
 80028de:	f043 0304 	orr.w	r3, r3, #4
 80028e2:	6423      	str	r3, [r4, #64]	; 0x40
 80028e4:	6c23      	ldr	r3, [r4, #64]	; 0x40
 80028e6:	b313      	cbz	r3, 800292e <HAL_I2C_EV_IRQHandler+0x71a>
 80028e8:	4620      	mov	r0, r4
 80028ea:	b00f      	add	sp, #60	; 0x3c
 80028ec:	e8bd 40f0 	ldmia.w	sp!, {r4, r5, r6, r7, lr}
 80028f0:	f7ff bbe8 	b.w	80020c4 <I2C_ITError>
 80028f4:	6b60      	ldr	r0, [r4, #52]	; 0x34
 80028f6:	6802      	ldr	r2, [r0, #0]
 80028f8:	6852      	ldr	r2, [r2, #4]
 80028fa:	b292      	uxth	r2, r2
 80028fc:	8562      	strh	r2, [r4, #42]	; 0x2a
 80028fe:	8d62      	ldrh	r2, [r4, #42]	; 0x2a
 8002900:	b292      	uxth	r2, r2
 8002902:	b11a      	cbz	r2, 800290c <HAL_I2C_EV_IRQHandler+0x6f8>
 8002904:	6c22      	ldr	r2, [r4, #64]	; 0x40
 8002906:	f042 0204 	orr.w	r2, r2, #4
 800290a:	6422      	str	r2, [r4, #64]	; 0x40
 800290c:	685a      	ldr	r2, [r3, #4]
 800290e:	f422 6200 	bic.w	r2, r2, #2048	; 0x800
 8002912:	605a      	str	r2, [r3, #4]
 8002914:	f7ff f9a0 	bl	8001c58 <HAL_DMA_GetState>
 8002918:	2801      	cmp	r0, #1
 800291a:	d0bd      	beq.n	8002898 <HAL_I2C_EV_IRQHandler+0x684>
 800291c:	6b60      	ldr	r0, [r4, #52]	; 0x34
 800291e:	4b54      	ldr	r3, [pc, #336]	; (8002a70 <HAL_I2C_EV_IRQHandler+0x85c>)
 8002920:	6343      	str	r3, [r0, #52]	; 0x34
 8002922:	f7ff f973 	bl	8001c0c <HAL_DMA_Abort_IT>
 8002926:	2800      	cmp	r0, #0
 8002928:	d0b6      	beq.n	8002898 <HAL_I2C_EV_IRQHandler+0x684>
 800292a:	6b60      	ldr	r0, [r4, #52]	; 0x34
 800292c:	e7b2      	b.n	8002894 <HAL_I2C_EV_IRQHandler+0x680>
 800292e:	2d2a      	cmp	r5, #42	; 0x2a
 8002930:	d106      	bne.n	8002940 <HAL_I2C_EV_IRQHandler+0x72c>
 8002932:	6323      	str	r3, [r4, #48]	; 0x30
 8002934:	2328      	movs	r3, #40	; 0x28
 8002936:	4620      	mov	r0, r4
 8002938:	f884 303d 	strb.w	r3, [r4, #61]	; 0x3d
 800293c:	f7ff fb09 	bl	8001f52 <HAL_I2C_SlaveRxCpltCallback>
 8002940:	f894 303d 	ldrb.w	r3, [r4, #61]	; 0x3d
 8002944:	2b28      	cmp	r3, #40	; 0x28
 8002946:	d10c      	bne.n	8002962 <HAL_I2C_EV_IRQHandler+0x74e>
 8002948:	4b4a      	ldr	r3, [pc, #296]	; (8002a74 <HAL_I2C_EV_IRQHandler+0x860>)
 800294a:	2220      	movs	r2, #32
 800294c:	62e3      	str	r3, [r4, #44]	; 0x2c
 800294e:	2300      	movs	r3, #0
 8002950:	4620      	mov	r0, r4
 8002952:	6323      	str	r3, [r4, #48]	; 0x30
 8002954:	f884 203d 	strb.w	r2, [r4, #61]	; 0x3d
 8002958:	f884 303e 	strb.w	r3, [r4, #62]	; 0x3e
 800295c:	f7ff fafb 	bl	8001f56 <HAL_I2C_ListenCpltCallback>
 8002960:	e474      	b.n	800224c <HAL_I2C_EV_IRQHandler+0x38>
 8002962:	6b23      	ldr	r3, [r4, #48]	; 0x30
 8002964:	2b22      	cmp	r3, #34	; 0x22
 8002966:	d002      	beq.n	800296e <HAL_I2C_EV_IRQHandler+0x75a>
 8002968:	2d22      	cmp	r5, #34	; 0x22
 800296a:	f47f ac6f 	bne.w	800224c <HAL_I2C_EV_IRQHandler+0x38>
 800296e:	2300      	movs	r3, #0
 8002970:	2220      	movs	r2, #32
 8002972:	6323      	str	r3, [r4, #48]	; 0x30
 8002974:	f884 203d 	strb.w	r2, [r4, #61]	; 0x3d
 8002978:	f884 303e 	strb.w	r3, [r4, #62]	; 0x3e
 800297c:	4620      	mov	r0, r4
 800297e:	f7ff fae8 	bl	8001f52 <HAL_I2C_SlaveRxCpltCallback>
 8002982:	e463      	b.n	800224c <HAL_I2C_EV_IRQHandler+0x38>
 8002984:	f001 01f7 	and.w	r1, r1, #247	; 0xf7
 8002988:	2921      	cmp	r1, #33	; 0x21
 800298a:	f3c0 0580 	ubfx	r5, r0, #2, #1
 800298e:	d135      	bne.n	80029fc <HAL_I2C_EV_IRQHandler+0x7e8>
 8002990:	0607      	lsls	r7, r0, #24
 8002992:	d527      	bpl.n	80029e4 <HAL_I2C_EV_IRQHandler+0x7d0>
 8002994:	0556      	lsls	r6, r2, #21
 8002996:	d525      	bpl.n	80029e4 <HAL_I2C_EV_IRQHandler+0x7d0>
 8002998:	bb3d      	cbnz	r5, 80029ea <HAL_I2C_EV_IRQHandler+0x7d6>
 800299a:	f894 003d 	ldrb.w	r0, [r4, #61]	; 0x3d
 800299e:	8d62      	ldrh	r2, [r4, #42]	; 0x2a
 80029a0:	b2c0      	uxtb	r0, r0
 80029a2:	b292      	uxth	r2, r2
 80029a4:	2a00      	cmp	r2, #0
 80029a6:	f43f ac51 	beq.w	800224c <HAL_I2C_EV_IRQHandler+0x38>
 80029aa:	6a62      	ldr	r2, [r4, #36]	; 0x24
 80029ac:	f812 5b01 	ldrb.w	r5, [r2], #1
 80029b0:	611d      	str	r5, [r3, #16]
 80029b2:	6262      	str	r2, [r4, #36]	; 0x24
 80029b4:	8d62      	ldrh	r2, [r4, #42]	; 0x2a
 80029b6:	3a01      	subs	r2, #1
 80029b8:	b292      	uxth	r2, r2
 80029ba:	8562      	strh	r2, [r4, #42]	; 0x2a
 80029bc:	8d62      	ldrh	r2, [r4, #42]	; 0x2a
 80029be:	b292      	uxth	r2, r2
 80029c0:	2a00      	cmp	r2, #0
 80029c2:	f47f ac43 	bne.w	800224c <HAL_I2C_EV_IRQHandler+0x38>
 80029c6:	2829      	cmp	r0, #41	; 0x29
 80029c8:	f47f ac40 	bne.w	800224c <HAL_I2C_EV_IRQHandler+0x38>
 80029cc:	685a      	ldr	r2, [r3, #4]
 80029ce:	4620      	mov	r0, r4
 80029d0:	f422 6280 	bic.w	r2, r2, #1024	; 0x400
 80029d4:	605a      	str	r2, [r3, #4]
 80029d6:	2328      	movs	r3, #40	; 0x28
 80029d8:	6321      	str	r1, [r4, #48]	; 0x30
 80029da:	f884 303d 	strb.w	r3, [r4, #61]	; 0x3d
 80029de:	f7ff fab7 	bl	8001f50 <HAL_I2C_SlaveTxCpltCallback>
 80029e2:	e433      	b.n	800224c <HAL_I2C_EV_IRQHandler+0x38>
 80029e4:	2d00      	cmp	r5, #0
 80029e6:	f43f ac31 	beq.w	800224c <HAL_I2C_EV_IRQHandler+0x38>
 80029ea:	0595      	lsls	r5, r2, #22
 80029ec:	f57f ac2e 	bpl.w	800224c <HAL_I2C_EV_IRQHandler+0x38>
 80029f0:	8d62      	ldrh	r2, [r4, #42]	; 0x2a
 80029f2:	b292      	uxth	r2, r2
 80029f4:	2a00      	cmp	r2, #0
 80029f6:	f43f ac29 	beq.w	800224c <HAL_I2C_EV_IRQHandler+0x38>
 80029fa:	e5ba      	b.n	8002572 <HAL_I2C_EV_IRQHandler+0x35e>
 80029fc:	0640      	lsls	r0, r0, #25
 80029fe:	d527      	bpl.n	8002a50 <HAL_I2C_EV_IRQHandler+0x83c>
 8002a00:	0551      	lsls	r1, r2, #21
 8002a02:	d525      	bpl.n	8002a50 <HAL_I2C_EV_IRQHandler+0x83c>
 8002a04:	bb3d      	cbnz	r5, 8002a56 <HAL_I2C_EV_IRQHandler+0x842>
 8002a06:	f894 203d 	ldrb.w	r2, [r4, #61]	; 0x3d
 8002a0a:	8d61      	ldrh	r1, [r4, #42]	; 0x2a
 8002a0c:	b2d2      	uxtb	r2, r2
 8002a0e:	b289      	uxth	r1, r1
 8002a10:	2900      	cmp	r1, #0
 8002a12:	f43f ac1b 	beq.w	800224c <HAL_I2C_EV_IRQHandler+0x38>
 8002a16:	6919      	ldr	r1, [r3, #16]
 8002a18:	6a63      	ldr	r3, [r4, #36]	; 0x24
 8002a1a:	7019      	strb	r1, [r3, #0]
 8002a1c:	6a63      	ldr	r3, [r4, #36]	; 0x24
 8002a1e:	3301      	adds	r3, #1
 8002a20:	6263      	str	r3, [r4, #36]	; 0x24
 8002a22:	8d63      	ldrh	r3, [r4, #42]	; 0x2a
 8002a24:	3b01      	subs	r3, #1
 8002a26:	b29b      	uxth	r3, r3
 8002a28:	8563      	strh	r3, [r4, #42]	; 0x2a
 8002a2a:	8d63      	ldrh	r3, [r4, #42]	; 0x2a
 8002a2c:	b29b      	uxth	r3, r3
 8002a2e:	2b00      	cmp	r3, #0
 8002a30:	f47f ac0c 	bne.w	800224c <HAL_I2C_EV_IRQHandler+0x38>
 8002a34:	2a2a      	cmp	r2, #42	; 0x2a
 8002a36:	f47f ac09 	bne.w	800224c <HAL_I2C_EV_IRQHandler+0x38>
 8002a3a:	6822      	ldr	r2, [r4, #0]
 8002a3c:	6853      	ldr	r3, [r2, #4]
 8002a3e:	f423 6380 	bic.w	r3, r3, #1024	; 0x400
 8002a42:	6053      	str	r3, [r2, #4]
 8002a44:	2322      	movs	r3, #34	; 0x22
 8002a46:	6323      	str	r3, [r4, #48]	; 0x30
 8002a48:	2328      	movs	r3, #40	; 0x28
 8002a4a:	f884 303d 	strb.w	r3, [r4, #61]	; 0x3d
 8002a4e:	e795      	b.n	800297c <HAL_I2C_EV_IRQHandler+0x768>
 8002a50:	2d00      	cmp	r5, #0
 8002a52:	f43f abfb 	beq.w	800224c <HAL_I2C_EV_IRQHandler+0x38>
 8002a56:	0592      	lsls	r2, r2, #22
 8002a58:	f57f abf8 	bpl.w	800224c <HAL_I2C_EV_IRQHandler+0x38>
 8002a5c:	8d62      	ldrh	r2, [r4, #42]	; 0x2a
 8002a5e:	b292      	uxth	r2, r2
 8002a60:	2a00      	cmp	r2, #0
 8002a62:	f43f abf3 	beq.w	800224c <HAL_I2C_EV_IRQHandler+0x38>
 8002a66:	691a      	ldr	r2, [r3, #16]
 8002a68:	6a63      	ldr	r3, [r4, #36]	; 0x24
 8002a6a:	701a      	strb	r2, [r3, #0]
 8002a6c:	e64b      	b.n	8002706 <HAL_I2C_EV_IRQHandler+0x4f2>
 8002a6e:	bf00      	nop
 8002a70:	08002005 	.word	0x08002005
 8002a74:	ffff0000 	.word	0xffff0000

08002a78 <HAL_I2C_ER_IRQHandler>:
 8002a78:	b5f8      	push	{r3, r4, r5, r6, r7, lr}
 8002a7a:	6803      	ldr	r3, [r0, #0]
 8002a7c:	4604      	mov	r4, r0
 8002a7e:	695f      	ldr	r7, [r3, #20]
 8002a80:	685e      	ldr	r6, [r3, #4]
 8002a82:	f890 203e 	ldrb.w	r2, [r0, #62]	; 0x3e
 8002a86:	05f8      	lsls	r0, r7, #23
 8002a88:	b2d2      	uxtb	r2, r2
 8002a8a:	f3c7 2500 	ubfx	r5, r7, #8, #1
 8002a8e:	d508      	bpl.n	8002aa2 <HAL_I2C_ER_IRQHandler+0x2a>
 8002a90:	05f1      	lsls	r1, r6, #23
 8002a92:	bf48      	it	mi
 8002a94:	f46f 7180 	mvnmi.w	r1, #256	; 0x100
 8002a98:	f3c6 2500 	ubfx	r5, r6, #8, #1
 8002a9c:	bf44      	itt	mi
 8002a9e:	2501      	movmi	r5, #1
 8002aa0:	6159      	strmi	r1, [r3, #20]
 8002aa2:	05b8      	lsls	r0, r7, #22
 8002aa4:	d506      	bpl.n	8002ab4 <HAL_I2C_ER_IRQHandler+0x3c>
 8002aa6:	05f1      	lsls	r1, r6, #23
 8002aa8:	bf42      	ittt	mi
 8002aaa:	f46f 7100 	mvnmi.w	r1, #512	; 0x200
 8002aae:	f045 0502 	orrmi.w	r5, r5, #2
 8002ab2:	6159      	strmi	r1, [r3, #20]
 8002ab4:	0578      	lsls	r0, r7, #21
 8002ab6:	d536      	bpl.n	8002b26 <HAL_I2C_ER_IRQHandler+0xae>
 8002ab8:	05f1      	lsls	r1, r6, #23
 8002aba:	d534      	bpl.n	8002b26 <HAL_I2C_ER_IRQHandler+0xae>
 8002abc:	8d60      	ldrh	r0, [r4, #42]	; 0x2a
 8002abe:	f894 103d 	ldrb.w	r1, [r4, #61]	; 0x3d
 8002ac2:	2a20      	cmp	r2, #32
 8002ac4:	f8d4 c030 	ldr.w	ip, [r4, #48]	; 0x30
 8002ac8:	b280      	uxth	r0, r0
 8002aca:	b2c9      	uxtb	r1, r1
 8002acc:	d15b      	bne.n	8002b86 <HAL_I2C_ER_IRQHandler+0x10e>
 8002ace:	2800      	cmp	r0, #0
 8002ad0:	d159      	bne.n	8002b86 <HAL_I2C_ER_IRQHandler+0x10e>
 8002ad2:	f001 00f7 	and.w	r0, r1, #247	; 0xf7
 8002ad6:	2821      	cmp	r0, #33	; 0x21
 8002ad8:	d004      	beq.n	8002ae4 <HAL_I2C_ER_IRQHandler+0x6c>
 8002ada:	2928      	cmp	r1, #40	; 0x28
 8002adc:	d153      	bne.n	8002b86 <HAL_I2C_ER_IRQHandler+0x10e>
 8002ade:	f1bc 0f21 	cmp.w	ip, #33	; 0x21
 8002ae2:	d150      	bne.n	8002b86 <HAL_I2C_ER_IRQHandler+0x10e>
 8002ae4:	f894 203d 	ldrb.w	r2, [r4, #61]	; 0x3d
 8002ae8:	6ae1      	ldr	r1, [r4, #44]	; 0x2c
 8002aea:	b2d2      	uxtb	r2, r2
 8002aec:	2908      	cmp	r1, #8
 8002aee:	d001      	beq.n	8002af4 <HAL_I2C_ER_IRQHandler+0x7c>
 8002af0:	2920      	cmp	r1, #32
 8002af2:	d12a      	bne.n	8002b4a <HAL_I2C_ER_IRQHandler+0xd2>
 8002af4:	2a28      	cmp	r2, #40	; 0x28
 8002af6:	d128      	bne.n	8002b4a <HAL_I2C_ER_IRQHandler+0xd2>
 8002af8:	4a2b      	ldr	r2, [pc, #172]	; (8002ba8 <HAL_I2C_ER_IRQHandler+0x130>)
 8002afa:	4620      	mov	r0, r4
 8002afc:	62e2      	str	r2, [r4, #44]	; 0x2c
 8002afe:	685a      	ldr	r2, [r3, #4]
 8002b00:	f422 62e0 	bic.w	r2, r2, #1792	; 0x700
 8002b04:	605a      	str	r2, [r3, #4]
 8002b06:	f46f 6280 	mvn.w	r2, #1024	; 0x400
 8002b0a:	615a      	str	r2, [r3, #20]
 8002b0c:	681a      	ldr	r2, [r3, #0]
 8002b0e:	f422 6280 	bic.w	r2, r2, #1024	; 0x400
 8002b12:	601a      	str	r2, [r3, #0]
 8002b14:	2300      	movs	r3, #0
 8002b16:	2220      	movs	r2, #32
 8002b18:	6323      	str	r3, [r4, #48]	; 0x30
 8002b1a:	f884 203d 	strb.w	r2, [r4, #61]	; 0x3d
 8002b1e:	f884 303e 	strb.w	r3, [r4, #62]	; 0x3e
 8002b22:	f7ff fa18 	bl	8001f56 <HAL_I2C_ListenCpltCallback>
 8002b26:	053a      	lsls	r2, r7, #20
 8002b28:	d53b      	bpl.n	8002ba2 <HAL_I2C_ER_IRQHandler+0x12a>
 8002b2a:	05f3      	lsls	r3, r6, #23
 8002b2c:	d539      	bpl.n	8002ba2 <HAL_I2C_ER_IRQHandler+0x12a>
 8002b2e:	f46f 6200 	mvn.w	r2, #2048	; 0x800
 8002b32:	6823      	ldr	r3, [r4, #0]
 8002b34:	f045 0508 	orr.w	r5, r5, #8
 8002b38:	615a      	str	r2, [r3, #20]
 8002b3a:	6c23      	ldr	r3, [r4, #64]	; 0x40
 8002b3c:	4620      	mov	r0, r4
 8002b3e:	431d      	orrs	r5, r3
 8002b40:	6425      	str	r5, [r4, #64]	; 0x40
 8002b42:	e8bd 40f8 	ldmia.w	sp!, {r3, r4, r5, r6, r7, lr}
 8002b46:	f7ff babd 	b.w	80020c4 <I2C_ITError>
 8002b4a:	2a21      	cmp	r2, #33	; 0x21
 8002b4c:	d117      	bne.n	8002b7e <HAL_I2C_ER_IRQHandler+0x106>
 8002b4e:	4916      	ldr	r1, [pc, #88]	; (8002ba8 <HAL_I2C_ER_IRQHandler+0x130>)
 8002b50:	4620      	mov	r0, r4
 8002b52:	62e1      	str	r1, [r4, #44]	; 0x2c
 8002b54:	6322      	str	r2, [r4, #48]	; 0x30
 8002b56:	2220      	movs	r2, #32
 8002b58:	f884 203d 	strb.w	r2, [r4, #61]	; 0x3d
 8002b5c:	2200      	movs	r2, #0
 8002b5e:	f884 203e 	strb.w	r2, [r4, #62]	; 0x3e
 8002b62:	685a      	ldr	r2, [r3, #4]
 8002b64:	f422 62e0 	bic.w	r2, r2, #1792	; 0x700
 8002b68:	605a      	str	r2, [r3, #4]
 8002b6a:	f46f 6280 	mvn.w	r2, #1024	; 0x400
 8002b6e:	615a      	str	r2, [r3, #20]
 8002b70:	681a      	ldr	r2, [r3, #0]
 8002b72:	f422 6280 	bic.w	r2, r2, #1024	; 0x400
 8002b76:	601a      	str	r2, [r3, #0]
 8002b78:	f7ff f9ea 	bl	8001f50 <HAL_I2C_SlaveTxCpltCallback>
 8002b7c:	e7d3      	b.n	8002b26 <HAL_I2C_ER_IRQHandler+0xae>
 8002b7e:	f46f 6280 	mvn.w	r2, #1024	; 0x400
 8002b82:	615a      	str	r2, [r3, #20]
 8002b84:	e7cf      	b.n	8002b26 <HAL_I2C_ER_IRQHandler+0xae>
 8002b86:	f46f 6180 	mvn.w	r1, #1024	; 0x400
 8002b8a:	2a10      	cmp	r2, #16
 8002b8c:	6159      	str	r1, [r3, #20]
 8002b8e:	f045 0504 	orr.w	r5, r5, #4
 8002b92:	d001      	beq.n	8002b98 <HAL_I2C_ER_IRQHandler+0x120>
 8002b94:	2a40      	cmp	r2, #64	; 0x40
 8002b96:	d1c6      	bne.n	8002b26 <HAL_I2C_ER_IRQHandler+0xae>
 8002b98:	681a      	ldr	r2, [r3, #0]
 8002b9a:	f442 7200 	orr.w	r2, r2, #512	; 0x200
 8002b9e:	601a      	str	r2, [r3, #0]
 8002ba0:	e7c1      	b.n	8002b26 <HAL_I2C_ER_IRQHandler+0xae>
 8002ba2:	2d00      	cmp	r5, #0
 8002ba4:	d1c9      	bne.n	8002b3a <HAL_I2C_ER_IRQHandler+0xc2>
 8002ba6:	bdf8      	pop	{r3, r4, r5, r6, r7, pc}
 8002ba8:	ffff0000 	.word	0xffff0000

08002bac <RCC_SetFlashLatencyFromMSIRange>:
 8002bac:	4b1c      	ldr	r3, [pc, #112]	; (8002c20 <RCC_SetFlashLatencyFromMSIRange+0x74>)
 8002bae:	b082      	sub	sp, #8
 8002bb0:	689a      	ldr	r2, [r3, #8]
 8002bb2:	f012 0ff0 	tst.w	r2, #240	; 0xf0
 8002bb6:	d00c      	beq.n	8002bd2 <RCC_SetFlashLatencyFromMSIRange+0x26>
 8002bb8:	2200      	movs	r2, #0
 8002bba:	491a      	ldr	r1, [pc, #104]	; (8002c24 <RCC_SetFlashLatencyFromMSIRange+0x78>)
 8002bbc:	680b      	ldr	r3, [r1, #0]
 8002bbe:	f023 0301 	bic.w	r3, r3, #1
 8002bc2:	4313      	orrs	r3, r2
 8002bc4:	600b      	str	r3, [r1, #0]
 8002bc6:	6808      	ldr	r0, [r1, #0]
 8002bc8:	f000 0001 	and.w	r0, r0, #1
 8002bcc:	4050      	eors	r0, r2
 8002bce:	b002      	add	sp, #8
 8002bd0:	4770      	bx	lr
 8002bd2:	6a5a      	ldr	r2, [r3, #36]	; 0x24
 8002bd4:	4914      	ldr	r1, [pc, #80]	; (8002c28 <RCC_SetFlashLatencyFromMSIRange+0x7c>)
 8002bd6:	f012 5f80 	tst.w	r2, #268435456	; 0x10000000
 8002bda:	d00f      	beq.n	8002bfc <RCC_SetFlashLatencyFromMSIRange+0x50>
 8002bdc:	680a      	ldr	r2, [r1, #0]
 8002bde:	f402 52c0 	and.w	r2, r2, #6144	; 0x1800
 8002be2:	f5b2 5fc0 	cmp.w	r2, #6144	; 0x1800
 8002be6:	d1e7      	bne.n	8002bb8 <RCC_SetFlashLatencyFromMSIRange+0xc>
 8002be8:	f5b0 4f40 	cmp.w	r0, #49152	; 0xc000
 8002bec:	d1e4      	bne.n	8002bb8 <RCC_SetFlashLatencyFromMSIRange+0xc>
 8002bee:	4a0d      	ldr	r2, [pc, #52]	; (8002c24 <RCC_SetFlashLatencyFromMSIRange+0x78>)
 8002bf0:	6813      	ldr	r3, [r2, #0]
 8002bf2:	f043 0304 	orr.w	r3, r3, #4
 8002bf6:	6013      	str	r3, [r2, #0]
 8002bf8:	2201      	movs	r2, #1
 8002bfa:	e7de      	b.n	8002bba <RCC_SetFlashLatencyFromMSIRange+0xe>
 8002bfc:	6a5a      	ldr	r2, [r3, #36]	; 0x24
 8002bfe:	f042 5280 	orr.w	r2, r2, #268435456	; 0x10000000
 8002c02:	625a      	str	r2, [r3, #36]	; 0x24
 8002c04:	6a5a      	ldr	r2, [r3, #36]	; 0x24
 8002c06:	f002 5280 	and.w	r2, r2, #268435456	; 0x10000000
 8002c0a:	9201      	str	r2, [sp, #4]
 8002c0c:	9a01      	ldr	r2, [sp, #4]
 8002c0e:	680a      	ldr	r2, [r1, #0]
 8002c10:	6a59      	ldr	r1, [r3, #36]	; 0x24
 8002c12:	f402 52c0 	and.w	r2, r2, #6144	; 0x1800
 8002c16:	f021 5180 	bic.w	r1, r1, #268435456	; 0x10000000
 8002c1a:	6259      	str	r1, [r3, #36]	; 0x24
 8002c1c:	e7e1      	b.n	8002be2 <RCC_SetFlashLatencyFromMSIRange+0x36>
 8002c1e:	bf00      	nop
 8002c20:	40023800 	.word	0x40023800
 8002c24:	40023c00 	.word	0x40023c00
 8002c28:	40007000 	.word	0x40007000

08002c2c <HAL_RCC_OscConfig>:
 8002c2c:	e92d 43f7 	stmdb	sp!, {r0, r1, r2, r4, r5, r6, r7, r8, r9, lr}
 8002c30:	4604      	mov	r4, r0
 8002c32:	2800      	cmp	r0, #0
 8002c34:	d060      	beq.n	8002cf8 <HAL_RCC_OscConfig+0xcc>
 8002c36:	4ba2      	ldr	r3, [pc, #648]	; (8002ec0 <HAL_RCC_OscConfig+0x294>)
 8002c38:	6802      	ldr	r2, [r0, #0]
 8002c3a:	689e      	ldr	r6, [r3, #8]
 8002c3c:	689f      	ldr	r7, [r3, #8]
 8002c3e:	07d0      	lsls	r0, r2, #31
 8002c40:	f006 060c 	and.w	r6, r6, #12
 8002c44:	f407 3780 	and.w	r7, r7, #65536	; 0x10000
 8002c48:	d44b      	bmi.n	8002ce2 <HAL_RCC_OscConfig+0xb6>
 8002c4a:	6823      	ldr	r3, [r4, #0]
 8002c4c:	0799      	lsls	r1, r3, #30
 8002c4e:	f100 8097 	bmi.w	8002d80 <HAL_RCC_OscConfig+0x154>
 8002c52:	6823      	ldr	r3, [r4, #0]
 8002c54:	06d8      	lsls	r0, r3, #27
 8002c56:	d536      	bpl.n	8002cc6 <HAL_RCC_OscConfig+0x9a>
 8002c58:	2e00      	cmp	r6, #0
 8002c5a:	f040 80e0 	bne.w	8002e1e <HAL_RCC_OscConfig+0x1f2>
 8002c5e:	4d98      	ldr	r5, [pc, #608]	; (8002ec0 <HAL_RCC_OscConfig+0x294>)
 8002c60:	682b      	ldr	r3, [r5, #0]
 8002c62:	0599      	lsls	r1, r3, #22
 8002c64:	d502      	bpl.n	8002c6c <HAL_RCC_OscConfig+0x40>
 8002c66:	69a3      	ldr	r3, [r4, #24]
 8002c68:	2b00      	cmp	r3, #0
 8002c6a:	d045      	beq.n	8002cf8 <HAL_RCC_OscConfig+0xcc>
 8002c6c:	686b      	ldr	r3, [r5, #4]
 8002c6e:	6a20      	ldr	r0, [r4, #32]
 8002c70:	f403 4360 	and.w	r3, r3, #57344	; 0xe000
 8002c74:	4298      	cmp	r0, r3
 8002c76:	f240 80c0 	bls.w	8002dfa <HAL_RCC_OscConfig+0x1ce>
 8002c7a:	f7ff ff97 	bl	8002bac <RCC_SetFlashLatencyFromMSIRange>
 8002c7e:	2800      	cmp	r0, #0
 8002c80:	d13a      	bne.n	8002cf8 <HAL_RCC_OscConfig+0xcc>
 8002c82:	686b      	ldr	r3, [r5, #4]
 8002c84:	6a22      	ldr	r2, [r4, #32]
 8002c86:	f423 4360 	bic.w	r3, r3, #57344	; 0xe000
 8002c8a:	4313      	orrs	r3, r2
 8002c8c:	606b      	str	r3, [r5, #4]
 8002c8e:	686b      	ldr	r3, [r5, #4]
 8002c90:	69e2      	ldr	r2, [r4, #28]
 8002c92:	f023 437f 	bic.w	r3, r3, #4278190080	; 0xff000000
 8002c96:	ea43 6302 	orr.w	r3, r3, r2, lsl #24
 8002c9a:	606b      	str	r3, [r5, #4]
 8002c9c:	4b88      	ldr	r3, [pc, #544]	; (8002ec0 <HAL_RCC_OscConfig+0x294>)
 8002c9e:	6899      	ldr	r1, [r3, #8]
 8002ca0:	6a23      	ldr	r3, [r4, #32]
 8002ca2:	0b5b      	lsrs	r3, r3, #13
 8002ca4:	1c5a      	adds	r2, r3, #1
 8002ca6:	f44f 4300 	mov.w	r3, #32768	; 0x8000
 8002caa:	4093      	lsls	r3, r2
 8002cac:	f3c1 1203 	ubfx	r2, r1, #4, #4
 8002cb0:	4984      	ldr	r1, [pc, #528]	; (8002ec4 <HAL_RCC_OscConfig+0x298>)
 8002cb2:	5c8a      	ldrb	r2, [r1, r2]
 8002cb4:	40d3      	lsrs	r3, r2
 8002cb6:	4a84      	ldr	r2, [pc, #528]	; (8002ec8 <HAL_RCC_OscConfig+0x29c>)
 8002cb8:	6013      	str	r3, [r2, #0]
 8002cba:	4b84      	ldr	r3, [pc, #528]	; (8002ecc <HAL_RCC_OscConfig+0x2a0>)
 8002cbc:	6818      	ldr	r0, [r3, #0]
 8002cbe:	f7fe fc67 	bl	8001590 <HAL_InitTick>
 8002cc2:	2800      	cmp	r0, #0
 8002cc4:	d130      	bne.n	8002d28 <HAL_RCC_OscConfig+0xfc>
 8002cc6:	6823      	ldr	r3, [r4, #0]
 8002cc8:	0718      	lsls	r0, r3, #28
 8002cca:	f100 80d7 	bmi.w	8002e7c <HAL_RCC_OscConfig+0x250>
 8002cce:	6823      	ldr	r3, [r4, #0]
 8002cd0:	0759      	lsls	r1, r3, #29
 8002cd2:	f100 8103 	bmi.w	8002edc <HAL_RCC_OscConfig+0x2b0>
 8002cd6:	6a60      	ldr	r0, [r4, #36]	; 0x24
 8002cd8:	2800      	cmp	r0, #0
 8002cda:	f040 816b 	bne.w	8002fb4 <HAL_RCC_OscConfig+0x388>
 8002cde:	2000      	movs	r0, #0
 8002ce0:	e022      	b.n	8002d28 <HAL_RCC_OscConfig+0xfc>
 8002ce2:	2e08      	cmp	r6, #8
 8002ce4:	d002      	beq.n	8002cec <HAL_RCC_OscConfig+0xc0>
 8002ce6:	2e0c      	cmp	r6, #12
 8002ce8:	d108      	bne.n	8002cfc <HAL_RCC_OscConfig+0xd0>
 8002cea:	b13f      	cbz	r7, 8002cfc <HAL_RCC_OscConfig+0xd0>
 8002cec:	681b      	ldr	r3, [r3, #0]
 8002cee:	039a      	lsls	r2, r3, #14
 8002cf0:	d5ab      	bpl.n	8002c4a <HAL_RCC_OscConfig+0x1e>
 8002cf2:	6863      	ldr	r3, [r4, #4]
 8002cf4:	2b00      	cmp	r3, #0
 8002cf6:	d1a8      	bne.n	8002c4a <HAL_RCC_OscConfig+0x1e>
 8002cf8:	2001      	movs	r0, #1
 8002cfa:	e015      	b.n	8002d28 <HAL_RCC_OscConfig+0xfc>
 8002cfc:	6862      	ldr	r2, [r4, #4]
 8002cfe:	2a01      	cmp	r2, #1
 8002d00:	d115      	bne.n	8002d2e <HAL_RCC_OscConfig+0x102>
 8002d02:	681a      	ldr	r2, [r3, #0]
 8002d04:	f442 3280 	orr.w	r2, r2, #65536	; 0x10000
 8002d08:	601a      	str	r2, [r3, #0]
 8002d0a:	f7fe fc83 	bl	8001614 <HAL_GetTick>
 8002d0e:	4605      	mov	r5, r0
 8002d10:	f8df 81ac 	ldr.w	r8, [pc, #428]	; 8002ec0 <HAL_RCC_OscConfig+0x294>
 8002d14:	f8d8 3000 	ldr.w	r3, [r8]
 8002d18:	039b      	lsls	r3, r3, #14
 8002d1a:	d496      	bmi.n	8002c4a <HAL_RCC_OscConfig+0x1e>
 8002d1c:	f7fe fc7a 	bl	8001614 <HAL_GetTick>
 8002d20:	1b40      	subs	r0, r0, r5
 8002d22:	2864      	cmp	r0, #100	; 0x64
 8002d24:	d9f6      	bls.n	8002d14 <HAL_RCC_OscConfig+0xe8>
 8002d26:	2003      	movs	r0, #3
 8002d28:	b003      	add	sp, #12
 8002d2a:	e8bd 83f0 	ldmia.w	sp!, {r4, r5, r6, r7, r8, r9, pc}
 8002d2e:	4d64      	ldr	r5, [pc, #400]	; (8002ec0 <HAL_RCC_OscConfig+0x294>)
 8002d30:	682b      	ldr	r3, [r5, #0]
 8002d32:	b9a2      	cbnz	r2, 8002d5e <HAL_RCC_OscConfig+0x132>
 8002d34:	f423 3380 	bic.w	r3, r3, #65536	; 0x10000
 8002d38:	602b      	str	r3, [r5, #0]
 8002d3a:	682b      	ldr	r3, [r5, #0]
 8002d3c:	f423 2380 	bic.w	r3, r3, #262144	; 0x40000
 8002d40:	602b      	str	r3, [r5, #0]
 8002d42:	f7fe fc67 	bl	8001614 <HAL_GetTick>
 8002d46:	4680      	mov	r8, r0
 8002d48:	682b      	ldr	r3, [r5, #0]
 8002d4a:	0398      	lsls	r0, r3, #14
 8002d4c:	f57f af7d 	bpl.w	8002c4a <HAL_RCC_OscConfig+0x1e>
 8002d50:	f7fe fc60 	bl	8001614 <HAL_GetTick>
 8002d54:	eba0 0008 	sub.w	r0, r0, r8
 8002d58:	2864      	cmp	r0, #100	; 0x64
 8002d5a:	d9f5      	bls.n	8002d48 <HAL_RCC_OscConfig+0x11c>
 8002d5c:	e7e3      	b.n	8002d26 <HAL_RCC_OscConfig+0xfa>
 8002d5e:	2a05      	cmp	r2, #5
 8002d60:	bf0b      	itete	eq
 8002d62:	f443 2380 	orreq.w	r3, r3, #262144	; 0x40000
 8002d66:	f423 3380 	bicne.w	r3, r3, #65536	; 0x10000
 8002d6a:	602b      	streq	r3, [r5, #0]
 8002d6c:	602b      	strne	r3, [r5, #0]
 8002d6e:	bf0b      	itete	eq
 8002d70:	682b      	ldreq	r3, [r5, #0]
 8002d72:	682b      	ldrne	r3, [r5, #0]
 8002d74:	f443 3380 	orreq.w	r3, r3, #65536	; 0x10000
 8002d78:	f423 2380 	bicne.w	r3, r3, #262144	; 0x40000
 8002d7c:	602b      	str	r3, [r5, #0]
 8002d7e:	e7c4      	b.n	8002d0a <HAL_RCC_OscConfig+0xde>
 8002d80:	2e04      	cmp	r6, #4
 8002d82:	d002      	beq.n	8002d8a <HAL_RCC_OscConfig+0x15e>
 8002d84:	2e0c      	cmp	r6, #12
 8002d86:	d10f      	bne.n	8002da8 <HAL_RCC_OscConfig+0x17c>
 8002d88:	b977      	cbnz	r7, 8002da8 <HAL_RCC_OscConfig+0x17c>
 8002d8a:	4b4d      	ldr	r3, [pc, #308]	; (8002ec0 <HAL_RCC_OscConfig+0x294>)
 8002d8c:	681a      	ldr	r2, [r3, #0]
 8002d8e:	0791      	lsls	r1, r2, #30
 8002d90:	d502      	bpl.n	8002d98 <HAL_RCC_OscConfig+0x16c>
 8002d92:	68e2      	ldr	r2, [r4, #12]
 8002d94:	2a01      	cmp	r2, #1
 8002d96:	d1af      	bne.n	8002cf8 <HAL_RCC_OscConfig+0xcc>
 8002d98:	685a      	ldr	r2, [r3, #4]
 8002d9a:	6921      	ldr	r1, [r4, #16]
 8002d9c:	f422 52f8 	bic.w	r2, r2, #7936	; 0x1f00
 8002da0:	ea42 2201 	orr.w	r2, r2, r1, lsl #8
 8002da4:	605a      	str	r2, [r3, #4]
 8002da6:	e754      	b.n	8002c52 <HAL_RCC_OscConfig+0x26>
 8002da8:	68e2      	ldr	r2, [r4, #12]
 8002daa:	4b49      	ldr	r3, [pc, #292]	; (8002ed0 <HAL_RCC_OscConfig+0x2a4>)
 8002dac:	b1b2      	cbz	r2, 8002ddc <HAL_RCC_OscConfig+0x1b0>
 8002dae:	2201      	movs	r2, #1
 8002db0:	601a      	str	r2, [r3, #0]
 8002db2:	f7fe fc2f 	bl	8001614 <HAL_GetTick>
 8002db6:	4607      	mov	r7, r0
 8002db8:	4d41      	ldr	r5, [pc, #260]	; (8002ec0 <HAL_RCC_OscConfig+0x294>)
 8002dba:	682b      	ldr	r3, [r5, #0]
 8002dbc:	079a      	lsls	r2, r3, #30
 8002dbe:	d507      	bpl.n	8002dd0 <HAL_RCC_OscConfig+0x1a4>
 8002dc0:	686b      	ldr	r3, [r5, #4]
 8002dc2:	6922      	ldr	r2, [r4, #16]
 8002dc4:	f423 53f8 	bic.w	r3, r3, #7936	; 0x1f00
 8002dc8:	ea43 2302 	orr.w	r3, r3, r2, lsl #8
 8002dcc:	606b      	str	r3, [r5, #4]
 8002dce:	e740      	b.n	8002c52 <HAL_RCC_OscConfig+0x26>
 8002dd0:	f7fe fc20 	bl	8001614 <HAL_GetTick>
 8002dd4:	1bc0      	subs	r0, r0, r7
 8002dd6:	2802      	cmp	r0, #2
 8002dd8:	d9ef      	bls.n	8002dba <HAL_RCC_OscConfig+0x18e>
 8002dda:	e7a4      	b.n	8002d26 <HAL_RCC_OscConfig+0xfa>
 8002ddc:	601a      	str	r2, [r3, #0]
 8002dde:	f7fe fc19 	bl	8001614 <HAL_GetTick>
 8002de2:	4605      	mov	r5, r0
 8002de4:	4f36      	ldr	r7, [pc, #216]	; (8002ec0 <HAL_RCC_OscConfig+0x294>)
 8002de6:	683b      	ldr	r3, [r7, #0]
 8002de8:	079b      	lsls	r3, r3, #30
 8002dea:	f57f af32 	bpl.w	8002c52 <HAL_RCC_OscConfig+0x26>
 8002dee:	f7fe fc11 	bl	8001614 <HAL_GetTick>
 8002df2:	1b40      	subs	r0, r0, r5
 8002df4:	2802      	cmp	r0, #2
 8002df6:	d9f6      	bls.n	8002de6 <HAL_RCC_OscConfig+0x1ba>
 8002df8:	e795      	b.n	8002d26 <HAL_RCC_OscConfig+0xfa>
 8002dfa:	686b      	ldr	r3, [r5, #4]
 8002dfc:	f423 4360 	bic.w	r3, r3, #57344	; 0xe000
 8002e00:	4303      	orrs	r3, r0
 8002e02:	606b      	str	r3, [r5, #4]
 8002e04:	686b      	ldr	r3, [r5, #4]
 8002e06:	69e2      	ldr	r2, [r4, #28]
 8002e08:	f023 437f 	bic.w	r3, r3, #4278190080	; 0xff000000
 8002e0c:	ea43 6302 	orr.w	r3, r3, r2, lsl #24
 8002e10:	606b      	str	r3, [r5, #4]
 8002e12:	f7ff fecb 	bl	8002bac <RCC_SetFlashLatencyFromMSIRange>
 8002e16:	2800      	cmp	r0, #0
 8002e18:	f43f af40 	beq.w	8002c9c <HAL_RCC_OscConfig+0x70>
 8002e1c:	e76c      	b.n	8002cf8 <HAL_RCC_OscConfig+0xcc>
 8002e1e:	69a2      	ldr	r2, [r4, #24]
 8002e20:	4b2c      	ldr	r3, [pc, #176]	; (8002ed4 <HAL_RCC_OscConfig+0x2a8>)
 8002e22:	b1e2      	cbz	r2, 8002e5e <HAL_RCC_OscConfig+0x232>
 8002e24:	2201      	movs	r2, #1
 8002e26:	601a      	str	r2, [r3, #0]
 8002e28:	f7fe fbf4 	bl	8001614 <HAL_GetTick>
 8002e2c:	4607      	mov	r7, r0
 8002e2e:	4d24      	ldr	r5, [pc, #144]	; (8002ec0 <HAL_RCC_OscConfig+0x294>)
 8002e30:	682b      	ldr	r3, [r5, #0]
 8002e32:	059a      	lsls	r2, r3, #22
 8002e34:	d50d      	bpl.n	8002e52 <HAL_RCC_OscConfig+0x226>
 8002e36:	686b      	ldr	r3, [r5, #4]
 8002e38:	6a22      	ldr	r2, [r4, #32]
 8002e3a:	f423 4360 	bic.w	r3, r3, #57344	; 0xe000
 8002e3e:	4313      	orrs	r3, r2
 8002e40:	606b      	str	r3, [r5, #4]
 8002e42:	686b      	ldr	r3, [r5, #4]
 8002e44:	69e2      	ldr	r2, [r4, #28]
 8002e46:	f023 437f 	bic.w	r3, r3, #4278190080	; 0xff000000
 8002e4a:	ea43 6302 	orr.w	r3, r3, r2, lsl #24
 8002e4e:	606b      	str	r3, [r5, #4]
 8002e50:	e739      	b.n	8002cc6 <HAL_RCC_OscConfig+0x9a>
 8002e52:	f7fe fbdf 	bl	8001614 <HAL_GetTick>
 8002e56:	1bc0      	subs	r0, r0, r7
 8002e58:	2802      	cmp	r0, #2
 8002e5a:	d9e9      	bls.n	8002e30 <HAL_RCC_OscConfig+0x204>
 8002e5c:	e763      	b.n	8002d26 <HAL_RCC_OscConfig+0xfa>
 8002e5e:	601a      	str	r2, [r3, #0]
 8002e60:	f7fe fbd8 	bl	8001614 <HAL_GetTick>
 8002e64:	4605      	mov	r5, r0
 8002e66:	4f16      	ldr	r7, [pc, #88]	; (8002ec0 <HAL_RCC_OscConfig+0x294>)
 8002e68:	683b      	ldr	r3, [r7, #0]
 8002e6a:	059b      	lsls	r3, r3, #22
 8002e6c:	f57f af2b 	bpl.w	8002cc6 <HAL_RCC_OscConfig+0x9a>
 8002e70:	f7fe fbd0 	bl	8001614 <HAL_GetTick>
 8002e74:	1b40      	subs	r0, r0, r5
 8002e76:	2802      	cmp	r0, #2
 8002e78:	d9f6      	bls.n	8002e68 <HAL_RCC_OscConfig+0x23c>
 8002e7a:	e754      	b.n	8002d26 <HAL_RCC_OscConfig+0xfa>
 8002e7c:	6962      	ldr	r2, [r4, #20]
 8002e7e:	4b16      	ldr	r3, [pc, #88]	; (8002ed8 <HAL_RCC_OscConfig+0x2ac>)
 8002e80:	b17a      	cbz	r2, 8002ea2 <HAL_RCC_OscConfig+0x276>
 8002e82:	2201      	movs	r2, #1
 8002e84:	601a      	str	r2, [r3, #0]
 8002e86:	f7fe fbc5 	bl	8001614 <HAL_GetTick>
 8002e8a:	4605      	mov	r5, r0
 8002e8c:	4f0c      	ldr	r7, [pc, #48]	; (8002ec0 <HAL_RCC_OscConfig+0x294>)
 8002e8e:	6b7b      	ldr	r3, [r7, #52]	; 0x34
 8002e90:	079a      	lsls	r2, r3, #30
 8002e92:	f53f af1c 	bmi.w	8002cce <HAL_RCC_OscConfig+0xa2>
 8002e96:	f7fe fbbd 	bl	8001614 <HAL_GetTick>
 8002e9a:	1b40      	subs	r0, r0, r5
 8002e9c:	2802      	cmp	r0, #2
 8002e9e:	d9f6      	bls.n	8002e8e <HAL_RCC_OscConfig+0x262>
 8002ea0:	e741      	b.n	8002d26 <HAL_RCC_OscConfig+0xfa>
 8002ea2:	601a      	str	r2, [r3, #0]
 8002ea4:	f7fe fbb6 	bl	8001614 <HAL_GetTick>
 8002ea8:	4605      	mov	r5, r0
 8002eaa:	4f05      	ldr	r7, [pc, #20]	; (8002ec0 <HAL_RCC_OscConfig+0x294>)
 8002eac:	6b7b      	ldr	r3, [r7, #52]	; 0x34
 8002eae:	079b      	lsls	r3, r3, #30
 8002eb0:	f57f af0d 	bpl.w	8002cce <HAL_RCC_OscConfig+0xa2>
 8002eb4:	f7fe fbae 	bl	8001614 <HAL_GetTick>
 8002eb8:	1b40      	subs	r0, r0, r5
 8002eba:	2802      	cmp	r0, #2
 8002ebc:	d9f6      	bls.n	8002eac <HAL_RCC_OscConfig+0x280>
 8002ebe:	e732      	b.n	8002d26 <HAL_RCC_OscConfig+0xfa>
 8002ec0:	40023800 	.word	0x40023800
 8002ec4:	08006630 	.word	0x08006630
 8002ec8:	2000004c 	.word	0x2000004c
 8002ecc:	20000054 	.word	0x20000054
 8002ed0:	42470000 	.word	0x42470000
 8002ed4:	42470020 	.word	0x42470020
 8002ed8:	42470680 	.word	0x42470680
 8002edc:	4b5f      	ldr	r3, [pc, #380]	; (800305c <HAL_RCC_OscConfig+0x430>)
 8002ede:	6a5a      	ldr	r2, [r3, #36]	; 0x24
 8002ee0:	00d0      	lsls	r0, r2, #3
 8002ee2:	d429      	bmi.n	8002f38 <HAL_RCC_OscConfig+0x30c>
 8002ee4:	f04f 0801 	mov.w	r8, #1
 8002ee8:	6a5a      	ldr	r2, [r3, #36]	; 0x24
 8002eea:	f042 5280 	orr.w	r2, r2, #268435456	; 0x10000000
 8002eee:	625a      	str	r2, [r3, #36]	; 0x24
 8002ef0:	6a5b      	ldr	r3, [r3, #36]	; 0x24
 8002ef2:	f003 5380 	and.w	r3, r3, #268435456	; 0x10000000
 8002ef6:	9301      	str	r3, [sp, #4]
 8002ef8:	9b01      	ldr	r3, [sp, #4]
 8002efa:	4d59      	ldr	r5, [pc, #356]	; (8003060 <HAL_RCC_OscConfig+0x434>)
 8002efc:	682b      	ldr	r3, [r5, #0]
 8002efe:	05d9      	lsls	r1, r3, #23
 8002f00:	d51d      	bpl.n	8002f3e <HAL_RCC_OscConfig+0x312>
 8002f02:	68a3      	ldr	r3, [r4, #8]
 8002f04:	4d55      	ldr	r5, [pc, #340]	; (800305c <HAL_RCC_OscConfig+0x430>)
 8002f06:	2b01      	cmp	r3, #1
 8002f08:	d129      	bne.n	8002f5e <HAL_RCC_OscConfig+0x332>
 8002f0a:	6b6b      	ldr	r3, [r5, #52]	; 0x34
 8002f0c:	f443 7380 	orr.w	r3, r3, #256	; 0x100
 8002f10:	636b      	str	r3, [r5, #52]	; 0x34
 8002f12:	f7fe fb7f 	bl	8001614 <HAL_GetTick>
 8002f16:	f241 3988 	movw	r9, #5000	; 0x1388
 8002f1a:	4605      	mov	r5, r0
 8002f1c:	4f4f      	ldr	r7, [pc, #316]	; (800305c <HAL_RCC_OscConfig+0x430>)
 8002f1e:	6b7b      	ldr	r3, [r7, #52]	; 0x34
 8002f20:	059b      	lsls	r3, r3, #22
 8002f22:	d541      	bpl.n	8002fa8 <HAL_RCC_OscConfig+0x37c>
 8002f24:	f1b8 0f00 	cmp.w	r8, #0
 8002f28:	f43f aed5 	beq.w	8002cd6 <HAL_RCC_OscConfig+0xaa>
 8002f2c:	4a4b      	ldr	r2, [pc, #300]	; (800305c <HAL_RCC_OscConfig+0x430>)
 8002f2e:	6a53      	ldr	r3, [r2, #36]	; 0x24
 8002f30:	f023 5380 	bic.w	r3, r3, #268435456	; 0x10000000
 8002f34:	6253      	str	r3, [r2, #36]	; 0x24
 8002f36:	e6ce      	b.n	8002cd6 <HAL_RCC_OscConfig+0xaa>
 8002f38:	f04f 0800 	mov.w	r8, #0
 8002f3c:	e7dd      	b.n	8002efa <HAL_RCC_OscConfig+0x2ce>
 8002f3e:	682b      	ldr	r3, [r5, #0]
 8002f40:	f443 7380 	orr.w	r3, r3, #256	; 0x100
 8002f44:	602b      	str	r3, [r5, #0]
 8002f46:	f7fe fb65 	bl	8001614 <HAL_GetTick>
 8002f4a:	4607      	mov	r7, r0
 8002f4c:	682b      	ldr	r3, [r5, #0]
 8002f4e:	05da      	lsls	r2, r3, #23
 8002f50:	d4d7      	bmi.n	8002f02 <HAL_RCC_OscConfig+0x2d6>
 8002f52:	f7fe fb5f 	bl	8001614 <HAL_GetTick>
 8002f56:	1bc0      	subs	r0, r0, r7
 8002f58:	2864      	cmp	r0, #100	; 0x64
 8002f5a:	d9f7      	bls.n	8002f4c <HAL_RCC_OscConfig+0x320>
 8002f5c:	e6e3      	b.n	8002d26 <HAL_RCC_OscConfig+0xfa>
 8002f5e:	b9ab      	cbnz	r3, 8002f8c <HAL_RCC_OscConfig+0x360>
 8002f60:	6b6b      	ldr	r3, [r5, #52]	; 0x34
 8002f62:	f241 3988 	movw	r9, #5000	; 0x1388
 8002f66:	f423 7380 	bic.w	r3, r3, #256	; 0x100
 8002f6a:	636b      	str	r3, [r5, #52]	; 0x34
 8002f6c:	6b6b      	ldr	r3, [r5, #52]	; 0x34
 8002f6e:	f423 6380 	bic.w	r3, r3, #1024	; 0x400
 8002f72:	636b      	str	r3, [r5, #52]	; 0x34
 8002f74:	f7fe fb4e 	bl	8001614 <HAL_GetTick>
 8002f78:	4607      	mov	r7, r0
 8002f7a:	6b6b      	ldr	r3, [r5, #52]	; 0x34
 8002f7c:	0598      	lsls	r0, r3, #22
 8002f7e:	d5d1      	bpl.n	8002f24 <HAL_RCC_OscConfig+0x2f8>
 8002f80:	f7fe fb48 	bl	8001614 <HAL_GetTick>
 8002f84:	1bc0      	subs	r0, r0, r7
 8002f86:	4548      	cmp	r0, r9
 8002f88:	d9f7      	bls.n	8002f7a <HAL_RCC_OscConfig+0x34e>
 8002f8a:	e6cc      	b.n	8002d26 <HAL_RCC_OscConfig+0xfa>
 8002f8c:	2b05      	cmp	r3, #5
 8002f8e:	6b6b      	ldr	r3, [r5, #52]	; 0x34
 8002f90:	d103      	bne.n	8002f9a <HAL_RCC_OscConfig+0x36e>
 8002f92:	f443 6380 	orr.w	r3, r3, #1024	; 0x400
 8002f96:	636b      	str	r3, [r5, #52]	; 0x34
 8002f98:	e7b7      	b.n	8002f0a <HAL_RCC_OscConfig+0x2de>
 8002f9a:	f423 7380 	bic.w	r3, r3, #256	; 0x100
 8002f9e:	636b      	str	r3, [r5, #52]	; 0x34
 8002fa0:	6b6b      	ldr	r3, [r5, #52]	; 0x34
 8002fa2:	f423 6380 	bic.w	r3, r3, #1024	; 0x400
 8002fa6:	e7b3      	b.n	8002f10 <HAL_RCC_OscConfig+0x2e4>
 8002fa8:	f7fe fb34 	bl	8001614 <HAL_GetTick>
 8002fac:	1b40      	subs	r0, r0, r5
 8002fae:	4548      	cmp	r0, r9
 8002fb0:	d9b5      	bls.n	8002f1e <HAL_RCC_OscConfig+0x2f2>
 8002fb2:	e6b8      	b.n	8002d26 <HAL_RCC_OscConfig+0xfa>
 8002fb4:	2e0c      	cmp	r6, #12
 8002fb6:	d039      	beq.n	800302c <HAL_RCC_OscConfig+0x400>
 8002fb8:	2300      	movs	r3, #0
 8002fba:	4d2a      	ldr	r5, [pc, #168]	; (8003064 <HAL_RCC_OscConfig+0x438>)
 8002fbc:	2802      	cmp	r0, #2
 8002fbe:	602b      	str	r3, [r5, #0]
 8002fc0:	d126      	bne.n	8003010 <HAL_RCC_OscConfig+0x3e4>
 8002fc2:	f7fe fb27 	bl	8001614 <HAL_GetTick>
 8002fc6:	4607      	mov	r7, r0
 8002fc8:	4e24      	ldr	r6, [pc, #144]	; (800305c <HAL_RCC_OscConfig+0x430>)
 8002fca:	6833      	ldr	r3, [r6, #0]
 8002fcc:	0199      	lsls	r1, r3, #6
 8002fce:	d419      	bmi.n	8003004 <HAL_RCC_OscConfig+0x3d8>
 8002fd0:	68b2      	ldr	r2, [r6, #8]
 8002fd2:	e9d4 310a 	ldrd	r3, r1, [r4, #40]	; 0x28
 8002fd6:	f422 027d 	bic.w	r2, r2, #16580608	; 0xfd0000
 8002fda:	430b      	orrs	r3, r1
 8002fdc:	4313      	orrs	r3, r2
 8002fde:	6b22      	ldr	r2, [r4, #48]	; 0x30
 8002fe0:	4313      	orrs	r3, r2
 8002fe2:	60b3      	str	r3, [r6, #8]
 8002fe4:	2301      	movs	r3, #1
 8002fe6:	602b      	str	r3, [r5, #0]
 8002fe8:	f7fe fb14 	bl	8001614 <HAL_GetTick>
 8002fec:	4604      	mov	r4, r0
 8002fee:	4d1b      	ldr	r5, [pc, #108]	; (800305c <HAL_RCC_OscConfig+0x430>)
 8002ff0:	682b      	ldr	r3, [r5, #0]
 8002ff2:	019a      	lsls	r2, r3, #6
 8002ff4:	f53f ae73 	bmi.w	8002cde <HAL_RCC_OscConfig+0xb2>
 8002ff8:	f7fe fb0c 	bl	8001614 <HAL_GetTick>
 8002ffc:	1b00      	subs	r0, r0, r4
 8002ffe:	2802      	cmp	r0, #2
 8003000:	d9f6      	bls.n	8002ff0 <HAL_RCC_OscConfig+0x3c4>
 8003002:	e690      	b.n	8002d26 <HAL_RCC_OscConfig+0xfa>
 8003004:	f7fe fb06 	bl	8001614 <HAL_GetTick>
 8003008:	1bc0      	subs	r0, r0, r7
 800300a:	2802      	cmp	r0, #2
 800300c:	d9dd      	bls.n	8002fca <HAL_RCC_OscConfig+0x39e>
 800300e:	e68a      	b.n	8002d26 <HAL_RCC_OscConfig+0xfa>
 8003010:	f7fe fb00 	bl	8001614 <HAL_GetTick>
 8003014:	4604      	mov	r4, r0
 8003016:	4d11      	ldr	r5, [pc, #68]	; (800305c <HAL_RCC_OscConfig+0x430>)
 8003018:	682b      	ldr	r3, [r5, #0]
 800301a:	019b      	lsls	r3, r3, #6
 800301c:	f57f ae5f 	bpl.w	8002cde <HAL_RCC_OscConfig+0xb2>
 8003020:	f7fe faf8 	bl	8001614 <HAL_GetTick>
 8003024:	1b00      	subs	r0, r0, r4
 8003026:	2802      	cmp	r0, #2
 8003028:	d9f6      	bls.n	8003018 <HAL_RCC_OscConfig+0x3ec>
 800302a:	e67c      	b.n	8002d26 <HAL_RCC_OscConfig+0xfa>
 800302c:	2801      	cmp	r0, #1
 800302e:	f43f ae7b 	beq.w	8002d28 <HAL_RCC_OscConfig+0xfc>
 8003032:	4b0a      	ldr	r3, [pc, #40]	; (800305c <HAL_RCC_OscConfig+0x430>)
 8003034:	6aa2      	ldr	r2, [r4, #40]	; 0x28
 8003036:	689b      	ldr	r3, [r3, #8]
 8003038:	f403 3180 	and.w	r1, r3, #65536	; 0x10000
 800303c:	4291      	cmp	r1, r2
 800303e:	f47f ae5b 	bne.w	8002cf8 <HAL_RCC_OscConfig+0xcc>
 8003042:	6ae1      	ldr	r1, [r4, #44]	; 0x2c
 8003044:	f403 1270 	and.w	r2, r3, #3932160	; 0x3c0000
 8003048:	428a      	cmp	r2, r1
 800304a:	f47f ae55 	bne.w	8002cf8 <HAL_RCC_OscConfig+0xcc>
 800304e:	6b22      	ldr	r2, [r4, #48]	; 0x30
 8003050:	f403 0340 	and.w	r3, r3, #12582912	; 0xc00000
 8003054:	4293      	cmp	r3, r2
 8003056:	f43f ae42 	beq.w	8002cde <HAL_RCC_OscConfig+0xb2>
 800305a:	e64d      	b.n	8002cf8 <HAL_RCC_OscConfig+0xcc>
 800305c:	40023800 	.word	0x40023800
 8003060:	40007000 	.word	0x40007000
 8003064:	42470060 	.word	0x42470060

08003068 <HAL_RCC_GetSysClockFreq>:
 8003068:	4b17      	ldr	r3, [pc, #92]	; (80030c8 <HAL_RCC_GetSysClockFreq+0x60>)
 800306a:	e92d 4800 	stmdb	sp!, {fp, lr}
 800306e:	689a      	ldr	r2, [r3, #8]
 8003070:	f002 010c 	and.w	r1, r2, #12
 8003074:	2908      	cmp	r1, #8
 8003076:	d025      	beq.n	80030c4 <HAL_RCC_GetSysClockFreq+0x5c>
 8003078:	290c      	cmp	r1, #12
 800307a:	d003      	beq.n	8003084 <HAL_RCC_GetSysClockFreq+0x1c>
 800307c:	2904      	cmp	r1, #4
 800307e:	d119      	bne.n	80030b4 <HAL_RCC_GetSysClockFreq+0x4c>
 8003080:	4812      	ldr	r0, [pc, #72]	; (80030cc <HAL_RCC_GetSysClockFreq+0x64>)
 8003082:	e015      	b.n	80030b0 <HAL_RCC_GetSysClockFreq+0x48>
 8003084:	689b      	ldr	r3, [r3, #8]
 8003086:	4812      	ldr	r0, [pc, #72]	; (80030d0 <HAL_RCC_GetSysClockFreq+0x68>)
 8003088:	f3c2 4183 	ubfx	r1, r2, #18, #4
 800308c:	f413 3380 	ands.w	r3, r3, #65536	; 0x10000
 8003090:	f810 b001 	ldrb.w	fp, [r0, r1]
 8003094:	bf14      	ite	ne
 8003096:	4b0f      	ldrne	r3, [pc, #60]	; (80030d4 <HAL_RCC_GetSysClockFreq+0x6c>)
 8003098:	490c      	ldreq	r1, [pc, #48]	; (80030cc <HAL_RCC_GetSysClockFreq+0x64>)
 800309a:	f3c2 5281 	ubfx	r2, r2, #22, #2
 800309e:	bf16      	itet	ne
 80030a0:	fbab 0103 	umullne	r0, r1, fp, r3
 80030a4:	fbab 0101 	umulleq	r0, r1, fp, r1
 80030a8:	2300      	movne	r3, #0
 80030aa:	3201      	adds	r2, #1
 80030ac:	f7fd f866 	bl	800017c <__aeabi_uldivmod>
 80030b0:	e8bd 8800 	ldmia.w	sp!, {fp, pc}
 80030b4:	6858      	ldr	r0, [r3, #4]
 80030b6:	f3c0 3042 	ubfx	r0, r0, #13, #3
 80030ba:	1c43      	adds	r3, r0, #1
 80030bc:	f44f 4000 	mov.w	r0, #32768	; 0x8000
 80030c0:	4098      	lsls	r0, r3
 80030c2:	e7f5      	b.n	80030b0 <HAL_RCC_GetSysClockFreq+0x48>
 80030c4:	4803      	ldr	r0, [pc, #12]	; (80030d4 <HAL_RCC_GetSysClockFreq+0x6c>)
 80030c6:	e7f3      	b.n	80030b0 <HAL_RCC_GetSysClockFreq+0x48>
 80030c8:	40023800 	.word	0x40023800
 80030cc:	00f42400 	.word	0x00f42400
 80030d0:	08006648 	.word	0x08006648
 80030d4:	01312d00 	.word	0x01312d00

080030d8 <HAL_RCC_ClockConfig>:
 80030d8:	e92d 41f0 	stmdb	sp!, {r4, r5, r6, r7, r8, lr}
 80030dc:	460e      	mov	r6, r1
 80030de:	4605      	mov	r5, r0
 80030e0:	b910      	cbnz	r0, 80030e8 <HAL_RCC_ClockConfig+0x10>
 80030e2:	2001      	movs	r0, #1
 80030e4:	e8bd 81f0 	ldmia.w	sp!, {r4, r5, r6, r7, r8, pc}
 80030e8:	4b57      	ldr	r3, [pc, #348]	; (8003248 <HAL_RCC_ClockConfig+0x170>)
 80030ea:	681a      	ldr	r2, [r3, #0]
 80030ec:	f002 0201 	and.w	r2, r2, #1
 80030f0:	428a      	cmp	r2, r1
 80030f2:	d32a      	bcc.n	800314a <HAL_RCC_ClockConfig+0x72>
 80030f4:	682a      	ldr	r2, [r5, #0]
 80030f6:	0794      	lsls	r4, r2, #30
 80030f8:	d438      	bmi.n	800316c <HAL_RCC_ClockConfig+0x94>
 80030fa:	07d0      	lsls	r0, r2, #31
 80030fc:	d43e      	bmi.n	800317c <HAL_RCC_ClockConfig+0xa4>
 80030fe:	4b52      	ldr	r3, [pc, #328]	; (8003248 <HAL_RCC_ClockConfig+0x170>)
 8003100:	681a      	ldr	r2, [r3, #0]
 8003102:	f002 0201 	and.w	r2, r2, #1
 8003106:	42b2      	cmp	r2, r6
 8003108:	f200 808c 	bhi.w	8003224 <HAL_RCC_ClockConfig+0x14c>
 800310c:	682a      	ldr	r2, [r5, #0]
 800310e:	0751      	lsls	r1, r2, #29
 8003110:	f100 8091 	bmi.w	8003236 <HAL_RCC_ClockConfig+0x15e>
 8003114:	0713      	lsls	r3, r2, #28
 8003116:	d507      	bpl.n	8003128 <HAL_RCC_ClockConfig+0x50>
 8003118:	4a4c      	ldr	r2, [pc, #304]	; (800324c <HAL_RCC_ClockConfig+0x174>)
 800311a:	6929      	ldr	r1, [r5, #16]
 800311c:	6893      	ldr	r3, [r2, #8]
 800311e:	f423 5360 	bic.w	r3, r3, #14336	; 0x3800
 8003122:	ea43 03c1 	orr.w	r3, r3, r1, lsl #3
 8003126:	6093      	str	r3, [r2, #8]
 8003128:	f7ff ff9e 	bl	8003068 <HAL_RCC_GetSysClockFreq>
 800312c:	e8bd 41f0 	ldmia.w	sp!, {r4, r5, r6, r7, r8, lr}
 8003130:	4b46      	ldr	r3, [pc, #280]	; (800324c <HAL_RCC_ClockConfig+0x174>)
 8003132:	4a47      	ldr	r2, [pc, #284]	; (8003250 <HAL_RCC_ClockConfig+0x178>)
 8003134:	689b      	ldr	r3, [r3, #8]
 8003136:	f3c3 1303 	ubfx	r3, r3, #4, #4
 800313a:	5cd3      	ldrb	r3, [r2, r3]
 800313c:	40d8      	lsrs	r0, r3
 800313e:	4b45      	ldr	r3, [pc, #276]	; (8003254 <HAL_RCC_ClockConfig+0x17c>)
 8003140:	6018      	str	r0, [r3, #0]
 8003142:	4b45      	ldr	r3, [pc, #276]	; (8003258 <HAL_RCC_ClockConfig+0x180>)
 8003144:	6818      	ldr	r0, [r3, #0]
 8003146:	f7fe ba23 	b.w	8001590 <HAL_InitTick>
 800314a:	2901      	cmp	r1, #1
 800314c:	bf02      	ittt	eq
 800314e:	681a      	ldreq	r2, [r3, #0]
 8003150:	f042 0204 	orreq.w	r2, r2, #4
 8003154:	601a      	streq	r2, [r3, #0]
 8003156:	681a      	ldr	r2, [r3, #0]
 8003158:	f022 0201 	bic.w	r2, r2, #1
 800315c:	430a      	orrs	r2, r1
 800315e:	601a      	str	r2, [r3, #0]
 8003160:	681b      	ldr	r3, [r3, #0]
 8003162:	f003 0301 	and.w	r3, r3, #1
 8003166:	428b      	cmp	r3, r1
 8003168:	d1bb      	bne.n	80030e2 <HAL_RCC_ClockConfig+0xa>
 800316a:	e7c3      	b.n	80030f4 <HAL_RCC_ClockConfig+0x1c>
 800316c:	4937      	ldr	r1, [pc, #220]	; (800324c <HAL_RCC_ClockConfig+0x174>)
 800316e:	68a8      	ldr	r0, [r5, #8]
 8003170:	688b      	ldr	r3, [r1, #8]
 8003172:	f023 03f0 	bic.w	r3, r3, #240	; 0xf0
 8003176:	4303      	orrs	r3, r0
 8003178:	608b      	str	r3, [r1, #8]
 800317a:	e7be      	b.n	80030fa <HAL_RCC_ClockConfig+0x22>
 800317c:	686a      	ldr	r2, [r5, #4]
 800317e:	4b33      	ldr	r3, [pc, #204]	; (800324c <HAL_RCC_ClockConfig+0x174>)
 8003180:	2a02      	cmp	r2, #2
 8003182:	681b      	ldr	r3, [r3, #0]
 8003184:	d11c      	bne.n	80031c0 <HAL_RCC_ClockConfig+0xe8>
 8003186:	f413 3f00 	tst.w	r3, #131072	; 0x20000
 800318a:	d0aa      	beq.n	80030e2 <HAL_RCC_ClockConfig+0xa>
 800318c:	4c2f      	ldr	r4, [pc, #188]	; (800324c <HAL_RCC_ClockConfig+0x174>)
 800318e:	f241 3888 	movw	r8, #5000	; 0x1388
 8003192:	68a3      	ldr	r3, [r4, #8]
 8003194:	f023 0303 	bic.w	r3, r3, #3
 8003198:	4313      	orrs	r3, r2
 800319a:	60a3      	str	r3, [r4, #8]
 800319c:	f7fe fa3a 	bl	8001614 <HAL_GetTick>
 80031a0:	686b      	ldr	r3, [r5, #4]
 80031a2:	4607      	mov	r7, r0
 80031a4:	2b02      	cmp	r3, #2
 80031a6:	d118      	bne.n	80031da <HAL_RCC_ClockConfig+0x102>
 80031a8:	68a3      	ldr	r3, [r4, #8]
 80031aa:	f003 030c 	and.w	r3, r3, #12
 80031ae:	2b08      	cmp	r3, #8
 80031b0:	d0a5      	beq.n	80030fe <HAL_RCC_ClockConfig+0x26>
 80031b2:	f7fe fa2f 	bl	8001614 <HAL_GetTick>
 80031b6:	1bc0      	subs	r0, r0, r7
 80031b8:	4540      	cmp	r0, r8
 80031ba:	d9f5      	bls.n	80031a8 <HAL_RCC_ClockConfig+0xd0>
 80031bc:	2003      	movs	r0, #3
 80031be:	e791      	b.n	80030e4 <HAL_RCC_ClockConfig+0xc>
 80031c0:	2a03      	cmp	r2, #3
 80031c2:	d102      	bne.n	80031ca <HAL_RCC_ClockConfig+0xf2>
 80031c4:	f013 7f00 	tst.w	r3, #33554432	; 0x2000000
 80031c8:	e7df      	b.n	800318a <HAL_RCC_ClockConfig+0xb2>
 80031ca:	2a01      	cmp	r2, #1
 80031cc:	d102      	bne.n	80031d4 <HAL_RCC_ClockConfig+0xfc>
 80031ce:	f013 0f02 	tst.w	r3, #2
 80031d2:	e7da      	b.n	800318a <HAL_RCC_ClockConfig+0xb2>
 80031d4:	f413 7f00 	tst.w	r3, #512	; 0x200
 80031d8:	e7d7      	b.n	800318a <HAL_RCC_ClockConfig+0xb2>
 80031da:	2b03      	cmp	r3, #3
 80031dc:	d10a      	bne.n	80031f4 <HAL_RCC_ClockConfig+0x11c>
 80031de:	68a3      	ldr	r3, [r4, #8]
 80031e0:	f003 030c 	and.w	r3, r3, #12
 80031e4:	2b0c      	cmp	r3, #12
 80031e6:	d08a      	beq.n	80030fe <HAL_RCC_ClockConfig+0x26>
 80031e8:	f7fe fa14 	bl	8001614 <HAL_GetTick>
 80031ec:	1bc0      	subs	r0, r0, r7
 80031ee:	4540      	cmp	r0, r8
 80031f0:	d9f5      	bls.n	80031de <HAL_RCC_ClockConfig+0x106>
 80031f2:	e7e3      	b.n	80031bc <HAL_RCC_ClockConfig+0xe4>
 80031f4:	2b01      	cmp	r3, #1
 80031f6:	d110      	bne.n	800321a <HAL_RCC_ClockConfig+0x142>
 80031f8:	68a3      	ldr	r3, [r4, #8]
 80031fa:	f003 030c 	and.w	r3, r3, #12
 80031fe:	2b04      	cmp	r3, #4
 8003200:	f43f af7d 	beq.w	80030fe <HAL_RCC_ClockConfig+0x26>
 8003204:	f7fe fa06 	bl	8001614 <HAL_GetTick>
 8003208:	1bc0      	subs	r0, r0, r7
 800320a:	4540      	cmp	r0, r8
 800320c:	d9f4      	bls.n	80031f8 <HAL_RCC_ClockConfig+0x120>
 800320e:	e7d5      	b.n	80031bc <HAL_RCC_ClockConfig+0xe4>
 8003210:	f7fe fa00 	bl	8001614 <HAL_GetTick>
 8003214:	1bc0      	subs	r0, r0, r7
 8003216:	4540      	cmp	r0, r8
 8003218:	d8d0      	bhi.n	80031bc <HAL_RCC_ClockConfig+0xe4>
 800321a:	68a3      	ldr	r3, [r4, #8]
 800321c:	f013 0f0c 	tst.w	r3, #12
 8003220:	d1f6      	bne.n	8003210 <HAL_RCC_ClockConfig+0x138>
 8003222:	e76c      	b.n	80030fe <HAL_RCC_ClockConfig+0x26>
 8003224:	681a      	ldr	r2, [r3, #0]
 8003226:	f022 0201 	bic.w	r2, r2, #1
 800322a:	601a      	str	r2, [r3, #0]
 800322c:	681b      	ldr	r3, [r3, #0]
 800322e:	07da      	lsls	r2, r3, #31
 8003230:	f57f af6c 	bpl.w	800310c <HAL_RCC_ClockConfig+0x34>
 8003234:	e755      	b.n	80030e2 <HAL_RCC_ClockConfig+0xa>
 8003236:	4905      	ldr	r1, [pc, #20]	; (800324c <HAL_RCC_ClockConfig+0x174>)
 8003238:	68e8      	ldr	r0, [r5, #12]
 800323a:	688b      	ldr	r3, [r1, #8]
 800323c:	f423 63e0 	bic.w	r3, r3, #1792	; 0x700
 8003240:	4303      	orrs	r3, r0
 8003242:	608b      	str	r3, [r1, #8]
 8003244:	e766      	b.n	8003114 <HAL_RCC_ClockConfig+0x3c>
 8003246:	bf00      	nop
 8003248:	40023c00 	.word	0x40023c00
 800324c:	40023800 	.word	0x40023800
 8003250:	08006630 	.word	0x08006630
 8003254:	2000004c 	.word	0x2000004c
 8003258:	20000054 	.word	0x20000054

0800325c <HAL_RCC_GetPCLK1Freq>:
 800325c:	4b04      	ldr	r3, [pc, #16]	; (8003270 <HAL_RCC_GetPCLK1Freq+0x14>)
 800325e:	4a05      	ldr	r2, [pc, #20]	; (8003274 <HAL_RCC_GetPCLK1Freq+0x18>)
 8003260:	689b      	ldr	r3, [r3, #8]
 8003262:	f3c3 2302 	ubfx	r3, r3, #8, #3
 8003266:	5cd3      	ldrb	r3, [r2, r3]
 8003268:	4a03      	ldr	r2, [pc, #12]	; (8003278 <HAL_RCC_GetPCLK1Freq+0x1c>)
 800326a:	6810      	ldr	r0, [r2, #0]
 800326c:	40d8      	lsrs	r0, r3
 800326e:	4770      	bx	lr
 8003270:	40023800 	.word	0x40023800
 8003274:	08006640 	.word	0x08006640
 8003278:	2000004c 	.word	0x2000004c

0800327c <HAL_RCC_GetPCLK2Freq>:
 800327c:	4b04      	ldr	r3, [pc, #16]	; (8003290 <HAL_RCC_GetPCLK2Freq+0x14>)
 800327e:	4a05      	ldr	r2, [pc, #20]	; (8003294 <HAL_RCC_GetPCLK2Freq+0x18>)
 8003280:	689b      	ldr	r3, [r3, #8]
 8003282:	f3c3 23c2 	ubfx	r3, r3, #11, #3
 8003286:	5cd3      	ldrb	r3, [r2, r3]
 8003288:	4a03      	ldr	r2, [pc, #12]	; (8003298 <HAL_RCC_GetPCLK2Freq+0x1c>)
 800328a:	6810      	ldr	r0, [r2, #0]
 800328c:	40d8      	lsrs	r0, r3
 800328e:	4770      	bx	lr
 8003290:	40023800 	.word	0x40023800
 8003294:	08006640 	.word	0x08006640
 8003298:	2000004c 	.word	0x2000004c

0800329c <HAL_RCCEx_PeriphCLKConfig>:
 800329c:	6803      	ldr	r3, [r0, #0]
 800329e:	e92d 41f3 	stmdb	sp!, {r0, r1, r4, r5, r6, r7, r8, lr}
 80032a2:	0799      	lsls	r1, r3, #30
 80032a4:	4604      	mov	r4, r0
 80032a6:	d101      	bne.n	80032ac <HAL_RCCEx_PeriphCLKConfig+0x10>
 80032a8:	2000      	movs	r0, #0
 80032aa:	e05b      	b.n	8003364 <HAL_RCCEx_PeriphCLKConfig+0xc8>
 80032ac:	4b4d      	ldr	r3, [pc, #308]	; (80033e4 <HAL_RCCEx_PeriphCLKConfig+0x148>)
 80032ae:	6a5a      	ldr	r2, [r3, #36]	; 0x24
 80032b0:	00d2      	lsls	r2, r2, #3
 80032b2:	d445      	bmi.n	8003340 <HAL_RCCEx_PeriphCLKConfig+0xa4>
 80032b4:	2601      	movs	r6, #1
 80032b6:	6a5a      	ldr	r2, [r3, #36]	; 0x24
 80032b8:	f042 5280 	orr.w	r2, r2, #268435456	; 0x10000000
 80032bc:	625a      	str	r2, [r3, #36]	; 0x24
 80032be:	6a5b      	ldr	r3, [r3, #36]	; 0x24
 80032c0:	f003 5380 	and.w	r3, r3, #268435456	; 0x10000000
 80032c4:	9301      	str	r3, [sp, #4]
 80032c6:	9b01      	ldr	r3, [sp, #4]
 80032c8:	4d47      	ldr	r5, [pc, #284]	; (80033e8 <HAL_RCCEx_PeriphCLKConfig+0x14c>)
 80032ca:	682b      	ldr	r3, [r5, #0]
 80032cc:	05df      	lsls	r7, r3, #23
 80032ce:	d539      	bpl.n	8003344 <HAL_RCCEx_PeriphCLKConfig+0xa8>
 80032d0:	4b44      	ldr	r3, [pc, #272]	; (80033e4 <HAL_RCCEx_PeriphCLKConfig+0x148>)
 80032d2:	6862      	ldr	r2, [r4, #4]
 80032d4:	6819      	ldr	r1, [r3, #0]
 80032d6:	f002 40c0 	and.w	r0, r2, #1610612736	; 0x60000000
 80032da:	f001 41c0 	and.w	r1, r1, #1610612736	; 0x60000000
 80032de:	4288      	cmp	r0, r1
 80032e0:	d104      	bne.n	80032ec <HAL_RCCEx_PeriphCLKConfig+0x50>
 80032e2:	68a1      	ldr	r1, [r4, #8]
 80032e4:	f001 41c0 	and.w	r1, r1, #1610612736	; 0x60000000
 80032e8:	4281      	cmp	r1, r0
 80032ea:	d007      	beq.n	80032fc <HAL_RCCEx_PeriphCLKConfig+0x60>
 80032ec:	f402 3140 	and.w	r1, r2, #196608	; 0x30000
 80032f0:	f5b1 3f40 	cmp.w	r1, #196608	; 0x30000
 80032f4:	d102      	bne.n	80032fc <HAL_RCCEx_PeriphCLKConfig+0x60>
 80032f6:	6819      	ldr	r1, [r3, #0]
 80032f8:	0389      	lsls	r1, r1, #14
 80032fa:	d470      	bmi.n	80033de <HAL_RCCEx_PeriphCLKConfig+0x142>
 80032fc:	6b5b      	ldr	r3, [r3, #52]	; 0x34
 80032fe:	f413 3340 	ands.w	r3, r3, #196608	; 0x30000
 8003302:	d132      	bne.n	800336a <HAL_RCCEx_PeriphCLKConfig+0xce>
 8003304:	6825      	ldr	r5, [r4, #0]
 8003306:	07af      	lsls	r7, r5, #30
 8003308:	d457      	bmi.n	80033ba <HAL_RCCEx_PeriphCLKConfig+0x11e>
 800330a:	07eb      	lsls	r3, r5, #31
 800330c:	d510      	bpl.n	8003330 <HAL_RCCEx_PeriphCLKConfig+0x94>
 800330e:	6860      	ldr	r0, [r4, #4]
 8003310:	4a34      	ldr	r2, [pc, #208]	; (80033e4 <HAL_RCCEx_PeriphCLKConfig+0x148>)
 8003312:	f400 3140 	and.w	r1, r0, #196608	; 0x30000
 8003316:	f5b1 3f40 	cmp.w	r1, #196608	; 0x30000
 800331a:	d106      	bne.n	800332a <HAL_RCCEx_PeriphCLKConfig+0x8e>
 800331c:	6813      	ldr	r3, [r2, #0]
 800331e:	f000 40c0 	and.w	r0, r0, #1610612736	; 0x60000000
 8003322:	f023 43c0 	bic.w	r3, r3, #1610612736	; 0x60000000
 8003326:	4303      	orrs	r3, r0
 8003328:	6013      	str	r3, [r2, #0]
 800332a:	6b53      	ldr	r3, [r2, #52]	; 0x34
 800332c:	4319      	orrs	r1, r3
 800332e:	6351      	str	r1, [r2, #52]	; 0x34
 8003330:	2e00      	cmp	r6, #0
 8003332:	d0b9      	beq.n	80032a8 <HAL_RCCEx_PeriphCLKConfig+0xc>
 8003334:	4a2b      	ldr	r2, [pc, #172]	; (80033e4 <HAL_RCCEx_PeriphCLKConfig+0x148>)
 8003336:	6a53      	ldr	r3, [r2, #36]	; 0x24
 8003338:	f023 5380 	bic.w	r3, r3, #268435456	; 0x10000000
 800333c:	6253      	str	r3, [r2, #36]	; 0x24
 800333e:	e7b3      	b.n	80032a8 <HAL_RCCEx_PeriphCLKConfig+0xc>
 8003340:	2600      	movs	r6, #0
 8003342:	e7c1      	b.n	80032c8 <HAL_RCCEx_PeriphCLKConfig+0x2c>
 8003344:	682b      	ldr	r3, [r5, #0]
 8003346:	f443 7380 	orr.w	r3, r3, #256	; 0x100
 800334a:	602b      	str	r3, [r5, #0]
 800334c:	f7fe f962 	bl	8001614 <HAL_GetTick>
 8003350:	4607      	mov	r7, r0
 8003352:	682b      	ldr	r3, [r5, #0]
 8003354:	05d8      	lsls	r0, r3, #23
 8003356:	d4bb      	bmi.n	80032d0 <HAL_RCCEx_PeriphCLKConfig+0x34>
 8003358:	f7fe f95c 	bl	8001614 <HAL_GetTick>
 800335c:	1bc0      	subs	r0, r0, r7
 800335e:	2864      	cmp	r0, #100	; 0x64
 8003360:	d9f7      	bls.n	8003352 <HAL_RCCEx_PeriphCLKConfig+0xb6>
 8003362:	2003      	movs	r0, #3
 8003364:	b002      	add	sp, #8
 8003366:	e8bd 81f0 	ldmia.w	sp!, {r4, r5, r6, r7, r8, pc}
 800336a:	f402 3240 	and.w	r2, r2, #196608	; 0x30000
 800336e:	429a      	cmp	r2, r3
 8003370:	6821      	ldr	r1, [r4, #0]
 8003372:	d001      	beq.n	8003378 <HAL_RCCEx_PeriphCLKConfig+0xdc>
 8003374:	07cd      	lsls	r5, r1, #31
 8003376:	d406      	bmi.n	8003386 <HAL_RCCEx_PeriphCLKConfig+0xea>
 8003378:	68a2      	ldr	r2, [r4, #8]
 800337a:	f402 3240 	and.w	r2, r2, #196608	; 0x30000
 800337e:	429a      	cmp	r2, r3
 8003380:	d0c0      	beq.n	8003304 <HAL_RCCEx_PeriphCLKConfig+0x68>
 8003382:	0788      	lsls	r0, r1, #30
 8003384:	d5be      	bpl.n	8003304 <HAL_RCCEx_PeriphCLKConfig+0x68>
 8003386:	2001      	movs	r0, #1
 8003388:	4d16      	ldr	r5, [pc, #88]	; (80033e4 <HAL_RCCEx_PeriphCLKConfig+0x148>)
 800338a:	4a18      	ldr	r2, [pc, #96]	; (80033ec <HAL_RCCEx_PeriphCLKConfig+0x150>)
 800338c:	6b6b      	ldr	r3, [r5, #52]	; 0x34
 800338e:	6010      	str	r0, [r2, #0]
 8003390:	2000      	movs	r0, #0
 8003392:	f423 3140 	bic.w	r1, r3, #196608	; 0x30000
 8003396:	6010      	str	r0, [r2, #0]
 8003398:	6369      	str	r1, [r5, #52]	; 0x34
 800339a:	05d9      	lsls	r1, r3, #23
 800339c:	d5b2      	bpl.n	8003304 <HAL_RCCEx_PeriphCLKConfig+0x68>
 800339e:	f7fe f939 	bl	8001614 <HAL_GetTick>
 80033a2:	f241 3888 	movw	r8, #5000	; 0x1388
 80033a6:	4607      	mov	r7, r0
 80033a8:	6b6b      	ldr	r3, [r5, #52]	; 0x34
 80033aa:	059a      	lsls	r2, r3, #22
 80033ac:	d4aa      	bmi.n	8003304 <HAL_RCCEx_PeriphCLKConfig+0x68>
 80033ae:	f7fe f931 	bl	8001614 <HAL_GetTick>
 80033b2:	1bc0      	subs	r0, r0, r7
 80033b4:	4540      	cmp	r0, r8
 80033b6:	d9f7      	bls.n	80033a8 <HAL_RCCEx_PeriphCLKConfig+0x10c>
 80033b8:	e7d3      	b.n	8003362 <HAL_RCCEx_PeriphCLKConfig+0xc6>
 80033ba:	68a0      	ldr	r0, [r4, #8]
 80033bc:	4a09      	ldr	r2, [pc, #36]	; (80033e4 <HAL_RCCEx_PeriphCLKConfig+0x148>)
 80033be:	f400 3140 	and.w	r1, r0, #196608	; 0x30000
 80033c2:	f5b1 3f40 	cmp.w	r1, #196608	; 0x30000
 80033c6:	d106      	bne.n	80033d6 <HAL_RCCEx_PeriphCLKConfig+0x13a>
 80033c8:	6813      	ldr	r3, [r2, #0]
 80033ca:	f000 40c0 	and.w	r0, r0, #1610612736	; 0x60000000
 80033ce:	f023 43c0 	bic.w	r3, r3, #1610612736	; 0x60000000
 80033d2:	4303      	orrs	r3, r0
 80033d4:	6013      	str	r3, [r2, #0]
 80033d6:	6b53      	ldr	r3, [r2, #52]	; 0x34
 80033d8:	4319      	orrs	r1, r3
 80033da:	6351      	str	r1, [r2, #52]	; 0x34
 80033dc:	e795      	b.n	800330a <HAL_RCCEx_PeriphCLKConfig+0x6e>
 80033de:	2001      	movs	r0, #1
 80033e0:	e7c0      	b.n	8003364 <HAL_RCCEx_PeriphCLKConfig+0xc8>
 80033e2:	bf00      	nop
 80033e4:	40023800 	.word	0x40023800
 80033e8:	40007000 	.word	0x40007000
 80033ec:	424706dc 	.word	0x424706dc

080033f0 <HAL_RTC_AlarmAEventCallback>:
 80033f0:	4770      	bx	lr
	...

080033f4 <HAL_RTC_AlarmIRQHandler>:
 80033f4:	6803      	ldr	r3, [r0, #0]
 80033f6:	b510      	push	{r4, lr}
 80033f8:	689a      	ldr	r2, [r3, #8]
 80033fa:	4604      	mov	r4, r0
 80033fc:	04d2      	lsls	r2, r2, #19
 80033fe:	d50a      	bpl.n	8003416 <HAL_RTC_AlarmIRQHandler+0x22>
 8003400:	68db      	ldr	r3, [r3, #12]
 8003402:	05d9      	lsls	r1, r3, #23
 8003404:	d507      	bpl.n	8003416 <HAL_RTC_AlarmIRQHandler+0x22>
 8003406:	f7ff fff3 	bl	80033f0 <HAL_RTC_AlarmAEventCallback>
 800340a:	6822      	ldr	r2, [r4, #0]
 800340c:	68d3      	ldr	r3, [r2, #12]
 800340e:	b2db      	uxtb	r3, r3
 8003410:	f463 73c0 	orn	r3, r3, #384	; 0x180
 8003414:	60d3      	str	r3, [r2, #12]
 8003416:	6823      	ldr	r3, [r4, #0]
 8003418:	689a      	ldr	r2, [r3, #8]
 800341a:	0492      	lsls	r2, r2, #18
 800341c:	d50b      	bpl.n	8003436 <HAL_RTC_AlarmIRQHandler+0x42>
 800341e:	68db      	ldr	r3, [r3, #12]
 8003420:	059b      	lsls	r3, r3, #22
 8003422:	d508      	bpl.n	8003436 <HAL_RTC_AlarmIRQHandler+0x42>
 8003424:	4620      	mov	r0, r4
 8003426:	f000 fa41 	bl	80038ac <HAL_RTCEx_AlarmBEventCallback>
 800342a:	6822      	ldr	r2, [r4, #0]
 800342c:	68d3      	ldr	r3, [r2, #12]
 800342e:	b2db      	uxtb	r3, r3
 8003430:	f463 7320 	orn	r3, r3, #640	; 0x280
 8003434:	60d3      	str	r3, [r2, #12]
 8003436:	f44f 3200 	mov.w	r2, #131072	; 0x20000
 800343a:	4b02      	ldr	r3, [pc, #8]	; (8003444 <HAL_RTC_AlarmIRQHandler+0x50>)
 800343c:	615a      	str	r2, [r3, #20]
 800343e:	2301      	movs	r3, #1
 8003440:	7763      	strb	r3, [r4, #29]
 8003442:	bd10      	pop	{r4, pc}
 8003444:	40010400 	.word	0x40010400

08003448 <HAL_RTC_WaitForSynchro>:
 8003448:	6802      	ldr	r2, [r0, #0]
 800344a:	b538      	push	{r3, r4, r5, lr}
 800344c:	68d3      	ldr	r3, [r2, #12]
 800344e:	4604      	mov	r4, r0
 8003450:	f023 03a0 	bic.w	r3, r3, #160	; 0xa0
 8003454:	60d3      	str	r3, [r2, #12]
 8003456:	f7fe f8dd 	bl	8001614 <HAL_GetTick>
 800345a:	4605      	mov	r5, r0
 800345c:	6823      	ldr	r3, [r4, #0]
 800345e:	68db      	ldr	r3, [r3, #12]
 8003460:	069b      	lsls	r3, r3, #26
 8003462:	d501      	bpl.n	8003468 <HAL_RTC_WaitForSynchro+0x20>
 8003464:	2000      	movs	r0, #0
 8003466:	bd38      	pop	{r3, r4, r5, pc}
 8003468:	f7fe f8d4 	bl	8001614 <HAL_GetTick>
 800346c:	1b40      	subs	r0, r0, r5
 800346e:	f5b0 7f7a 	cmp.w	r0, #1000	; 0x3e8
 8003472:	d9f3      	bls.n	800345c <HAL_RTC_WaitForSynchro+0x14>
 8003474:	2003      	movs	r0, #3
 8003476:	e7f6      	b.n	8003466 <HAL_RTC_WaitForSynchro+0x1e>

08003478 <RTC_EnterInitMode>:
 8003478:	b538      	push	{r3, r4, r5, lr}
 800347a:	6803      	ldr	r3, [r0, #0]
 800347c:	4604      	mov	r4, r0
 800347e:	68da      	ldr	r2, [r3, #12]
 8003480:	0652      	lsls	r2, r2, #25
 8003482:	d501      	bpl.n	8003488 <RTC_EnterInitMode+0x10>
 8003484:	2000      	movs	r0, #0
 8003486:	bd38      	pop	{r3, r4, r5, pc}
 8003488:	f04f 32ff 	mov.w	r2, #4294967295
 800348c:	60da      	str	r2, [r3, #12]
 800348e:	f7fe f8c1 	bl	8001614 <HAL_GetTick>
 8003492:	4605      	mov	r5, r0
 8003494:	6823      	ldr	r3, [r4, #0]
 8003496:	68db      	ldr	r3, [r3, #12]
 8003498:	065b      	lsls	r3, r3, #25
 800349a:	d4f3      	bmi.n	8003484 <RTC_EnterInitMode+0xc>
 800349c:	f7fe f8ba 	bl	8001614 <HAL_GetTick>
 80034a0:	1b40      	subs	r0, r0, r5
 80034a2:	f5b0 7f7a 	cmp.w	r0, #1000	; 0x3e8
 80034a6:	d9f5      	bls.n	8003494 <RTC_EnterInitMode+0x1c>
 80034a8:	2003      	movs	r0, #3
 80034aa:	e7ec      	b.n	8003486 <RTC_EnterInitMode+0xe>

080034ac <HAL_RTC_Init>:
 80034ac:	b510      	push	{r4, lr}
 80034ae:	4604      	mov	r4, r0
 80034b0:	b1b0      	cbz	r0, 80034e0 <HAL_RTC_Init+0x34>
 80034b2:	7f43      	ldrb	r3, [r0, #29]
 80034b4:	f003 02ff 	and.w	r2, r3, #255	; 0xff
 80034b8:	b913      	cbnz	r3, 80034c0 <HAL_RTC_Init+0x14>
 80034ba:	7702      	strb	r2, [r0, #28]
 80034bc:	f7fd ff54 	bl	8001368 <HAL_RTC_MspInit>
 80034c0:	2302      	movs	r3, #2
 80034c2:	22ca      	movs	r2, #202	; 0xca
 80034c4:	7763      	strb	r3, [r4, #29]
 80034c6:	6823      	ldr	r3, [r4, #0]
 80034c8:	4620      	mov	r0, r4
 80034ca:	625a      	str	r2, [r3, #36]	; 0x24
 80034cc:	2253      	movs	r2, #83	; 0x53
 80034ce:	625a      	str	r2, [r3, #36]	; 0x24
 80034d0:	f7ff ffd2 	bl	8003478 <RTC_EnterInitMode>
 80034d4:	6823      	ldr	r3, [r4, #0]
 80034d6:	b128      	cbz	r0, 80034e4 <HAL_RTC_Init+0x38>
 80034d8:	22ff      	movs	r2, #255	; 0xff
 80034da:	625a      	str	r2, [r3, #36]	; 0x24
 80034dc:	2304      	movs	r3, #4
 80034de:	7763      	strb	r3, [r4, #29]
 80034e0:	2001      	movs	r0, #1
 80034e2:	e02a      	b.n	800353a <HAL_RTC_Init+0x8e>
 80034e4:	689a      	ldr	r2, [r3, #8]
 80034e6:	6920      	ldr	r0, [r4, #16]
 80034e8:	f422 02e0 	bic.w	r2, r2, #7340032	; 0x700000
 80034ec:	f022 0240 	bic.w	r2, r2, #64	; 0x40
 80034f0:	609a      	str	r2, [r3, #8]
 80034f2:	6862      	ldr	r2, [r4, #4]
 80034f4:	6899      	ldr	r1, [r3, #8]
 80034f6:	4302      	orrs	r2, r0
 80034f8:	6960      	ldr	r0, [r4, #20]
 80034fa:	4302      	orrs	r2, r0
 80034fc:	430a      	orrs	r2, r1
 80034fe:	609a      	str	r2, [r3, #8]
 8003500:	68e2      	ldr	r2, [r4, #12]
 8003502:	68a1      	ldr	r1, [r4, #8]
 8003504:	611a      	str	r2, [r3, #16]
 8003506:	691a      	ldr	r2, [r3, #16]
 8003508:	4620      	mov	r0, r4
 800350a:	ea42 4201 	orr.w	r2, r2, r1, lsl #16
 800350e:	611a      	str	r2, [r3, #16]
 8003510:	68da      	ldr	r2, [r3, #12]
 8003512:	f022 0280 	bic.w	r2, r2, #128	; 0x80
 8003516:	60da      	str	r2, [r3, #12]
 8003518:	f7ff ff96 	bl	8003448 <HAL_RTC_WaitForSynchro>
 800351c:	6823      	ldr	r3, [r4, #0]
 800351e:	2800      	cmp	r0, #0
 8003520:	d1da      	bne.n	80034d8 <HAL_RTC_Init+0x2c>
 8003522:	6c1a      	ldr	r2, [r3, #64]	; 0x40
 8003524:	69a1      	ldr	r1, [r4, #24]
 8003526:	f422 2280 	bic.w	r2, r2, #262144	; 0x40000
 800352a:	641a      	str	r2, [r3, #64]	; 0x40
 800352c:	6c1a      	ldr	r2, [r3, #64]	; 0x40
 800352e:	430a      	orrs	r2, r1
 8003530:	641a      	str	r2, [r3, #64]	; 0x40
 8003532:	22ff      	movs	r2, #255	; 0xff
 8003534:	625a      	str	r2, [r3, #36]	; 0x24
 8003536:	2301      	movs	r3, #1
 8003538:	7763      	strb	r3, [r4, #29]
 800353a:	bd10      	pop	{r4, pc}

0800353c <RTC_ByteToBcd2>:
 800353c:	2300      	movs	r3, #0
 800353e:	2809      	cmp	r0, #9
 8003540:	d803      	bhi.n	800354a <RTC_ByteToBcd2+0xe>
 8003542:	ea40 1003 	orr.w	r0, r0, r3, lsl #4
 8003546:	b2c0      	uxtb	r0, r0
 8003548:	4770      	bx	lr
 800354a:	380a      	subs	r0, #10
 800354c:	3301      	adds	r3, #1
 800354e:	b2c0      	uxtb	r0, r0
 8003550:	e7f5      	b.n	800353e <RTC_ByteToBcd2+0x2>

08003552 <HAL_RTC_SetTime>:
 8003552:	b5f8      	push	{r3, r4, r5, r6, r7, lr}
 8003554:	7f03      	ldrb	r3, [r0, #28]
 8003556:	4605      	mov	r5, r0
 8003558:	2b01      	cmp	r3, #1
 800355a:	460e      	mov	r6, r1
 800355c:	f04f 0002 	mov.w	r0, #2
 8003560:	d02e      	beq.n	80035c0 <HAL_RTC_SetTime+0x6e>
 8003562:	2301      	movs	r3, #1
 8003564:	7768      	strb	r0, [r5, #29]
 8003566:	772b      	strb	r3, [r5, #28]
 8003568:	6829      	ldr	r1, [r5, #0]
 800356a:	7830      	ldrb	r0, [r6, #0]
 800356c:	7874      	ldrb	r4, [r6, #1]
 800356e:	78b7      	ldrb	r7, [r6, #2]
 8003570:	bb3a      	cbnz	r2, 80035c2 <HAL_RTC_SetTime+0x70>
 8003572:	688a      	ldr	r2, [r1, #8]
 8003574:	f012 0240 	ands.w	r2, r2, #64	; 0x40
 8003578:	bf08      	it	eq
 800357a:	70f2      	strbeq	r2, [r6, #3]
 800357c:	f7ff ffde 	bl	800353c <RTC_ByteToBcd2>
 8003580:	4602      	mov	r2, r0
 8003582:	4620      	mov	r0, r4
 8003584:	f7ff ffda 	bl	800353c <RTC_ByteToBcd2>
 8003588:	4604      	mov	r4, r0
 800358a:	4638      	mov	r0, r7
 800358c:	f7ff ffd6 	bl	800353c <RTC_ByteToBcd2>
 8003590:	78f3      	ldrb	r3, [r6, #3]
 8003592:	ea40 4303 	orr.w	r3, r0, r3, lsl #16
 8003596:	ea43 4302 	orr.w	r3, r3, r2, lsl #16
 800359a:	ea43 2404 	orr.w	r4, r3, r4, lsl #8
 800359e:	23ca      	movs	r3, #202	; 0xca
 80035a0:	624b      	str	r3, [r1, #36]	; 0x24
 80035a2:	2353      	movs	r3, #83	; 0x53
 80035a4:	4628      	mov	r0, r5
 80035a6:	624b      	str	r3, [r1, #36]	; 0x24
 80035a8:	f7ff ff66 	bl	8003478 <RTC_EnterInitMode>
 80035ac:	682a      	ldr	r2, [r5, #0]
 80035ae:	4607      	mov	r7, r0
 80035b0:	b1a0      	cbz	r0, 80035dc <HAL_RTC_SetTime+0x8a>
 80035b2:	23ff      	movs	r3, #255	; 0xff
 80035b4:	6253      	str	r3, [r2, #36]	; 0x24
 80035b6:	2304      	movs	r3, #4
 80035b8:	776b      	strb	r3, [r5, #29]
 80035ba:	2300      	movs	r3, #0
 80035bc:	772b      	strb	r3, [r5, #28]
 80035be:	2001      	movs	r0, #1
 80035c0:	bdf8      	pop	{r3, r4, r5, r6, r7, pc}
 80035c2:	688a      	ldr	r2, [r1, #8]
 80035c4:	0224      	lsls	r4, r4, #8
 80035c6:	f012 0240 	ands.w	r2, r2, #64	; 0x40
 80035ca:	bf08      	it	eq
 80035cc:	70f2      	strbeq	r2, [r6, #3]
 80035ce:	78f3      	ldrb	r3, [r6, #3]
 80035d0:	ea44 4400 	orr.w	r4, r4, r0, lsl #16
 80035d4:	433c      	orrs	r4, r7
 80035d6:	ea44 4403 	orr.w	r4, r4, r3, lsl #16
 80035da:	e7e0      	b.n	800359e <HAL_RTC_SetTime+0x4c>
 80035dc:	f004 347f 	and.w	r4, r4, #2139062143	; 0x7f7f7f7f
 80035e0:	f024 44fe 	bic.w	r4, r4, #2130706432	; 0x7f000000
 80035e4:	6014      	str	r4, [r2, #0]
 80035e6:	6893      	ldr	r3, [r2, #8]
 80035e8:	f423 2380 	bic.w	r3, r3, #262144	; 0x40000
 80035ec:	6093      	str	r3, [r2, #8]
 80035ee:	6891      	ldr	r1, [r2, #8]
 80035f0:	e9d6 3001 	ldrd	r3, r0, [r6, #4]
 80035f4:	4303      	orrs	r3, r0
 80035f6:	430b      	orrs	r3, r1
 80035f8:	6093      	str	r3, [r2, #8]
 80035fa:	68d3      	ldr	r3, [r2, #12]
 80035fc:	4628      	mov	r0, r5
 80035fe:	f023 0380 	bic.w	r3, r3, #128	; 0x80
 8003602:	60d3      	str	r3, [r2, #12]
 8003604:	f7ff ff20 	bl	8003448 <HAL_RTC_WaitForSynchro>
 8003608:	22ff      	movs	r2, #255	; 0xff
 800360a:	682b      	ldr	r3, [r5, #0]
 800360c:	625a      	str	r2, [r3, #36]	; 0x24
 800360e:	b118      	cbz	r0, 8003618 <HAL_RTC_SetTime+0xc6>
 8003610:	2304      	movs	r3, #4
 8003612:	772f      	strb	r7, [r5, #28]
 8003614:	776b      	strb	r3, [r5, #29]
 8003616:	e7d2      	b.n	80035be <HAL_RTC_SetTime+0x6c>
 8003618:	2301      	movs	r3, #1
 800361a:	7728      	strb	r0, [r5, #28]
 800361c:	776b      	strb	r3, [r5, #29]
 800361e:	e7cf      	b.n	80035c0 <HAL_RTC_SetTime+0x6e>

08003620 <HAL_RTC_SetDate>:
 8003620:	b5f8      	push	{r3, r4, r5, r6, r7, lr}
 8003622:	7f03      	ldrb	r3, [r0, #28]
 8003624:	4604      	mov	r4, r0
 8003626:	2b01      	cmp	r3, #1
 8003628:	f04f 0002 	mov.w	r0, #2
 800362c:	d030      	beq.n	8003690 <HAL_RTC_SetDate+0x70>
 800362e:	2301      	movs	r3, #1
 8003630:	7760      	strb	r0, [r4, #29]
 8003632:	7723      	strb	r3, [r4, #28]
 8003634:	780d      	ldrb	r5, [r1, #0]
 8003636:	78c8      	ldrb	r0, [r1, #3]
 8003638:	784b      	ldrb	r3, [r1, #1]
 800363a:	788f      	ldrb	r7, [r1, #2]
 800363c:	036d      	lsls	r5, r5, #13
 800363e:	2a00      	cmp	r2, #0
 8003640:	d13f      	bne.n	80036c2 <HAL_RTC_SetDate+0xa2>
 8003642:	06da      	lsls	r2, r3, #27
 8003644:	d503      	bpl.n	800364e <HAL_RTC_SetDate+0x2e>
 8003646:	f023 0310 	bic.w	r3, r3, #16
 800364a:	330a      	adds	r3, #10
 800364c:	704b      	strb	r3, [r1, #1]
 800364e:	f7ff ff75 	bl	800353c <RTC_ByteToBcd2>
 8003652:	4606      	mov	r6, r0
 8003654:	7848      	ldrb	r0, [r1, #1]
 8003656:	f7ff ff71 	bl	800353c <RTC_ByteToBcd2>
 800365a:	4602      	mov	r2, r0
 800365c:	4638      	mov	r0, r7
 800365e:	f7ff ff6d 	bl	800353c <RTC_ByteToBcd2>
 8003662:	4305      	orrs	r5, r0
 8003664:	ea45 4306 	orr.w	r3, r5, r6, lsl #16
 8003668:	ea43 2502 	orr.w	r5, r3, r2, lsl #8
 800366c:	22ca      	movs	r2, #202	; 0xca
 800366e:	6823      	ldr	r3, [r4, #0]
 8003670:	4620      	mov	r0, r4
 8003672:	625a      	str	r2, [r3, #36]	; 0x24
 8003674:	2253      	movs	r2, #83	; 0x53
 8003676:	625a      	str	r2, [r3, #36]	; 0x24
 8003678:	f7ff fefe 	bl	8003478 <RTC_EnterInitMode>
 800367c:	6822      	ldr	r2, [r4, #0]
 800367e:	4606      	mov	r6, r0
 8003680:	b138      	cbz	r0, 8003692 <HAL_RTC_SetDate+0x72>
 8003682:	23ff      	movs	r3, #255	; 0xff
 8003684:	6253      	str	r3, [r2, #36]	; 0x24
 8003686:	2304      	movs	r3, #4
 8003688:	7763      	strb	r3, [r4, #29]
 800368a:	2300      	movs	r3, #0
 800368c:	7723      	strb	r3, [r4, #28]
 800368e:	2001      	movs	r0, #1
 8003690:	bdf8      	pop	{r3, r4, r5, r6, r7, pc}
 8003692:	f025 457f 	bic.w	r5, r5, #4278190080	; 0xff000000
 8003696:	f025 05c0 	bic.w	r5, r5, #192	; 0xc0
 800369a:	6055      	str	r5, [r2, #4]
 800369c:	68d3      	ldr	r3, [r2, #12]
 800369e:	4620      	mov	r0, r4
 80036a0:	f023 0380 	bic.w	r3, r3, #128	; 0x80
 80036a4:	60d3      	str	r3, [r2, #12]
 80036a6:	f7ff fecf 	bl	8003448 <HAL_RTC_WaitForSynchro>
 80036aa:	22ff      	movs	r2, #255	; 0xff
 80036ac:	6823      	ldr	r3, [r4, #0]
 80036ae:	625a      	str	r2, [r3, #36]	; 0x24
 80036b0:	b118      	cbz	r0, 80036ba <HAL_RTC_SetDate+0x9a>
 80036b2:	2304      	movs	r3, #4
 80036b4:	7726      	strb	r6, [r4, #28]
 80036b6:	7763      	strb	r3, [r4, #29]
 80036b8:	e7e9      	b.n	800368e <HAL_RTC_SetDate+0x6e>
 80036ba:	2301      	movs	r3, #1
 80036bc:	7720      	strb	r0, [r4, #28]
 80036be:	7763      	strb	r3, [r4, #29]
 80036c0:	e7e6      	b.n	8003690 <HAL_RTC_SetDate+0x70>
 80036c2:	ea45 4500 	orr.w	r5, r5, r0, lsl #16
 80036c6:	433d      	orrs	r5, r7
 80036c8:	ea45 2503 	orr.w	r5, r5, r3, lsl #8
 80036cc:	e7ce      	b.n	800366c <HAL_RTC_SetDate+0x4c>
	...

080036d0 <HAL_RTC_SetAlarm_IT>:
 80036d0:	e92d 4ff8 	stmdb	sp!, {r3, r4, r5, r6, r7, r8, r9, sl, fp, lr}
 80036d4:	7f03      	ldrb	r3, [r0, #28]
 80036d6:	4604      	mov	r4, r0
 80036d8:	2b01      	cmp	r3, #1
 80036da:	f04f 0002 	mov.w	r0, #2
 80036de:	d07d      	beq.n	80037dc <HAL_RTC_SetAlarm_IT+0x10c>
 80036e0:	2301      	movs	r3, #1
 80036e2:	6827      	ldr	r7, [r4, #0]
 80036e4:	7723      	strb	r3, [r4, #28]
 80036e6:	7760      	strb	r0, [r4, #29]
 80036e8:	7808      	ldrb	r0, [r1, #0]
 80036ea:	f891 a001 	ldrb.w	sl, [r1, #1]
 80036ee:	f891 b002 	ldrb.w	fp, [r1, #2]
 80036f2:	f891 8014 	ldrb.w	r8, [r1, #20]
 80036f6:	690e      	ldr	r6, [r1, #16]
 80036f8:	68bb      	ldr	r3, [r7, #8]
 80036fa:	2a00      	cmp	r2, #0
 80036fc:	d150      	bne.n	80037a0 <HAL_RTC_SetAlarm_IT+0xd0>
 80036fe:	f013 0340 	ands.w	r3, r3, #64	; 0x40
 8003702:	bf08      	it	eq
 8003704:	70cb      	strbeq	r3, [r1, #3]
 8003706:	f7ff ff19 	bl	800353c <RTC_ByteToBcd2>
 800370a:	4681      	mov	r9, r0
 800370c:	4650      	mov	r0, sl
 800370e:	f7ff ff15 	bl	800353c <RTC_ByteToBcd2>
 8003712:	4602      	mov	r2, r0
 8003714:	4658      	mov	r0, fp
 8003716:	f7ff ff11 	bl	800353c <RTC_ByteToBcd2>
 800371a:	4605      	mov	r5, r0
 800371c:	4640      	mov	r0, r8
 800371e:	f7ff ff0d 	bl	800353c <RTC_ByteToBcd2>
 8003722:	68cb      	ldr	r3, [r1, #12]
 8003724:	431e      	orrs	r6, r3
 8003726:	78cb      	ldrb	r3, [r1, #3]
 8003728:	ea46 4603 	orr.w	r6, r6, r3, lsl #16
 800372c:	4335      	orrs	r5, r6
 800372e:	ea45 4509 	orr.w	r5, r5, r9, lsl #16
 8003732:	ea45 2502 	orr.w	r5, r5, r2, lsl #8
 8003736:	ea45 6500 	orr.w	r5, r5, r0, lsl #24
 800373a:	23ca      	movs	r3, #202	; 0xca
 800373c:	627b      	str	r3, [r7, #36]	; 0x24
 800373e:	2353      	movs	r3, #83	; 0x53
 8003740:	627b      	str	r3, [r7, #36]	; 0x24
 8003742:	698b      	ldr	r3, [r1, #24]
 8003744:	f5b3 7f80 	cmp.w	r3, #256	; 0x100
 8003748:	68bb      	ldr	r3, [r7, #8]
 800374a:	d149      	bne.n	80037e0 <HAL_RTC_SetAlarm_IT+0x110>
 800374c:	f423 7380 	bic.w	r3, r3, #256	; 0x100
 8003750:	60bb      	str	r3, [r7, #8]
 8003752:	68fb      	ldr	r3, [r7, #12]
 8003754:	b2db      	uxtb	r3, r3
 8003756:	f463 73c0 	orn	r3, r3, #384	; 0x180
 800375a:	60fb      	str	r3, [r7, #12]
 800375c:	f7fd ff5a 	bl	8001614 <HAL_GetTick>
 8003760:	4607      	mov	r7, r0
 8003762:	6823      	ldr	r3, [r4, #0]
 8003764:	68de      	ldr	r6, [r3, #12]
 8003766:	f016 0601 	ands.w	r6, r6, #1
 800376a:	d02b      	beq.n	80037c4 <HAL_RTC_SetAlarm_IT+0xf4>
 800376c:	61dd      	str	r5, [r3, #28]
 800376e:	689a      	ldr	r2, [r3, #8]
 8003770:	f442 7280 	orr.w	r2, r2, #256	; 0x100
 8003774:	609a      	str	r2, [r3, #8]
 8003776:	689a      	ldr	r2, [r3, #8]
 8003778:	f442 5280 	orr.w	r2, r2, #4096	; 0x1000
 800377c:	609a      	str	r2, [r3, #8]
 800377e:	4b28      	ldr	r3, [pc, #160]	; (8003820 <HAL_RTC_SetAlarm_IT+0x150>)
 8003780:	2000      	movs	r0, #0
 8003782:	681a      	ldr	r2, [r3, #0]
 8003784:	f442 3200 	orr.w	r2, r2, #131072	; 0x20000
 8003788:	601a      	str	r2, [r3, #0]
 800378a:	689a      	ldr	r2, [r3, #8]
 800378c:	f442 3200 	orr.w	r2, r2, #131072	; 0x20000
 8003790:	609a      	str	r2, [r3, #8]
 8003792:	22ff      	movs	r2, #255	; 0xff
 8003794:	6823      	ldr	r3, [r4, #0]
 8003796:	625a      	str	r2, [r3, #36]	; 0x24
 8003798:	2301      	movs	r3, #1
 800379a:	7720      	strb	r0, [r4, #28]
 800379c:	7763      	strb	r3, [r4, #29]
 800379e:	e01d      	b.n	80037dc <HAL_RTC_SetAlarm_IT+0x10c>
 80037a0:	f013 0340 	ands.w	r3, r3, #64	; 0x40
 80037a4:	bf08      	it	eq
 80037a6:	70cb      	strbeq	r3, [r1, #3]
 80037a8:	68cb      	ldr	r3, [r1, #12]
 80037aa:	431e      	orrs	r6, r3
 80037ac:	ea46 060b 	orr.w	r6, r6, fp
 80037b0:	ea46 4500 	orr.w	r5, r6, r0, lsl #16
 80037b4:	78c8      	ldrb	r0, [r1, #3]
 80037b6:	ea45 250a 	orr.w	r5, r5, sl, lsl #8
 80037ba:	ea45 4500 	orr.w	r5, r5, r0, lsl #16
 80037be:	ea45 6508 	orr.w	r5, r5, r8, lsl #24
 80037c2:	e7ba      	b.n	800373a <HAL_RTC_SetAlarm_IT+0x6a>
 80037c4:	f7fd ff26 	bl	8001614 <HAL_GetTick>
 80037c8:	1bc0      	subs	r0, r0, r7
 80037ca:	f5b0 7f7a 	cmp.w	r0, #1000	; 0x3e8
 80037ce:	d9c8      	bls.n	8003762 <HAL_RTC_SetAlarm_IT+0x92>
 80037d0:	22ff      	movs	r2, #255	; 0xff
 80037d2:	2003      	movs	r0, #3
 80037d4:	6823      	ldr	r3, [r4, #0]
 80037d6:	625a      	str	r2, [r3, #36]	; 0x24
 80037d8:	7760      	strb	r0, [r4, #29]
 80037da:	7726      	strb	r6, [r4, #28]
 80037dc:	e8bd 8ff8 	ldmia.w	sp!, {r3, r4, r5, r6, r7, r8, r9, sl, fp, pc}
 80037e0:	f423 7300 	bic.w	r3, r3, #512	; 0x200
 80037e4:	60bb      	str	r3, [r7, #8]
 80037e6:	68fb      	ldr	r3, [r7, #12]
 80037e8:	b2db      	uxtb	r3, r3
 80037ea:	f463 7320 	orn	r3, r3, #640	; 0x280
 80037ee:	60fb      	str	r3, [r7, #12]
 80037f0:	f7fd ff10 	bl	8001614 <HAL_GetTick>
 80037f4:	4607      	mov	r7, r0
 80037f6:	6823      	ldr	r3, [r4, #0]
 80037f8:	68de      	ldr	r6, [r3, #12]
 80037fa:	f016 0602 	ands.w	r6, r6, #2
 80037fe:	d008      	beq.n	8003812 <HAL_RTC_SetAlarm_IT+0x142>
 8003800:	621d      	str	r5, [r3, #32]
 8003802:	689a      	ldr	r2, [r3, #8]
 8003804:	f442 7200 	orr.w	r2, r2, #512	; 0x200
 8003808:	609a      	str	r2, [r3, #8]
 800380a:	689a      	ldr	r2, [r3, #8]
 800380c:	f442 5200 	orr.w	r2, r2, #8192	; 0x2000
 8003810:	e7b4      	b.n	800377c <HAL_RTC_SetAlarm_IT+0xac>
 8003812:	f7fd feff 	bl	8001614 <HAL_GetTick>
 8003816:	1bc0      	subs	r0, r0, r7
 8003818:	f5b0 7f7a 	cmp.w	r0, #1000	; 0x3e8
 800381c:	d9eb      	bls.n	80037f6 <HAL_RTC_SetAlarm_IT+0x126>
 800381e:	e7d7      	b.n	80037d0 <HAL_RTC_SetAlarm_IT+0x100>
 8003820:	40010400 	.word	0x40010400

08003824 <RTC_Bcd2ToByte>:
 8003824:	220a      	movs	r2, #10
 8003826:	0903      	lsrs	r3, r0, #4
 8003828:	f000 000f 	and.w	r0, r0, #15
 800382c:	fb02 0003 	mla	r0, r2, r3, r0
 8003830:	b2c0      	uxtb	r0, r0
 8003832:	4770      	bx	lr

08003834 <HAL_RTC_GetTime>:
 8003834:	6803      	ldr	r3, [r0, #0]
 8003836:	b570      	push	{r4, r5, r6, lr}
 8003838:	681c      	ldr	r4, [r3, #0]
 800383a:	f3c4 4506 	ubfx	r5, r4, #16, #7
 800383e:	f3c4 4005 	ubfx	r0, r4, #16, #6
 8003842:	f3c4 2606 	ubfx	r6, r4, #8, #7
 8003846:	f005 0340 	and.w	r3, r5, #64	; 0x40
 800384a:	f004 047f 	and.w	r4, r4, #127	; 0x7f
 800384e:	7008      	strb	r0, [r1, #0]
 8003850:	704e      	strb	r6, [r1, #1]
 8003852:	708c      	strb	r4, [r1, #2]
 8003854:	70cb      	strb	r3, [r1, #3]
 8003856:	b952      	cbnz	r2, 800386e <HAL_RTC_GetTime+0x3a>
 8003858:	f7ff ffe4 	bl	8003824 <RTC_Bcd2ToByte>
 800385c:	7008      	strb	r0, [r1, #0]
 800385e:	4630      	mov	r0, r6
 8003860:	f7ff ffe0 	bl	8003824 <RTC_Bcd2ToByte>
 8003864:	7048      	strb	r0, [r1, #1]
 8003866:	4620      	mov	r0, r4
 8003868:	f7ff ffdc 	bl	8003824 <RTC_Bcd2ToByte>
 800386c:	7088      	strb	r0, [r1, #2]
 800386e:	2000      	movs	r0, #0
 8003870:	bd70      	pop	{r4, r5, r6, pc}

08003872 <HAL_RTC_GetDate>:
 8003872:	b538      	push	{r3, r4, r5, lr}
 8003874:	6803      	ldr	r3, [r0, #0]
 8003876:	685b      	ldr	r3, [r3, #4]
 8003878:	f3c3 4007 	ubfx	r0, r3, #16, #8
 800387c:	f3c3 2504 	ubfx	r5, r3, #8, #5
 8003880:	f003 043f 	and.w	r4, r3, #63	; 0x3f
 8003884:	f3c3 3342 	ubfx	r3, r3, #13, #3
 8003888:	70c8      	strb	r0, [r1, #3]
 800388a:	704d      	strb	r5, [r1, #1]
 800388c:	708c      	strb	r4, [r1, #2]
 800388e:	700b      	strb	r3, [r1, #0]
 8003890:	b952      	cbnz	r2, 80038a8 <HAL_RTC_GetDate+0x36>
 8003892:	f7ff ffc7 	bl	8003824 <RTC_Bcd2ToByte>
 8003896:	70c8      	strb	r0, [r1, #3]
 8003898:	4628      	mov	r0, r5
 800389a:	f7ff ffc3 	bl	8003824 <RTC_Bcd2ToByte>
 800389e:	7048      	strb	r0, [r1, #1]
 80038a0:	4620      	mov	r0, r4
 80038a2:	f7ff ffbf 	bl	8003824 <RTC_Bcd2ToByte>
 80038a6:	7088      	strb	r0, [r1, #2]
 80038a8:	2000      	movs	r0, #0
 80038aa:	bd38      	pop	{r3, r4, r5, pc}

080038ac <HAL_RTCEx_AlarmBEventCallback>:
 80038ac:	4770      	bx	lr
	...

080038b0 <SPI_WaitFlagStateUntilTimeout.constprop.0>:
 80038b0:	e92d 41f3 	stmdb	sp!, {r0, r1, r4, r5, r6, r7, r8, lr}
 80038b4:	461c      	mov	r4, r3
 80038b6:	4616      	mov	r6, r2
 80038b8:	460f      	mov	r7, r1
 80038ba:	4605      	mov	r5, r0
 80038bc:	f7fd feaa 	bl	8001614 <HAL_GetTick>
 80038c0:	4434      	add	r4, r6
 80038c2:	1a24      	subs	r4, r4, r0
 80038c4:	f7fd fea6 	bl	8001614 <HAL_GetTick>
 80038c8:	4680      	mov	r8, r0
 80038ca:	4b23      	ldr	r3, [pc, #140]	; (8003958 <SPI_WaitFlagStateUntilTimeout.constprop.0+0xa8>)
 80038cc:	681b      	ldr	r3, [r3, #0]
 80038ce:	f3c3 33cb 	ubfx	r3, r3, #15, #12
 80038d2:	4363      	muls	r3, r4
 80038d4:	682a      	ldr	r2, [r5, #0]
 80038d6:	9301      	str	r3, [sp, #4]
 80038d8:	6893      	ldr	r3, [r2, #8]
 80038da:	ea37 0303 	bics.w	r3, r7, r3
 80038de:	d001      	beq.n	80038e4 <SPI_WaitFlagStateUntilTimeout.constprop.0+0x34>
 80038e0:	2000      	movs	r0, #0
 80038e2:	e02e      	b.n	8003942 <SPI_WaitFlagStateUntilTimeout.constprop.0+0x92>
 80038e4:	1c73      	adds	r3, r6, #1
 80038e6:	d0f7      	beq.n	80038d8 <SPI_WaitFlagStateUntilTimeout.constprop.0+0x28>
 80038e8:	f7fd fe94 	bl	8001614 <HAL_GetTick>
 80038ec:	eba0 0008 	sub.w	r0, r0, r8
 80038f0:	42a0      	cmp	r0, r4
 80038f2:	d329      	bcc.n	8003948 <SPI_WaitFlagStateUntilTimeout.constprop.0+0x98>
 80038f4:	682b      	ldr	r3, [r5, #0]
 80038f6:	685a      	ldr	r2, [r3, #4]
 80038f8:	f022 02e0 	bic.w	r2, r2, #224	; 0xe0
 80038fc:	605a      	str	r2, [r3, #4]
 80038fe:	686a      	ldr	r2, [r5, #4]
 8003900:	f5b2 7f82 	cmp.w	r2, #260	; 0x104
 8003904:	d10a      	bne.n	800391c <SPI_WaitFlagStateUntilTimeout.constprop.0+0x6c>
 8003906:	68aa      	ldr	r2, [r5, #8]
 8003908:	f5b2 4f00 	cmp.w	r2, #32768	; 0x8000
 800390c:	d002      	beq.n	8003914 <SPI_WaitFlagStateUntilTimeout.constprop.0+0x64>
 800390e:	f5b2 6f80 	cmp.w	r2, #1024	; 0x400
 8003912:	d103      	bne.n	800391c <SPI_WaitFlagStateUntilTimeout.constprop.0+0x6c>
 8003914:	681a      	ldr	r2, [r3, #0]
 8003916:	f022 0240 	bic.w	r2, r2, #64	; 0x40
 800391a:	601a      	str	r2, [r3, #0]
 800391c:	6aaa      	ldr	r2, [r5, #40]	; 0x28
 800391e:	f5b2 5f00 	cmp.w	r2, #8192	; 0x2000
 8003922:	d107      	bne.n	8003934 <SPI_WaitFlagStateUntilTimeout.constprop.0+0x84>
 8003924:	681a      	ldr	r2, [r3, #0]
 8003926:	f422 5200 	bic.w	r2, r2, #8192	; 0x2000
 800392a:	601a      	str	r2, [r3, #0]
 800392c:	681a      	ldr	r2, [r3, #0]
 800392e:	f442 5200 	orr.w	r2, r2, #8192	; 0x2000
 8003932:	601a      	str	r2, [r3, #0]
 8003934:	2301      	movs	r3, #1
 8003936:	f885 3051 	strb.w	r3, [r5, #81]	; 0x51
 800393a:	2300      	movs	r3, #0
 800393c:	2003      	movs	r0, #3
 800393e:	f885 3050 	strb.w	r3, [r5, #80]	; 0x50
 8003942:	b002      	add	sp, #8
 8003944:	e8bd 81f0 	ldmia.w	sp!, {r4, r5, r6, r7, r8, pc}
 8003948:	9b01      	ldr	r3, [sp, #4]
 800394a:	2b00      	cmp	r3, #0
 800394c:	9b01      	ldr	r3, [sp, #4]
 800394e:	bf08      	it	eq
 8003950:	2400      	moveq	r4, #0
 8003952:	3b01      	subs	r3, #1
 8003954:	e7be      	b.n	80038d4 <SPI_WaitFlagStateUntilTimeout.constprop.0+0x24>
 8003956:	bf00      	nop
 8003958:	2000004c 	.word	0x2000004c

0800395c <SPI_EndRxTxTransaction>:
 800395c:	b537      	push	{r0, r1, r2, r4, r5, lr}
 800395e:	4613      	mov	r3, r2
 8003960:	4a12      	ldr	r2, [pc, #72]	; (80039ac <SPI_EndRxTxTransaction+0x50>)
 8003962:	4d13      	ldr	r5, [pc, #76]	; (80039b0 <SPI_EndRxTxTransaction+0x54>)
 8003964:	6812      	ldr	r2, [r2, #0]
 8003966:	4604      	mov	r4, r0
 8003968:	fbb2 f5f5 	udiv	r5, r2, r5
 800396c:	f44f 727a 	mov.w	r2, #1000	; 0x3e8
 8003970:	436a      	muls	r2, r5
 8003972:	9201      	str	r2, [sp, #4]
 8003974:	6842      	ldr	r2, [r0, #4]
 8003976:	f5b2 7f82 	cmp.w	r2, #260	; 0x104
 800397a:	d10b      	bne.n	8003994 <SPI_EndRxTxTransaction+0x38>
 800397c:	460a      	mov	r2, r1
 800397e:	2180      	movs	r1, #128	; 0x80
 8003980:	f7ff ff96 	bl	80038b0 <SPI_WaitFlagStateUntilTimeout.constprop.0>
 8003984:	b178      	cbz	r0, 80039a6 <SPI_EndRxTxTransaction+0x4a>
 8003986:	2003      	movs	r0, #3
 8003988:	6d63      	ldr	r3, [r4, #84]	; 0x54
 800398a:	f043 0320 	orr.w	r3, r3, #32
 800398e:	6563      	str	r3, [r4, #84]	; 0x54
 8003990:	b003      	add	sp, #12
 8003992:	bd30      	pop	{r4, r5, pc}
 8003994:	9b01      	ldr	r3, [sp, #4]
 8003996:	b133      	cbz	r3, 80039a6 <SPI_EndRxTxTransaction+0x4a>
 8003998:	9b01      	ldr	r3, [sp, #4]
 800399a:	3b01      	subs	r3, #1
 800399c:	9301      	str	r3, [sp, #4]
 800399e:	6823      	ldr	r3, [r4, #0]
 80039a0:	689b      	ldr	r3, [r3, #8]
 80039a2:	061b      	lsls	r3, r3, #24
 80039a4:	d4f6      	bmi.n	8003994 <SPI_EndRxTxTransaction+0x38>
 80039a6:	2000      	movs	r0, #0
 80039a8:	e7f2      	b.n	8003990 <SPI_EndRxTxTransaction+0x34>
 80039aa:	bf00      	nop
 80039ac:	2000004c 	.word	0x2000004c
 80039b0:	016e3600 	.word	0x016e3600

080039b4 <HAL_SPI_Init>:
 80039b4:	b510      	push	{r4, lr}
 80039b6:	4604      	mov	r4, r0
 80039b8:	2800      	cmp	r0, #0
 80039ba:	d04d      	beq.n	8003a58 <HAL_SPI_Init+0xa4>
 80039bc:	6a43      	ldr	r3, [r0, #36]	; 0x24
 80039be:	2b00      	cmp	r3, #0
 80039c0:	d146      	bne.n	8003a50 <HAL_SPI_Init+0x9c>
 80039c2:	6842      	ldr	r2, [r0, #4]
 80039c4:	f5b2 7f82 	cmp.w	r2, #260	; 0x104
 80039c8:	d000      	beq.n	80039cc <HAL_SPI_Init+0x18>
 80039ca:	61c3      	str	r3, [r0, #28]
 80039cc:	2300      	movs	r3, #0
 80039ce:	62a3      	str	r3, [r4, #40]	; 0x28
 80039d0:	f894 3051 	ldrb.w	r3, [r4, #81]	; 0x51
 80039d4:	f003 02ff 	and.w	r2, r3, #255	; 0xff
 80039d8:	b923      	cbnz	r3, 80039e4 <HAL_SPI_Init+0x30>
 80039da:	4620      	mov	r0, r4
 80039dc:	f884 2050 	strb.w	r2, [r4, #80]	; 0x50
 80039e0:	f7fd fcda 	bl	8001398 <HAL_SPI_MspInit>
 80039e4:	2302      	movs	r3, #2
 80039e6:	6821      	ldr	r1, [r4, #0]
 80039e8:	f884 3051 	strb.w	r3, [r4, #81]	; 0x51
 80039ec:	680b      	ldr	r3, [r1, #0]
 80039ee:	68a0      	ldr	r0, [r4, #8]
 80039f0:	f023 0340 	bic.w	r3, r3, #64	; 0x40
 80039f4:	600b      	str	r3, [r1, #0]
 80039f6:	6863      	ldr	r3, [r4, #4]
 80039f8:	f400 4004 	and.w	r0, r0, #33792	; 0x8400
 80039fc:	f403 7382 	and.w	r3, r3, #260	; 0x104
 8003a00:	4303      	orrs	r3, r0
 8003a02:	68e0      	ldr	r0, [r4, #12]
 8003a04:	69a2      	ldr	r2, [r4, #24]
 8003a06:	f400 6000 	and.w	r0, r0, #2048	; 0x800
 8003a0a:	4303      	orrs	r3, r0
 8003a0c:	6920      	ldr	r0, [r4, #16]
 8003a0e:	f000 0002 	and.w	r0, r0, #2
 8003a12:	4303      	orrs	r3, r0
 8003a14:	6960      	ldr	r0, [r4, #20]
 8003a16:	f000 0001 	and.w	r0, r0, #1
 8003a1a:	4303      	orrs	r3, r0
 8003a1c:	f402 7000 	and.w	r0, r2, #512	; 0x200
 8003a20:	4303      	orrs	r3, r0
 8003a22:	69e0      	ldr	r0, [r4, #28]
 8003a24:	0c12      	lsrs	r2, r2, #16
 8003a26:	f000 0038 	and.w	r0, r0, #56	; 0x38
 8003a2a:	4303      	orrs	r3, r0
 8003a2c:	6a20      	ldr	r0, [r4, #32]
 8003a2e:	f002 0204 	and.w	r2, r2, #4
 8003a32:	f000 0080 	and.w	r0, r0, #128	; 0x80
 8003a36:	4303      	orrs	r3, r0
 8003a38:	6aa0      	ldr	r0, [r4, #40]	; 0x28
 8003a3a:	f400 5000 	and.w	r0, r0, #8192	; 0x2000
 8003a3e:	4303      	orrs	r3, r0
 8003a40:	600b      	str	r3, [r1, #0]
 8003a42:	2000      	movs	r0, #0
 8003a44:	2301      	movs	r3, #1
 8003a46:	604a      	str	r2, [r1, #4]
 8003a48:	6560      	str	r0, [r4, #84]	; 0x54
 8003a4a:	f884 3051 	strb.w	r3, [r4, #81]	; 0x51
 8003a4e:	bd10      	pop	{r4, pc}
 8003a50:	2300      	movs	r3, #0
 8003a52:	e9c0 3304 	strd	r3, r3, [r0, #16]
 8003a56:	e7b9      	b.n	80039cc <HAL_SPI_Init+0x18>
 8003a58:	2001      	movs	r0, #1
 8003a5a:	e7f8      	b.n	8003a4e <HAL_SPI_Init+0x9a>

08003a5c <HAL_SPI_Transmit>:
 8003a5c:	e92d 43f7 	stmdb	sp!, {r0, r1, r2, r4, r5, r6, r7, r8, r9, lr}
 8003a60:	461f      	mov	r7, r3
 8003a62:	f890 3050 	ldrb.w	r3, [r0, #80]	; 0x50
 8003a66:	4604      	mov	r4, r0
 8003a68:	2b01      	cmp	r3, #1
 8003a6a:	460d      	mov	r5, r1
 8003a6c:	4690      	mov	r8, r2
 8003a6e:	f000 80a0 	beq.w	8003bb2 <HAL_SPI_Transmit+0x156>
 8003a72:	2301      	movs	r3, #1
 8003a74:	f880 3050 	strb.w	r3, [r0, #80]	; 0x50
 8003a78:	f7fd fdcc 	bl	8001614 <HAL_GetTick>
 8003a7c:	f894 3051 	ldrb.w	r3, [r4, #81]	; 0x51
 8003a80:	4681      	mov	r9, r0
 8003a82:	2b01      	cmp	r3, #1
 8003a84:	b2d8      	uxtb	r0, r3
 8003a86:	f040 8092 	bne.w	8003bae <HAL_SPI_Transmit+0x152>
 8003a8a:	2d00      	cmp	r5, #0
 8003a8c:	d061      	beq.n	8003b52 <HAL_SPI_Transmit+0xf6>
 8003a8e:	f1b8 0f00 	cmp.w	r8, #0
 8003a92:	d05e      	beq.n	8003b52 <HAL_SPI_Transmit+0xf6>
 8003a94:	2303      	movs	r3, #3
 8003a96:	f884 3051 	strb.w	r3, [r4, #81]	; 0x51
 8003a9a:	2300      	movs	r3, #0
 8003a9c:	6563      	str	r3, [r4, #84]	; 0x54
 8003a9e:	e9c4 3310 	strd	r3, r3, [r4, #64]	; 0x40
 8003aa2:	f8a4 8036 	strh.w	r8, [r4, #54]	; 0x36
 8003aa6:	63a3      	str	r3, [r4, #56]	; 0x38
 8003aa8:	87a3      	strh	r3, [r4, #60]	; 0x3c
 8003aaa:	87e3      	strh	r3, [r4, #62]	; 0x3e
 8003aac:	68a3      	ldr	r3, [r4, #8]
 8003aae:	6826      	ldr	r6, [r4, #0]
 8003ab0:	f5b3 4f00 	cmp.w	r3, #32768	; 0x8000
 8003ab4:	6325      	str	r5, [r4, #48]	; 0x30
 8003ab6:	f8a4 8034 	strh.w	r8, [r4, #52]	; 0x34
 8003aba:	d107      	bne.n	8003acc <HAL_SPI_Transmit+0x70>
 8003abc:	6833      	ldr	r3, [r6, #0]
 8003abe:	f023 0340 	bic.w	r3, r3, #64	; 0x40
 8003ac2:	6033      	str	r3, [r6, #0]
 8003ac4:	6833      	ldr	r3, [r6, #0]
 8003ac6:	f443 4380 	orr.w	r3, r3, #16384	; 0x4000
 8003aca:	6033      	str	r3, [r6, #0]
 8003acc:	6833      	ldr	r3, [r6, #0]
 8003ace:	68e2      	ldr	r2, [r4, #12]
 8003ad0:	065b      	lsls	r3, r3, #25
 8003ad2:	bf5e      	ittt	pl
 8003ad4:	6833      	ldrpl	r3, [r6, #0]
 8003ad6:	f043 0340 	orrpl.w	r3, r3, #64	; 0x40
 8003ada:	6033      	strpl	r3, [r6, #0]
 8003adc:	f5b2 6f00 	cmp.w	r2, #2048	; 0x800
 8003ae0:	6863      	ldr	r3, [r4, #4]
 8003ae2:	d13f      	bne.n	8003b64 <HAL_SPI_Transmit+0x108>
 8003ae4:	b113      	cbz	r3, 8003aec <HAL_SPI_Transmit+0x90>
 8003ae6:	f1b8 0f01 	cmp.w	r8, #1
 8003aea:	d107      	bne.n	8003afc <HAL_SPI_Transmit+0xa0>
 8003aec:	f835 3b02 	ldrh.w	r3, [r5], #2
 8003af0:	60f3      	str	r3, [r6, #12]
 8003af2:	6325      	str	r5, [r4, #48]	; 0x30
 8003af4:	8ee3      	ldrh	r3, [r4, #54]	; 0x36
 8003af6:	3b01      	subs	r3, #1
 8003af8:	b29b      	uxth	r3, r3
 8003afa:	86e3      	strh	r3, [r4, #54]	; 0x36
 8003afc:	8ee3      	ldrh	r3, [r4, #54]	; 0x36
 8003afe:	b29b      	uxth	r3, r3
 8003b00:	b9a3      	cbnz	r3, 8003b2c <HAL_SPI_Transmit+0xd0>
 8003b02:	464a      	mov	r2, r9
 8003b04:	4639      	mov	r1, r7
 8003b06:	4620      	mov	r0, r4
 8003b08:	f7ff ff28 	bl	800395c <SPI_EndRxTxTransaction>
 8003b0c:	2800      	cmp	r0, #0
 8003b0e:	d14b      	bne.n	8003ba8 <HAL_SPI_Transmit+0x14c>
 8003b10:	68a3      	ldr	r3, [r4, #8]
 8003b12:	b933      	cbnz	r3, 8003b22 <HAL_SPI_Transmit+0xc6>
 8003b14:	9301      	str	r3, [sp, #4]
 8003b16:	6823      	ldr	r3, [r4, #0]
 8003b18:	68da      	ldr	r2, [r3, #12]
 8003b1a:	9201      	str	r2, [sp, #4]
 8003b1c:	689b      	ldr	r3, [r3, #8]
 8003b1e:	9301      	str	r3, [sp, #4]
 8003b20:	9b01      	ldr	r3, [sp, #4]
 8003b22:	6d60      	ldr	r0, [r4, #84]	; 0x54
 8003b24:	3800      	subs	r0, #0
 8003b26:	bf18      	it	ne
 8003b28:	2001      	movne	r0, #1
 8003b2a:	e012      	b.n	8003b52 <HAL_SPI_Transmit+0xf6>
 8003b2c:	6822      	ldr	r2, [r4, #0]
 8003b2e:	6893      	ldr	r3, [r2, #8]
 8003b30:	0798      	lsls	r0, r3, #30
 8003b32:	d505      	bpl.n	8003b40 <HAL_SPI_Transmit+0xe4>
 8003b34:	6b23      	ldr	r3, [r4, #48]	; 0x30
 8003b36:	f833 1b02 	ldrh.w	r1, [r3], #2
 8003b3a:	60d1      	str	r1, [r2, #12]
 8003b3c:	6323      	str	r3, [r4, #48]	; 0x30
 8003b3e:	e7d9      	b.n	8003af4 <HAL_SPI_Transmit+0x98>
 8003b40:	f7fd fd68 	bl	8001614 <HAL_GetTick>
 8003b44:	eba0 0009 	sub.w	r0, r0, r9
 8003b48:	42b8      	cmp	r0, r7
 8003b4a:	d3d7      	bcc.n	8003afc <HAL_SPI_Transmit+0xa0>
 8003b4c:	1c79      	adds	r1, r7, #1
 8003b4e:	d0d5      	beq.n	8003afc <HAL_SPI_Transmit+0xa0>
 8003b50:	2003      	movs	r0, #3
 8003b52:	2301      	movs	r3, #1
 8003b54:	f884 3051 	strb.w	r3, [r4, #81]	; 0x51
 8003b58:	2300      	movs	r3, #0
 8003b5a:	f884 3050 	strb.w	r3, [r4, #80]	; 0x50
 8003b5e:	b003      	add	sp, #12
 8003b60:	e8bd 83f0 	ldmia.w	sp!, {r4, r5, r6, r7, r8, r9, pc}
 8003b64:	b113      	cbz	r3, 8003b6c <HAL_SPI_Transmit+0x110>
 8003b66:	f1b8 0f01 	cmp.w	r8, #1
 8003b6a:	d108      	bne.n	8003b7e <HAL_SPI_Transmit+0x122>
 8003b6c:	782b      	ldrb	r3, [r5, #0]
 8003b6e:	7333      	strb	r3, [r6, #12]
 8003b70:	6b23      	ldr	r3, [r4, #48]	; 0x30
 8003b72:	3301      	adds	r3, #1
 8003b74:	6323      	str	r3, [r4, #48]	; 0x30
 8003b76:	8ee3      	ldrh	r3, [r4, #54]	; 0x36
 8003b78:	3b01      	subs	r3, #1
 8003b7a:	b29b      	uxth	r3, r3
 8003b7c:	86e3      	strh	r3, [r4, #54]	; 0x36
 8003b7e:	8ee3      	ldrh	r3, [r4, #54]	; 0x36
 8003b80:	b29b      	uxth	r3, r3
 8003b82:	2b00      	cmp	r3, #0
 8003b84:	d0bd      	beq.n	8003b02 <HAL_SPI_Transmit+0xa6>
 8003b86:	6823      	ldr	r3, [r4, #0]
 8003b88:	689a      	ldr	r2, [r3, #8]
 8003b8a:	0792      	lsls	r2, r2, #30
 8003b8c:	d503      	bpl.n	8003b96 <HAL_SPI_Transmit+0x13a>
 8003b8e:	6b22      	ldr	r2, [r4, #48]	; 0x30
 8003b90:	7812      	ldrb	r2, [r2, #0]
 8003b92:	731a      	strb	r2, [r3, #12]
 8003b94:	e7ec      	b.n	8003b70 <HAL_SPI_Transmit+0x114>
 8003b96:	f7fd fd3d 	bl	8001614 <HAL_GetTick>
 8003b9a:	eba0 0009 	sub.w	r0, r0, r9
 8003b9e:	42b8      	cmp	r0, r7
 8003ba0:	d3ed      	bcc.n	8003b7e <HAL_SPI_Transmit+0x122>
 8003ba2:	1c7b      	adds	r3, r7, #1
 8003ba4:	d0eb      	beq.n	8003b7e <HAL_SPI_Transmit+0x122>
 8003ba6:	e7d3      	b.n	8003b50 <HAL_SPI_Transmit+0xf4>
 8003ba8:	2320      	movs	r3, #32
 8003baa:	6563      	str	r3, [r4, #84]	; 0x54
 8003bac:	e7b0      	b.n	8003b10 <HAL_SPI_Transmit+0xb4>
 8003bae:	2002      	movs	r0, #2
 8003bb0:	e7cf      	b.n	8003b52 <HAL_SPI_Transmit+0xf6>
 8003bb2:	2002      	movs	r0, #2
 8003bb4:	e7d3      	b.n	8003b5e <HAL_SPI_Transmit+0x102>

08003bb6 <HAL_SPI_TransmitReceive>:
 8003bb6:	e92d 43f7 	stmdb	sp!, {r0, r1, r2, r4, r5, r6, r7, r8, r9, lr}
 8003bba:	461e      	mov	r6, r3
 8003bbc:	f890 3050 	ldrb.w	r3, [r0, #80]	; 0x50
 8003bc0:	4604      	mov	r4, r0
 8003bc2:	2b01      	cmp	r3, #1
 8003bc4:	460d      	mov	r5, r1
 8003bc6:	4691      	mov	r9, r2
 8003bc8:	f8dd 8028 	ldr.w	r8, [sp, #40]	; 0x28
 8003bcc:	f000 80e0 	beq.w	8003d90 <HAL_SPI_TransmitReceive+0x1da>
 8003bd0:	2301      	movs	r3, #1
 8003bd2:	f880 3050 	strb.w	r3, [r0, #80]	; 0x50
 8003bd6:	f7fd fd1d 	bl	8001614 <HAL_GetTick>
 8003bda:	f894 3051 	ldrb.w	r3, [r4, #81]	; 0x51
 8003bde:	4607      	mov	r7, r0
 8003be0:	2b01      	cmp	r3, #1
 8003be2:	6862      	ldr	r2, [r4, #4]
 8003be4:	b2d9      	uxtb	r1, r3
 8003be6:	d00a      	beq.n	8003bfe <HAL_SPI_TransmitReceive+0x48>
 8003be8:	f5b2 7f82 	cmp.w	r2, #260	; 0x104
 8003bec:	f040 80ce 	bne.w	8003d8c <HAL_SPI_TransmitReceive+0x1d6>
 8003bf0:	68a3      	ldr	r3, [r4, #8]
 8003bf2:	2b00      	cmp	r3, #0
 8003bf4:	f040 80ca 	bne.w	8003d8c <HAL_SPI_TransmitReceive+0x1d6>
 8003bf8:	2904      	cmp	r1, #4
 8003bfa:	f040 80c7 	bne.w	8003d8c <HAL_SPI_TransmitReceive+0x1d6>
 8003bfe:	2d00      	cmp	r5, #0
 8003c00:	d03f      	beq.n	8003c82 <HAL_SPI_TransmitReceive+0xcc>
 8003c02:	f1b9 0f00 	cmp.w	r9, #0
 8003c06:	d03c      	beq.n	8003c82 <HAL_SPI_TransmitReceive+0xcc>
 8003c08:	2e00      	cmp	r6, #0
 8003c0a:	d03a      	beq.n	8003c82 <HAL_SPI_TransmitReceive+0xcc>
 8003c0c:	f894 3051 	ldrb.w	r3, [r4, #81]	; 0x51
 8003c10:	f8c4 9038 	str.w	r9, [r4, #56]	; 0x38
 8003c14:	2b04      	cmp	r3, #4
 8003c16:	bf1c      	itt	ne
 8003c18:	2305      	movne	r3, #5
 8003c1a:	f884 3051 	strbne.w	r3, [r4, #81]	; 0x51
 8003c1e:	2300      	movs	r3, #0
 8003c20:	6563      	str	r3, [r4, #84]	; 0x54
 8003c22:	e9c4 3310 	strd	r3, r3, [r4, #64]	; 0x40
 8003c26:	6823      	ldr	r3, [r4, #0]
 8003c28:	87e6      	strh	r6, [r4, #62]	; 0x3e
 8003c2a:	86e6      	strh	r6, [r4, #54]	; 0x36
 8003c2c:	6819      	ldr	r1, [r3, #0]
 8003c2e:	87a6      	strh	r6, [r4, #60]	; 0x3c
 8003c30:	0649      	lsls	r1, r1, #25
 8003c32:	bf58      	it	pl
 8003c34:	6819      	ldrpl	r1, [r3, #0]
 8003c36:	6325      	str	r5, [r4, #48]	; 0x30
 8003c38:	bf58      	it	pl
 8003c3a:	f041 0140 	orrpl.w	r1, r1, #64	; 0x40
 8003c3e:	86a6      	strh	r6, [r4, #52]	; 0x34
 8003c40:	bf58      	it	pl
 8003c42:	6019      	strpl	r1, [r3, #0]
 8003c44:	68e1      	ldr	r1, [r4, #12]
 8003c46:	f5b1 6f00 	cmp.w	r1, #2048	; 0x800
 8003c4a:	d151      	bne.n	8003cf0 <HAL_SPI_TransmitReceive+0x13a>
 8003c4c:	b10a      	cbz	r2, 8003c52 <HAL_SPI_TransmitReceive+0x9c>
 8003c4e:	2e01      	cmp	r6, #1
 8003c50:	d107      	bne.n	8003c62 <HAL_SPI_TransmitReceive+0xac>
 8003c52:	f835 2b02 	ldrh.w	r2, [r5], #2
 8003c56:	60da      	str	r2, [r3, #12]
 8003c58:	8ee3      	ldrh	r3, [r4, #54]	; 0x36
 8003c5a:	6325      	str	r5, [r4, #48]	; 0x30
 8003c5c:	3b01      	subs	r3, #1
 8003c5e:	b29b      	uxth	r3, r3
 8003c60:	86e3      	strh	r3, [r4, #54]	; 0x36
 8003c62:	2501      	movs	r5, #1
 8003c64:	8ee3      	ldrh	r3, [r4, #54]	; 0x36
 8003c66:	b29b      	uxth	r3, r3
 8003c68:	b96b      	cbnz	r3, 8003c86 <HAL_SPI_TransmitReceive+0xd0>
 8003c6a:	8fe3      	ldrh	r3, [r4, #62]	; 0x3e
 8003c6c:	b29b      	uxth	r3, r3
 8003c6e:	b953      	cbnz	r3, 8003c86 <HAL_SPI_TransmitReceive+0xd0>
 8003c70:	463a      	mov	r2, r7
 8003c72:	4641      	mov	r1, r8
 8003c74:	4620      	mov	r0, r4
 8003c76:	f7ff fe71 	bl	800395c <SPI_EndRxTxTransaction>
 8003c7a:	2800      	cmp	r0, #0
 8003c7c:	d07b      	beq.n	8003d76 <HAL_SPI_TransmitReceive+0x1c0>
 8003c7e:	2320      	movs	r3, #32
 8003c80:	6563      	str	r3, [r4, #84]	; 0x54
 8003c82:	2001      	movs	r0, #1
 8003c84:	e02b      	b.n	8003cde <HAL_SPI_TransmitReceive+0x128>
 8003c86:	6821      	ldr	r1, [r4, #0]
 8003c88:	688b      	ldr	r3, [r1, #8]
 8003c8a:	079a      	lsls	r2, r3, #30
 8003c8c:	d50d      	bpl.n	8003caa <HAL_SPI_TransmitReceive+0xf4>
 8003c8e:	8ee3      	ldrh	r3, [r4, #54]	; 0x36
 8003c90:	b29b      	uxth	r3, r3
 8003c92:	b153      	cbz	r3, 8003caa <HAL_SPI_TransmitReceive+0xf4>
 8003c94:	b14d      	cbz	r5, 8003caa <HAL_SPI_TransmitReceive+0xf4>
 8003c96:	2500      	movs	r5, #0
 8003c98:	6b23      	ldr	r3, [r4, #48]	; 0x30
 8003c9a:	f833 2b02 	ldrh.w	r2, [r3], #2
 8003c9e:	60ca      	str	r2, [r1, #12]
 8003ca0:	6323      	str	r3, [r4, #48]	; 0x30
 8003ca2:	8ee3      	ldrh	r3, [r4, #54]	; 0x36
 8003ca4:	3b01      	subs	r3, #1
 8003ca6:	b29b      	uxth	r3, r3
 8003ca8:	86e3      	strh	r3, [r4, #54]	; 0x36
 8003caa:	688a      	ldr	r2, [r1, #8]
 8003cac:	f012 0201 	ands.w	r2, r2, #1
 8003cb0:	d00c      	beq.n	8003ccc <HAL_SPI_TransmitReceive+0x116>
 8003cb2:	8fe3      	ldrh	r3, [r4, #62]	; 0x3e
 8003cb4:	b29b      	uxth	r3, r3
 8003cb6:	b14b      	cbz	r3, 8003ccc <HAL_SPI_TransmitReceive+0x116>
 8003cb8:	4615      	mov	r5, r2
 8003cba:	68c9      	ldr	r1, [r1, #12]
 8003cbc:	6ba3      	ldr	r3, [r4, #56]	; 0x38
 8003cbe:	f823 1b02 	strh.w	r1, [r3], #2
 8003cc2:	63a3      	str	r3, [r4, #56]	; 0x38
 8003cc4:	8fe3      	ldrh	r3, [r4, #62]	; 0x3e
 8003cc6:	3b01      	subs	r3, #1
 8003cc8:	b29b      	uxth	r3, r3
 8003cca:	87e3      	strh	r3, [r4, #62]	; 0x3e
 8003ccc:	f7fd fca2 	bl	8001614 <HAL_GetTick>
 8003cd0:	1bc0      	subs	r0, r0, r7
 8003cd2:	4540      	cmp	r0, r8
 8003cd4:	d3c6      	bcc.n	8003c64 <HAL_SPI_TransmitReceive+0xae>
 8003cd6:	f1b8 3fff 	cmp.w	r8, #4294967295
 8003cda:	d0c3      	beq.n	8003c64 <HAL_SPI_TransmitReceive+0xae>
 8003cdc:	2003      	movs	r0, #3
 8003cde:	2301      	movs	r3, #1
 8003ce0:	f884 3051 	strb.w	r3, [r4, #81]	; 0x51
 8003ce4:	2300      	movs	r3, #0
 8003ce6:	f884 3050 	strb.w	r3, [r4, #80]	; 0x50
 8003cea:	b003      	add	sp, #12
 8003cec:	e8bd 83f0 	ldmia.w	sp!, {r4, r5, r6, r7, r8, r9, pc}
 8003cf0:	b10a      	cbz	r2, 8003cf6 <HAL_SPI_TransmitReceive+0x140>
 8003cf2:	2e01      	cmp	r6, #1
 8003cf4:	d108      	bne.n	8003d08 <HAL_SPI_TransmitReceive+0x152>
 8003cf6:	782a      	ldrb	r2, [r5, #0]
 8003cf8:	731a      	strb	r2, [r3, #12]
 8003cfa:	6b23      	ldr	r3, [r4, #48]	; 0x30
 8003cfc:	3301      	adds	r3, #1
 8003cfe:	6323      	str	r3, [r4, #48]	; 0x30
 8003d00:	8ee3      	ldrh	r3, [r4, #54]	; 0x36
 8003d02:	3b01      	subs	r3, #1
 8003d04:	b29b      	uxth	r3, r3
 8003d06:	86e3      	strh	r3, [r4, #54]	; 0x36
 8003d08:	2501      	movs	r5, #1
 8003d0a:	8ee3      	ldrh	r3, [r4, #54]	; 0x36
 8003d0c:	b29b      	uxth	r3, r3
 8003d0e:	b91b      	cbnz	r3, 8003d18 <HAL_SPI_TransmitReceive+0x162>
 8003d10:	8fe3      	ldrh	r3, [r4, #62]	; 0x3e
 8003d12:	b29b      	uxth	r3, r3
 8003d14:	2b00      	cmp	r3, #0
 8003d16:	d0ab      	beq.n	8003c70 <HAL_SPI_TransmitReceive+0xba>
 8003d18:	6822      	ldr	r2, [r4, #0]
 8003d1a:	6893      	ldr	r3, [r2, #8]
 8003d1c:	079b      	lsls	r3, r3, #30
 8003d1e:	d50e      	bpl.n	8003d3e <HAL_SPI_TransmitReceive+0x188>
 8003d20:	8ee3      	ldrh	r3, [r4, #54]	; 0x36
 8003d22:	b29b      	uxth	r3, r3
 8003d24:	b15b      	cbz	r3, 8003d3e <HAL_SPI_TransmitReceive+0x188>
 8003d26:	b155      	cbz	r5, 8003d3e <HAL_SPI_TransmitReceive+0x188>
 8003d28:	2500      	movs	r5, #0
 8003d2a:	6b23      	ldr	r3, [r4, #48]	; 0x30
 8003d2c:	781b      	ldrb	r3, [r3, #0]
 8003d2e:	7313      	strb	r3, [r2, #12]
 8003d30:	6b23      	ldr	r3, [r4, #48]	; 0x30
 8003d32:	3301      	adds	r3, #1
 8003d34:	6323      	str	r3, [r4, #48]	; 0x30
 8003d36:	8ee3      	ldrh	r3, [r4, #54]	; 0x36
 8003d38:	3b01      	subs	r3, #1
 8003d3a:	b29b      	uxth	r3, r3
 8003d3c:	86e3      	strh	r3, [r4, #54]	; 0x36
 8003d3e:	6822      	ldr	r2, [r4, #0]
 8003d40:	6891      	ldr	r1, [r2, #8]
 8003d42:	f011 0101 	ands.w	r1, r1, #1
 8003d46:	d00d      	beq.n	8003d64 <HAL_SPI_TransmitReceive+0x1ae>
 8003d48:	8fe3      	ldrh	r3, [r4, #62]	; 0x3e
 8003d4a:	b29b      	uxth	r3, r3
 8003d4c:	b153      	cbz	r3, 8003d64 <HAL_SPI_TransmitReceive+0x1ae>
 8003d4e:	460d      	mov	r5, r1
 8003d50:	68d2      	ldr	r2, [r2, #12]
 8003d52:	6ba3      	ldr	r3, [r4, #56]	; 0x38
 8003d54:	701a      	strb	r2, [r3, #0]
 8003d56:	6ba3      	ldr	r3, [r4, #56]	; 0x38
 8003d58:	3301      	adds	r3, #1
 8003d5a:	63a3      	str	r3, [r4, #56]	; 0x38
 8003d5c:	8fe3      	ldrh	r3, [r4, #62]	; 0x3e
 8003d5e:	3b01      	subs	r3, #1
 8003d60:	b29b      	uxth	r3, r3
 8003d62:	87e3      	strh	r3, [r4, #62]	; 0x3e
 8003d64:	f7fd fc56 	bl	8001614 <HAL_GetTick>
 8003d68:	1bc0      	subs	r0, r0, r7
 8003d6a:	4540      	cmp	r0, r8
 8003d6c:	d3cd      	bcc.n	8003d0a <HAL_SPI_TransmitReceive+0x154>
 8003d6e:	f1b8 3fff 	cmp.w	r8, #4294967295
 8003d72:	d0ca      	beq.n	8003d0a <HAL_SPI_TransmitReceive+0x154>
 8003d74:	e7b2      	b.n	8003cdc <HAL_SPI_TransmitReceive+0x126>
 8003d76:	68a3      	ldr	r3, [r4, #8]
 8003d78:	2b00      	cmp	r3, #0
 8003d7a:	d1b0      	bne.n	8003cde <HAL_SPI_TransmitReceive+0x128>
 8003d7c:	6823      	ldr	r3, [r4, #0]
 8003d7e:	9001      	str	r0, [sp, #4]
 8003d80:	68da      	ldr	r2, [r3, #12]
 8003d82:	9201      	str	r2, [sp, #4]
 8003d84:	689b      	ldr	r3, [r3, #8]
 8003d86:	9301      	str	r3, [sp, #4]
 8003d88:	9b01      	ldr	r3, [sp, #4]
 8003d8a:	e7a8      	b.n	8003cde <HAL_SPI_TransmitReceive+0x128>
 8003d8c:	2002      	movs	r0, #2
 8003d8e:	e7a6      	b.n	8003cde <HAL_SPI_TransmitReceive+0x128>
 8003d90:	2002      	movs	r0, #2
 8003d92:	e7aa      	b.n	8003cea <HAL_SPI_TransmitReceive+0x134>

08003d94 <HAL_SPI_ErrorCallback>:
 8003d94:	4770      	bx	lr
	...

08003d98 <HAL_SPI_IRQHandler>:
 8003d98:	b5f0      	push	{r4, r5, r6, r7, lr}
 8003d9a:	6803      	ldr	r3, [r0, #0]
 8003d9c:	4604      	mov	r4, r0
 8003d9e:	6859      	ldr	r1, [r3, #4]
 8003da0:	689a      	ldr	r2, [r3, #8]
 8003da2:	b085      	sub	sp, #20
 8003da4:	0656      	lsls	r6, r2, #25
 8003da6:	ea4f 1592 	mov.w	r5, r2, lsr #6
 8003daa:	f3c2 1780 	ubfx	r7, r2, #6, #1
 8003dae:	d408      	bmi.n	8003dc2 <HAL_SPI_IRQHandler+0x2a>
 8003db0:	07d6      	lsls	r6, r2, #31
 8003db2:	d506      	bpl.n	8003dc2 <HAL_SPI_IRQHandler+0x2a>
 8003db4:	064e      	lsls	r6, r1, #25
 8003db6:	d504      	bpl.n	8003dc2 <HAL_SPI_IRQHandler+0x2a>
 8003db8:	6c03      	ldr	r3, [r0, #64]	; 0x40
 8003dba:	b005      	add	sp, #20
 8003dbc:	e8bd 40f0 	ldmia.w	sp!, {r4, r5, r6, r7, lr}
 8003dc0:	4718      	bx	r3
 8003dc2:	0796      	lsls	r6, r2, #30
 8003dc4:	d504      	bpl.n	8003dd0 <HAL_SPI_IRQHandler+0x38>
 8003dc6:	0608      	lsls	r0, r1, #24
 8003dc8:	d502      	bpl.n	8003dd0 <HAL_SPI_IRQHandler+0x38>
 8003dca:	4620      	mov	r0, r4
 8003dcc:	6c63      	ldr	r3, [r4, #68]	; 0x44
 8003dce:	e7f4      	b.n	8003dba <HAL_SPI_IRQHandler+0x22>
 8003dd0:	0956      	lsrs	r6, r2, #5
 8003dd2:	ea45 1252 	orr.w	r2, r5, r2, lsr #5
 8003dd6:	07d2      	lsls	r2, r2, #31
 8003dd8:	d54c      	bpl.n	8003e74 <HAL_SPI_IRQHandler+0xdc>
 8003dda:	068d      	lsls	r5, r1, #26
 8003ddc:	d54a      	bpl.n	8003e74 <HAL_SPI_IRQHandler+0xdc>
 8003dde:	b177      	cbz	r7, 8003dfe <HAL_SPI_IRQHandler+0x66>
 8003de0:	f894 2051 	ldrb.w	r2, [r4, #81]	; 0x51
 8003de4:	2000      	movs	r0, #0
 8003de6:	2a03      	cmp	r2, #3
 8003de8:	d03e      	beq.n	8003e68 <HAL_SPI_IRQHandler+0xd0>
 8003dea:	6d62      	ldr	r2, [r4, #84]	; 0x54
 8003dec:	f042 0204 	orr.w	r2, r2, #4
 8003df0:	6562      	str	r2, [r4, #84]	; 0x54
 8003df2:	9001      	str	r0, [sp, #4]
 8003df4:	68da      	ldr	r2, [r3, #12]
 8003df6:	9201      	str	r2, [sp, #4]
 8003df8:	689a      	ldr	r2, [r3, #8]
 8003dfa:	9201      	str	r2, [sp, #4]
 8003dfc:	9a01      	ldr	r2, [sp, #4]
 8003dfe:	07f0      	lsls	r0, r6, #31
 8003e00:	d50c      	bpl.n	8003e1c <HAL_SPI_IRQHandler+0x84>
 8003e02:	6d62      	ldr	r2, [r4, #84]	; 0x54
 8003e04:	f042 0201 	orr.w	r2, r2, #1
 8003e08:	6562      	str	r2, [r4, #84]	; 0x54
 8003e0a:	2200      	movs	r2, #0
 8003e0c:	9203      	str	r2, [sp, #12]
 8003e0e:	689a      	ldr	r2, [r3, #8]
 8003e10:	9203      	str	r2, [sp, #12]
 8003e12:	681a      	ldr	r2, [r3, #0]
 8003e14:	f022 0240 	bic.w	r2, r2, #64	; 0x40
 8003e18:	601a      	str	r2, [r3, #0]
 8003e1a:	9a03      	ldr	r2, [sp, #12]
 8003e1c:	6d62      	ldr	r2, [r4, #84]	; 0x54
 8003e1e:	b34a      	cbz	r2, 8003e74 <HAL_SPI_IRQHandler+0xdc>
 8003e20:	685a      	ldr	r2, [r3, #4]
 8003e22:	f022 02e0 	bic.w	r2, r2, #224	; 0xe0
 8003e26:	605a      	str	r2, [r3, #4]
 8003e28:	2201      	movs	r2, #1
 8003e2a:	f884 2051 	strb.w	r2, [r4, #81]	; 0x51
 8003e2e:	078a      	lsls	r2, r1, #30
 8003e30:	d022      	beq.n	8003e78 <HAL_SPI_IRQHandler+0xe0>
 8003e32:	685a      	ldr	r2, [r3, #4]
 8003e34:	6ce0      	ldr	r0, [r4, #76]	; 0x4c
 8003e36:	f022 0203 	bic.w	r2, r2, #3
 8003e3a:	605a      	str	r2, [r3, #4]
 8003e3c:	b140      	cbz	r0, 8003e50 <HAL_SPI_IRQHandler+0xb8>
 8003e3e:	4b10      	ldr	r3, [pc, #64]	; (8003e80 <HAL_SPI_IRQHandler+0xe8>)
 8003e40:	6343      	str	r3, [r0, #52]	; 0x34
 8003e42:	f7fd fee3 	bl	8001c0c <HAL_DMA_Abort_IT>
 8003e46:	b118      	cbz	r0, 8003e50 <HAL_SPI_IRQHandler+0xb8>
 8003e48:	6d63      	ldr	r3, [r4, #84]	; 0x54
 8003e4a:	f043 0340 	orr.w	r3, r3, #64	; 0x40
 8003e4e:	6563      	str	r3, [r4, #84]	; 0x54
 8003e50:	6ca0      	ldr	r0, [r4, #72]	; 0x48
 8003e52:	b178      	cbz	r0, 8003e74 <HAL_SPI_IRQHandler+0xdc>
 8003e54:	4b0a      	ldr	r3, [pc, #40]	; (8003e80 <HAL_SPI_IRQHandler+0xe8>)
 8003e56:	6343      	str	r3, [r0, #52]	; 0x34
 8003e58:	f7fd fed8 	bl	8001c0c <HAL_DMA_Abort_IT>
 8003e5c:	b150      	cbz	r0, 8003e74 <HAL_SPI_IRQHandler+0xdc>
 8003e5e:	6d63      	ldr	r3, [r4, #84]	; 0x54
 8003e60:	f043 0340 	orr.w	r3, r3, #64	; 0x40
 8003e64:	6563      	str	r3, [r4, #84]	; 0x54
 8003e66:	e005      	b.n	8003e74 <HAL_SPI_IRQHandler+0xdc>
 8003e68:	9002      	str	r0, [sp, #8]
 8003e6a:	68da      	ldr	r2, [r3, #12]
 8003e6c:	9202      	str	r2, [sp, #8]
 8003e6e:	689b      	ldr	r3, [r3, #8]
 8003e70:	9302      	str	r3, [sp, #8]
 8003e72:	9b02      	ldr	r3, [sp, #8]
 8003e74:	b005      	add	sp, #20
 8003e76:	bdf0      	pop	{r4, r5, r6, r7, pc}
 8003e78:	4620      	mov	r0, r4
 8003e7a:	f7ff ff8b 	bl	8003d94 <HAL_SPI_ErrorCallback>
 8003e7e:	e7f9      	b.n	8003e74 <HAL_SPI_IRQHandler+0xdc>
 8003e80:	08003e85 	.word	0x08003e85

08003e84 <SPI_DMAAbortOnError>:
 8003e84:	b508      	push	{r3, lr}
 8003e86:	2300      	movs	r3, #0
 8003e88:	6a40      	ldr	r0, [r0, #36]	; 0x24
 8003e8a:	87c3      	strh	r3, [r0, #62]	; 0x3e
 8003e8c:	86c3      	strh	r3, [r0, #54]	; 0x36
 8003e8e:	f7ff ff81 	bl	8003d94 <HAL_SPI_ErrorCallback>
 8003e92:	bd08      	pop	{r3, pc}

08003e94 <UART_SetConfig>:
 8003e94:	b510      	push	{r4, lr}
 8003e96:	4604      	mov	r4, r0
 8003e98:	6802      	ldr	r2, [r0, #0]
 8003e9a:	68c1      	ldr	r1, [r0, #12]
 8003e9c:	6913      	ldr	r3, [r2, #16]
 8003e9e:	f423 5340 	bic.w	r3, r3, #12288	; 0x3000
 8003ea2:	430b      	orrs	r3, r1
 8003ea4:	6113      	str	r3, [r2, #16]
 8003ea6:	6883      	ldr	r3, [r0, #8]
 8003ea8:	6900      	ldr	r0, [r0, #16]
 8003eaa:	68d1      	ldr	r1, [r2, #12]
 8003eac:	4303      	orrs	r3, r0
 8003eae:	6960      	ldr	r0, [r4, #20]
 8003eb0:	f421 4116 	bic.w	r1, r1, #38400	; 0x9600
 8003eb4:	4303      	orrs	r3, r0
 8003eb6:	69e0      	ldr	r0, [r4, #28]
 8003eb8:	f021 010c 	bic.w	r1, r1, #12
 8003ebc:	4303      	orrs	r3, r0
 8003ebe:	430b      	orrs	r3, r1
 8003ec0:	60d3      	str	r3, [r2, #12]
 8003ec2:	6953      	ldr	r3, [r2, #20]
 8003ec4:	69a1      	ldr	r1, [r4, #24]
 8003ec6:	f423 7340 	bic.w	r3, r3, #768	; 0x300
 8003eca:	430b      	orrs	r3, r1
 8003ecc:	6153      	str	r3, [r2, #20]
 8003ece:	4b1a      	ldr	r3, [pc, #104]	; (8003f38 <UART_SetConfig+0xa4>)
 8003ed0:	429a      	cmp	r2, r3
 8003ed2:	d120      	bne.n	8003f16 <UART_SetConfig+0x82>
 8003ed4:	f7ff f9d2 	bl	800327c <HAL_RCC_GetPCLK2Freq>
 8003ed8:	2319      	movs	r3, #25
 8003eda:	69e1      	ldr	r1, [r4, #28]
 8003edc:	4343      	muls	r3, r0
 8003ede:	e9d4 2000 	ldrd	r2, r0, [r4]
 8003ee2:	f5b1 4f00 	cmp.w	r1, #32768	; 0x8000
 8003ee6:	f04f 0164 	mov.w	r1, #100	; 0x64
 8003eea:	d117      	bne.n	8003f1c <UART_SetConfig+0x88>
 8003eec:	0040      	lsls	r0, r0, #1
 8003eee:	fbb3 f0f0 	udiv	r0, r3, r0
 8003ef2:	fbb0 f4f1 	udiv	r4, r0, r1
 8003ef6:	fb01 0314 	mls	r3, r1, r4, r0
 8003efa:	00db      	lsls	r3, r3, #3
 8003efc:	3332      	adds	r3, #50	; 0x32
 8003efe:	fbb3 f3f1 	udiv	r3, r3, r1
 8003f02:	f003 0107 	and.w	r1, r3, #7
 8003f06:	005b      	lsls	r3, r3, #1
 8003f08:	eb01 1104 	add.w	r1, r1, r4, lsl #4
 8003f0c:	f403 73f8 	and.w	r3, r3, #496	; 0x1f0
 8003f10:	440b      	add	r3, r1
 8003f12:	6093      	str	r3, [r2, #8]
 8003f14:	bd10      	pop	{r4, pc}
 8003f16:	f7ff f9a1 	bl	800325c <HAL_RCC_GetPCLK1Freq>
 8003f1a:	e7dd      	b.n	8003ed8 <UART_SetConfig+0x44>
 8003f1c:	0080      	lsls	r0, r0, #2
 8003f1e:	fbb3 f0f0 	udiv	r0, r3, r0
 8003f22:	fbb0 f4f1 	udiv	r4, r0, r1
 8003f26:	fb01 0314 	mls	r3, r1, r4, r0
 8003f2a:	011b      	lsls	r3, r3, #4
 8003f2c:	3332      	adds	r3, #50	; 0x32
 8003f2e:	fbb3 f3f1 	udiv	r3, r3, r1
 8003f32:	eb03 1304 	add.w	r3, r3, r4, lsl #4
 8003f36:	e7ec      	b.n	8003f12 <UART_SetConfig+0x7e>
 8003f38:	40013800 	.word	0x40013800

08003f3c <HAL_UART_Init>:
 8003f3c:	b510      	push	{r4, lr}
 8003f3e:	4604      	mov	r4, r0
 8003f40:	b340      	cbz	r0, 8003f94 <HAL_UART_Init+0x58>
 8003f42:	f890 303d 	ldrb.w	r3, [r0, #61]	; 0x3d
 8003f46:	f003 02ff 	and.w	r2, r3, #255	; 0xff
 8003f4a:	b91b      	cbnz	r3, 8003f54 <HAL_UART_Init+0x18>
 8003f4c:	f880 203c 	strb.w	r2, [r0, #60]	; 0x3c
 8003f50:	f7fd fa60 	bl	8001414 <HAL_UART_MspInit>
 8003f54:	2324      	movs	r3, #36	; 0x24
 8003f56:	6822      	ldr	r2, [r4, #0]
 8003f58:	f884 303d 	strb.w	r3, [r4, #61]	; 0x3d
 8003f5c:	68d3      	ldr	r3, [r2, #12]
 8003f5e:	4620      	mov	r0, r4
 8003f60:	f423 5300 	bic.w	r3, r3, #8192	; 0x2000
 8003f64:	60d3      	str	r3, [r2, #12]
 8003f66:	f7ff ff95 	bl	8003e94 <UART_SetConfig>
 8003f6a:	6823      	ldr	r3, [r4, #0]
 8003f6c:	2000      	movs	r0, #0
 8003f6e:	691a      	ldr	r2, [r3, #16]
 8003f70:	f422 4290 	bic.w	r2, r2, #18432	; 0x4800
 8003f74:	611a      	str	r2, [r3, #16]
 8003f76:	695a      	ldr	r2, [r3, #20]
 8003f78:	f022 022a 	bic.w	r2, r2, #42	; 0x2a
 8003f7c:	615a      	str	r2, [r3, #20]
 8003f7e:	68da      	ldr	r2, [r3, #12]
 8003f80:	f442 5200 	orr.w	r2, r2, #8192	; 0x2000
 8003f84:	60da      	str	r2, [r3, #12]
 8003f86:	2320      	movs	r3, #32
 8003f88:	6420      	str	r0, [r4, #64]	; 0x40
 8003f8a:	f884 303d 	strb.w	r3, [r4, #61]	; 0x3d
 8003f8e:	f884 303e 	strb.w	r3, [r4, #62]	; 0x3e
 8003f92:	bd10      	pop	{r4, pc}
 8003f94:	2001      	movs	r0, #1
 8003f96:	e7fc      	b.n	8003f92 <HAL_UART_Init+0x56>

08003f98 <MX_FATFS_Init>:
 8003f98:	b508      	push	{r3, lr}
 8003f9a:	4903      	ldr	r1, [pc, #12]	; (8003fa8 <MX_FATFS_Init+0x10>)
 8003f9c:	4803      	ldr	r0, [pc, #12]	; (8003fac <MX_FATFS_Init+0x14>)
 8003f9e:	f001 fe3b 	bl	8005c18 <FATFS_LinkDriver>
 8003fa2:	4b03      	ldr	r3, [pc, #12]	; (8003fb0 <MX_FATFS_Init+0x18>)
 8003fa4:	7018      	strb	r0, [r3, #0]
 8003fa6:	bd08      	pop	{r3, pc}
 8003fa8:	200025e8 	.word	0x200025e8
 8003fac:	20000058 	.word	0x20000058
 8003fb0:	200025ec 	.word	0x200025ec

08003fb4 <get_fattime>:
 8003fb4:	2000      	movs	r0, #0
 8003fb6:	4770      	bx	lr

08003fb8 <USER_initialize>:
 8003fb8:	f7fc bba8 	b.w	800070c <SD_disk_initialize>

08003fbc <USER_status>:
 8003fbc:	f7fc bc52 	b.w	8000864 <SD_disk_status>

08003fc0 <USER_read>:
 8003fc0:	f7fc bc5a 	b.w	8000878 <SD_disk_read>

08003fc4 <USER_write>:
 8003fc4:	f7fc bc9e 	b.w	8000904 <SD_disk_write>

08003fc8 <USER_ioctl>:
 8003fc8:	f7fc bcf4 	b.w	80009b4 <SD_disk_ioctl>

08003fcc <disk_status>:
 8003fcc:	4b03      	ldr	r3, [pc, #12]	; (8003fdc <disk_status+0x10>)
 8003fce:	181a      	adds	r2, r3, r0
 8003fd0:	eb03 0380 	add.w	r3, r3, r0, lsl #2
 8003fd4:	685b      	ldr	r3, [r3, #4]
 8003fd6:	7a10      	ldrb	r0, [r2, #8]
 8003fd8:	685b      	ldr	r3, [r3, #4]
 8003fda:	4718      	bx	r3
 8003fdc:	20000364 	.word	0x20000364

08003fe0 <disk_initialize>:
 8003fe0:	4b06      	ldr	r3, [pc, #24]	; (8003ffc <disk_initialize+0x1c>)
 8003fe2:	5c1a      	ldrb	r2, [r3, r0]
 8003fe4:	b942      	cbnz	r2, 8003ff8 <disk_initialize+0x18>
 8003fe6:	2201      	movs	r2, #1
 8003fe8:	541a      	strb	r2, [r3, r0]
 8003fea:	181a      	adds	r2, r3, r0
 8003fec:	eb03 0380 	add.w	r3, r3, r0, lsl #2
 8003ff0:	685b      	ldr	r3, [r3, #4]
 8003ff2:	7a10      	ldrb	r0, [r2, #8]
 8003ff4:	681b      	ldr	r3, [r3, #0]
 8003ff6:	4718      	bx	r3
 8003ff8:	2000      	movs	r0, #0
 8003ffa:	4770      	bx	lr
 8003ffc:	20000364 	.word	0x20000364

08004000 <disk_read>:
 8004000:	b430      	push	{r4, r5}
 8004002:	4c05      	ldr	r4, [pc, #20]	; (8004018 <disk_read+0x18>)
 8004004:	1825      	adds	r5, r4, r0
 8004006:	eb04 0480 	add.w	r4, r4, r0, lsl #2
 800400a:	6860      	ldr	r0, [r4, #4]
 800400c:	6884      	ldr	r4, [r0, #8]
 800400e:	7a28      	ldrb	r0, [r5, #8]
 8004010:	46a4      	mov	ip, r4
 8004012:	bc30      	pop	{r4, r5}
 8004014:	4760      	bx	ip
 8004016:	bf00      	nop
 8004018:	20000364 	.word	0x20000364

0800401c <disk_write>:
 800401c:	b430      	push	{r4, r5}
 800401e:	4c05      	ldr	r4, [pc, #20]	; (8004034 <disk_write+0x18>)
 8004020:	1825      	adds	r5, r4, r0
 8004022:	eb04 0480 	add.w	r4, r4, r0, lsl #2
 8004026:	6860      	ldr	r0, [r4, #4]
 8004028:	68c4      	ldr	r4, [r0, #12]
 800402a:	7a28      	ldrb	r0, [r5, #8]
 800402c:	46a4      	mov	ip, r4
 800402e:	bc30      	pop	{r4, r5}
 8004030:	4760      	bx	ip
 8004032:	bf00      	nop
 8004034:	20000364 	.word	0x20000364

08004038 <disk_ioctl>:
 8004038:	b410      	push	{r4}
 800403a:	4b04      	ldr	r3, [pc, #16]	; (800404c <disk_ioctl+0x14>)
 800403c:	181c      	adds	r4, r3, r0
 800403e:	eb03 0380 	add.w	r3, r3, r0, lsl #2
 8004042:	685b      	ldr	r3, [r3, #4]
 8004044:	7a20      	ldrb	r0, [r4, #8]
 8004046:	691b      	ldr	r3, [r3, #16]
 8004048:	bc10      	pop	{r4}
 800404a:	4718      	bx	r3
 800404c:	20000364 	.word	0x20000364

08004050 <ld_dword>:
 8004050:	8842      	ldrh	r2, [r0, #2]
 8004052:	7843      	ldrb	r3, [r0, #1]
 8004054:	7800      	ldrb	r0, [r0, #0]
 8004056:	ea43 2302 	orr.w	r3, r3, r2, lsl #8
 800405a:	ea40 2003 	orr.w	r0, r0, r3, lsl #8
 800405e:	4770      	bx	lr

08004060 <st_dword>:
 8004060:	0a0b      	lsrs	r3, r1, #8
 8004062:	7001      	strb	r1, [r0, #0]
 8004064:	7043      	strb	r3, [r0, #1]
 8004066:	0c0b      	lsrs	r3, r1, #16
 8004068:	0e09      	lsrs	r1, r1, #24
 800406a:	7083      	strb	r3, [r0, #2]
 800406c:	70c1      	strb	r1, [r0, #3]
 800406e:	4770      	bx	lr

08004070 <mem_set>:
 8004070:	4402      	add	r2, r0
 8004072:	f800 1b01 	strb.w	r1, [r0], #1
 8004076:	4290      	cmp	r0, r2
 8004078:	d1fb      	bne.n	8004072 <mem_set+0x2>
 800407a:	4770      	bx	lr

0800407c <chk_lock>:
 800407c:	4b1c      	ldr	r3, [pc, #112]	; (80040f0 <chk_lock+0x74>)
 800407e:	b530      	push	{r4, r5, lr}
 8004080:	681a      	ldr	r2, [r3, #0]
 8004082:	4604      	mov	r4, r0
 8004084:	b1fa      	cbz	r2, 80040c6 <chk_lock+0x4a>
 8004086:	6800      	ldr	r0, [r0, #0]
 8004088:	4290      	cmp	r0, r2
 800408a:	d11e      	bne.n	80040ca <chk_lock+0x4e>
 800408c:	6858      	ldr	r0, [r3, #4]
 800408e:	68a2      	ldr	r2, [r4, #8]
 8004090:	4290      	cmp	r0, r2
 8004092:	d11a      	bne.n	80040ca <chk_lock+0x4e>
 8004094:	6962      	ldr	r2, [r4, #20]
 8004096:	6898      	ldr	r0, [r3, #8]
 8004098:	4290      	cmp	r0, r2
 800409a:	f04f 0200 	mov.w	r2, #0
 800409e:	d022      	beq.n	80040e6 <chk_lock+0x6a>
 80040a0:	6918      	ldr	r0, [r3, #16]
 80040a2:	b178      	cbz	r0, 80040c4 <chk_lock+0x48>
 80040a4:	6825      	ldr	r5, [r4, #0]
 80040a6:	42a8      	cmp	r0, r5
 80040a8:	d107      	bne.n	80040ba <chk_lock+0x3e>
 80040aa:	695d      	ldr	r5, [r3, #20]
 80040ac:	68a0      	ldr	r0, [r4, #8]
 80040ae:	4285      	cmp	r5, r0
 80040b0:	d103      	bne.n	80040ba <chk_lock+0x3e>
 80040b2:	699d      	ldr	r5, [r3, #24]
 80040b4:	6960      	ldr	r0, [r4, #20]
 80040b6:	4285      	cmp	r5, r0
 80040b8:	d014      	beq.n	80040e4 <chk_lock+0x68>
 80040ba:	b98a      	cbnz	r2, 80040e0 <chk_lock+0x64>
 80040bc:	2902      	cmp	r1, #2
 80040be:	bf0c      	ite	eq
 80040c0:	2000      	moveq	r0, #0
 80040c2:	2012      	movne	r0, #18
 80040c4:	bd30      	pop	{r4, r5, pc}
 80040c6:	2201      	movs	r2, #1
 80040c8:	e7ea      	b.n	80040a0 <chk_lock+0x24>
 80040ca:	2200      	movs	r2, #0
 80040cc:	e7e8      	b.n	80040a0 <chk_lock+0x24>
 80040ce:	eb03 1302 	add.w	r3, r3, r2, lsl #4
 80040d2:	899b      	ldrh	r3, [r3, #12]
 80040d4:	f5b3 7f80 	cmp.w	r3, #256	; 0x100
 80040d8:	bf14      	ite	ne
 80040da:	2000      	movne	r0, #0
 80040dc:	2010      	moveq	r0, #16
 80040de:	e7f1      	b.n	80040c4 <chk_lock+0x48>
 80040e0:	2000      	movs	r0, #0
 80040e2:	e7ef      	b.n	80040c4 <chk_lock+0x48>
 80040e4:	2201      	movs	r2, #1
 80040e6:	2900      	cmp	r1, #0
 80040e8:	d0f1      	beq.n	80040ce <chk_lock+0x52>
 80040ea:	2010      	movs	r0, #16
 80040ec:	e7ea      	b.n	80040c4 <chk_lock+0x48>
 80040ee:	bf00      	nop
 80040f0:	20000140 	.word	0x20000140

080040f4 <inc_lock>:
 80040f4:	4a1f      	ldr	r2, [pc, #124]	; (8004174 <inc_lock+0x80>)
 80040f6:	b5f0      	push	{r4, r5, r6, r7, lr}
 80040f8:	6813      	ldr	r3, [r2, #0]
 80040fa:	6806      	ldr	r6, [r0, #0]
 80040fc:	429e      	cmp	r6, r3
 80040fe:	d107      	bne.n	8004110 <inc_lock+0x1c>
 8004100:	6855      	ldr	r5, [r2, #4]
 8004102:	6884      	ldr	r4, [r0, #8]
 8004104:	42a5      	cmp	r5, r4
 8004106:	d103      	bne.n	8004110 <inc_lock+0x1c>
 8004108:	6945      	ldr	r5, [r0, #20]
 800410a:	6894      	ldr	r4, [r2, #8]
 800410c:	42a5      	cmp	r5, r4
 800410e:	d01b      	beq.n	8004148 <inc_lock+0x54>
 8004110:	6914      	ldr	r4, [r2, #16]
 8004112:	42b4      	cmp	r4, r6
 8004114:	d107      	bne.n	8004126 <inc_lock+0x32>
 8004116:	6957      	ldr	r7, [r2, #20]
 8004118:	6885      	ldr	r5, [r0, #8]
 800411a:	42af      	cmp	r7, r5
 800411c:	d103      	bne.n	8004126 <inc_lock+0x32>
 800411e:	6997      	ldr	r7, [r2, #24]
 8004120:	6945      	ldr	r5, [r0, #20]
 8004122:	42af      	cmp	r7, r5
 8004124:	d019      	beq.n	800415a <inc_lock+0x66>
 8004126:	b10b      	cbz	r3, 800412c <inc_lock+0x38>
 8004128:	b9ac      	cbnz	r4, 8004156 <inc_lock+0x62>
 800412a:	2301      	movs	r3, #1
 800412c:	011d      	lsls	r5, r3, #4
 800412e:	5156      	str	r6, [r2, r5]
 8004130:	6885      	ldr	r5, [r0, #8]
 8004132:	6940      	ldr	r0, [r0, #20]
 8004134:	eb02 1403 	add.w	r4, r2, r3, lsl #4
 8004138:	60a0      	str	r0, [r4, #8]
 800413a:	2000      	movs	r0, #0
 800413c:	6065      	str	r5, [r4, #4]
 800413e:	81a0      	strh	r0, [r4, #12]
 8004140:	b169      	cbz	r1, 800415e <inc_lock+0x6a>
 8004142:	f44f 7180 	mov.w	r1, #256	; 0x100
 8004146:	e00f      	b.n	8004168 <inc_lock+0x74>
 8004148:	2300      	movs	r3, #0
 800414a:	b141      	cbz	r1, 800415e <inc_lock+0x6a>
 800414c:	eb02 1103 	add.w	r1, r2, r3, lsl #4
 8004150:	8989      	ldrh	r1, [r1, #12]
 8004152:	2900      	cmp	r1, #0
 8004154:	d0f5      	beq.n	8004142 <inc_lock+0x4e>
 8004156:	2000      	movs	r0, #0
 8004158:	e00a      	b.n	8004170 <inc_lock+0x7c>
 800415a:	2301      	movs	r3, #1
 800415c:	e7f5      	b.n	800414a <inc_lock+0x56>
 800415e:	eb02 1103 	add.w	r1, r2, r3, lsl #4
 8004162:	8989      	ldrh	r1, [r1, #12]
 8004164:	3101      	adds	r1, #1
 8004166:	b289      	uxth	r1, r1
 8004168:	eb02 1203 	add.w	r2, r2, r3, lsl #4
 800416c:	8191      	strh	r1, [r2, #12]
 800416e:	1c58      	adds	r0, r3, #1
 8004170:	bdf0      	pop	{r4, r5, r6, r7, pc}
 8004172:	bf00      	nop
 8004174:	20000140 	.word	0x20000140

08004178 <dec_lock>:
 8004178:	3801      	subs	r0, #1
 800417a:	2801      	cmp	r0, #1
 800417c:	d815      	bhi.n	80041aa <dec_lock+0x32>
 800417e:	4a0c      	ldr	r2, [pc, #48]	; (80041b0 <dec_lock+0x38>)
 8004180:	0101      	lsls	r1, r0, #4
 8004182:	eb02 1000 	add.w	r0, r2, r0, lsl #4
 8004186:	8983      	ldrh	r3, [r0, #12]
 8004188:	f5b3 7f80 	cmp.w	r3, #256	; 0x100
 800418c:	d104      	bne.n	8004198 <dec_lock+0x20>
 800418e:	2300      	movs	r3, #0
 8004190:	8183      	strh	r3, [r0, #12]
 8004192:	2000      	movs	r0, #0
 8004194:	5050      	str	r0, [r2, r1]
 8004196:	4770      	bx	lr
 8004198:	2b00      	cmp	r3, #0
 800419a:	d0fa      	beq.n	8004192 <dec_lock+0x1a>
 800419c:	3b01      	subs	r3, #1
 800419e:	b29b      	uxth	r3, r3
 80041a0:	8183      	strh	r3, [r0, #12]
 80041a2:	2b00      	cmp	r3, #0
 80041a4:	d0f5      	beq.n	8004192 <dec_lock+0x1a>
 80041a6:	2000      	movs	r0, #0
 80041a8:	4770      	bx	lr
 80041aa:	2002      	movs	r0, #2
 80041ac:	4770      	bx	lr
 80041ae:	bf00      	nop
 80041b0:	20000140 	.word	0x20000140

080041b4 <clust2sect>:
 80041b4:	69c3      	ldr	r3, [r0, #28]
 80041b6:	3902      	subs	r1, #2
 80041b8:	3b02      	subs	r3, #2
 80041ba:	428b      	cmp	r3, r1
 80041bc:	bf83      	ittte	hi
 80041be:	8943      	ldrhhi	r3, [r0, #10]
 80041c0:	6b00      	ldrhi	r0, [r0, #48]	; 0x30
 80041c2:	fb01 0003 	mlahi	r0, r1, r3, r0
 80041c6:	2000      	movls	r0, #0
 80041c8:	4770      	bx	lr

080041ca <clmt_clust>:
 80041ca:	6802      	ldr	r2, [r0, #0]
 80041cc:	6ac3      	ldr	r3, [r0, #44]	; 0x2c
 80041ce:	8990      	ldrh	r0, [r2, #12]
 80041d0:	8952      	ldrh	r2, [r2, #10]
 80041d2:	fbb1 f1f0 	udiv	r1, r1, r0
 80041d6:	fbb1 f1f2 	udiv	r1, r1, r2
 80041da:	3304      	adds	r3, #4
 80041dc:	6818      	ldr	r0, [r3, #0]
 80041de:	b130      	cbz	r0, 80041ee <clmt_clust+0x24>
 80041e0:	4281      	cmp	r1, r0
 80041e2:	d302      	bcc.n	80041ea <clmt_clust+0x20>
 80041e4:	1a09      	subs	r1, r1, r0
 80041e6:	3308      	adds	r3, #8
 80041e8:	e7f8      	b.n	80041dc <clmt_clust+0x12>
 80041ea:	6858      	ldr	r0, [r3, #4]
 80041ec:	4408      	add	r0, r1
 80041ee:	4770      	bx	lr

080041f0 <sum_sfn>:
 80041f0:	4603      	mov	r3, r0
 80041f2:	f100 010b 	add.w	r1, r0, #11
 80041f6:	2000      	movs	r0, #0
 80041f8:	01c2      	lsls	r2, r0, #7
 80041fa:	ea42 0050 	orr.w	r0, r2, r0, lsr #1
 80041fe:	f813 2b01 	ldrb.w	r2, [r3], #1
 8004202:	4410      	add	r0, r2
 8004204:	428b      	cmp	r3, r1
 8004206:	f000 00ff 	and.w	r0, r0, #255	; 0xff
 800420a:	d1f5      	bne.n	80041f8 <sum_sfn+0x8>
 800420c:	4770      	bx	lr

0800420e <get_ldnumber>:
 800420e:	6802      	ldr	r2, [r0, #0]
 8004210:	b510      	push	{r4, lr}
 8004212:	b152      	cbz	r2, 800422a <get_ldnumber+0x1c>
 8004214:	4611      	mov	r1, r2
 8004216:	460b      	mov	r3, r1
 8004218:	f811 4b01 	ldrb.w	r4, [r1], #1
 800421c:	2c1f      	cmp	r4, #31
 800421e:	d90c      	bls.n	800423a <get_ldnumber+0x2c>
 8004220:	2c3a      	cmp	r4, #58	; 0x3a
 8004222:	d1f8      	bne.n	8004216 <get_ldnumber+0x8>
 8004224:	1c51      	adds	r1, r2, #1
 8004226:	428b      	cmp	r3, r1
 8004228:	d002      	beq.n	8004230 <get_ldnumber+0x22>
 800422a:	f04f 30ff 	mov.w	r0, #4294967295
 800422e:	e005      	b.n	800423c <get_ldnumber+0x2e>
 8004230:	7812      	ldrb	r2, [r2, #0]
 8004232:	2a30      	cmp	r2, #48	; 0x30
 8004234:	d1f9      	bne.n	800422a <get_ldnumber+0x1c>
 8004236:	3301      	adds	r3, #1
 8004238:	6003      	str	r3, [r0, #0]
 800423a:	2000      	movs	r0, #0
 800423c:	bd10      	pop	{r4, pc}

0800423e <validate>:
 800423e:	b538      	push	{r3, r4, r5, lr}
 8004240:	460d      	mov	r5, r1
 8004242:	4604      	mov	r4, r0
 8004244:	b918      	cbnz	r0, 800424e <validate+0x10>
 8004246:	2009      	movs	r0, #9
 8004248:	2300      	movs	r3, #0
 800424a:	602b      	str	r3, [r5, #0]
 800424c:	bd38      	pop	{r3, r4, r5, pc}
 800424e:	6803      	ldr	r3, [r0, #0]
 8004250:	2b00      	cmp	r3, #0
 8004252:	d0f8      	beq.n	8004246 <validate+0x8>
 8004254:	781a      	ldrb	r2, [r3, #0]
 8004256:	2a00      	cmp	r2, #0
 8004258:	d0f5      	beq.n	8004246 <validate+0x8>
 800425a:	8881      	ldrh	r1, [r0, #4]
 800425c:	88da      	ldrh	r2, [r3, #6]
 800425e:	4291      	cmp	r1, r2
 8004260:	d1f1      	bne.n	8004246 <validate+0x8>
 8004262:	7858      	ldrb	r0, [r3, #1]
 8004264:	f7ff feb2 	bl	8003fcc <disk_status>
 8004268:	f010 0001 	ands.w	r0, r0, #1
 800426c:	d1eb      	bne.n	8004246 <validate+0x8>
 800426e:	6823      	ldr	r3, [r4, #0]
 8004270:	e7eb      	b.n	800424a <validate+0xc>

08004272 <mem_cpy.part.0>:
 8004272:	3801      	subs	r0, #1
 8004274:	440a      	add	r2, r1
 8004276:	f811 3b01 	ldrb.w	r3, [r1], #1
 800427a:	4291      	cmp	r1, r2
 800427c:	f800 3f01 	strb.w	r3, [r0, #1]!
 8004280:	d1f9      	bne.n	8004276 <mem_cpy.part.0+0x4>
 8004282:	4770      	bx	lr

08004284 <ld_clust.isra.0>:
 8004284:	7eca      	ldrb	r2, [r1, #27]
 8004286:	7e8b      	ldrb	r3, [r1, #26]
 8004288:	2803      	cmp	r0, #3
 800428a:	ea43 2302 	orr.w	r3, r3, r2, lsl #8
 800428e:	bf01      	itttt	eq
 8004290:	7d48      	ldrbeq	r0, [r1, #21]
 8004292:	7d0a      	ldrbeq	r2, [r1, #20]
 8004294:	ea42 2200 	orreq.w	r2, r2, r0, lsl #8
 8004298:	ea43 4302 	orreq.w	r3, r3, r2, lsl #16
 800429c:	4618      	mov	r0, r3
 800429e:	4770      	bx	lr

080042a0 <st_clust.isra.0>:
 80042a0:	f3c2 2307 	ubfx	r3, r2, #8, #8
 80042a4:	768a      	strb	r2, [r1, #26]
 80042a6:	76cb      	strb	r3, [r1, #27]
 80042a8:	7803      	ldrb	r3, [r0, #0]
 80042aa:	2b03      	cmp	r3, #3
 80042ac:	bf01      	itttt	eq
 80042ae:	0c12      	lsreq	r2, r2, #16
 80042b0:	750a      	strbeq	r2, [r1, #20]
 80042b2:	0a12      	lsreq	r2, r2, #8
 80042b4:	754a      	strbeq	r2, [r1, #21]
 80042b6:	4770      	bx	lr

080042b8 <sync_window.part.0>:
 80042b8:	e92d 41f0 	stmdb	sp!, {r4, r5, r6, r7, r8, lr}
 80042bc:	6b46      	ldr	r6, [r0, #52]	; 0x34
 80042be:	f100 0838 	add.w	r8, r0, #56	; 0x38
 80042c2:	4604      	mov	r4, r0
 80042c4:	2301      	movs	r3, #1
 80042c6:	4632      	mov	r2, r6
 80042c8:	4641      	mov	r1, r8
 80042ca:	7840      	ldrb	r0, [r0, #1]
 80042cc:	f7ff fea6 	bl	800401c <disk_write>
 80042d0:	4605      	mov	r5, r0
 80042d2:	b9a8      	cbnz	r0, 8004300 <sync_window.part.0+0x48>
 80042d4:	6aa3      	ldr	r3, [r4, #40]	; 0x28
 80042d6:	6a22      	ldr	r2, [r4, #32]
 80042d8:	1af3      	subs	r3, r6, r3
 80042da:	4293      	cmp	r3, r2
 80042dc:	70e0      	strb	r0, [r4, #3]
 80042de:	d202      	bcs.n	80042e6 <sync_window.part.0+0x2e>
 80042e0:	78a7      	ldrb	r7, [r4, #2]
 80042e2:	2f01      	cmp	r7, #1
 80042e4:	d802      	bhi.n	80042ec <sync_window.part.0+0x34>
 80042e6:	4628      	mov	r0, r5
 80042e8:	e8bd 81f0 	ldmia.w	sp!, {r4, r5, r6, r7, r8, pc}
 80042ec:	6a23      	ldr	r3, [r4, #32]
 80042ee:	4641      	mov	r1, r8
 80042f0:	441e      	add	r6, r3
 80042f2:	4632      	mov	r2, r6
 80042f4:	2301      	movs	r3, #1
 80042f6:	7860      	ldrb	r0, [r4, #1]
 80042f8:	f7ff fe90 	bl	800401c <disk_write>
 80042fc:	3f01      	subs	r7, #1
 80042fe:	e7f0      	b.n	80042e2 <sync_window.part.0+0x2a>
 8004300:	2501      	movs	r5, #1
 8004302:	e7f0      	b.n	80042e6 <sync_window.part.0+0x2e>

08004304 <sync_window>:
 8004304:	78c3      	ldrb	r3, [r0, #3]
 8004306:	b10b      	cbz	r3, 800430c <sync_window+0x8>
 8004308:	f7ff bfd6 	b.w	80042b8 <sync_window.part.0>
 800430c:	4618      	mov	r0, r3
 800430e:	4770      	bx	lr

08004310 <move_window>:
 8004310:	b538      	push	{r3, r4, r5, lr}
 8004312:	6b43      	ldr	r3, [r0, #52]	; 0x34
 8004314:	4605      	mov	r5, r0
 8004316:	428b      	cmp	r3, r1
 8004318:	460c      	mov	r4, r1
 800431a:	d010      	beq.n	800433e <move_window+0x2e>
 800431c:	f7ff fff2 	bl	8004304 <sync_window>
 8004320:	b960      	cbnz	r0, 800433c <move_window+0x2c>
 8004322:	4622      	mov	r2, r4
 8004324:	2301      	movs	r3, #1
 8004326:	7868      	ldrb	r0, [r5, #1]
 8004328:	f105 0138 	add.w	r1, r5, #56	; 0x38
 800432c:	f7ff fe68 	bl	8004000 <disk_read>
 8004330:	2800      	cmp	r0, #0
 8004332:	bf1c      	itt	ne
 8004334:	f04f 34ff 	movne.w	r4, #4294967295
 8004338:	2001      	movne	r0, #1
 800433a:	636c      	str	r4, [r5, #52]	; 0x34
 800433c:	bd38      	pop	{r3, r4, r5, pc}
 800433e:	2000      	movs	r0, #0
 8004340:	e7fc      	b.n	800433c <move_window+0x2c>
	...

08004344 <check_fs>:
 8004344:	2300      	movs	r3, #0
 8004346:	b510      	push	{r4, lr}
 8004348:	70c3      	strb	r3, [r0, #3]
 800434a:	f04f 33ff 	mov.w	r3, #4294967295
 800434e:	6343      	str	r3, [r0, #52]	; 0x34
 8004350:	4604      	mov	r4, r0
 8004352:	f7ff ffdd 	bl	8004310 <move_window>
 8004356:	4601      	mov	r1, r0
 8004358:	bb30      	cbnz	r0, 80043a8 <check_fs+0x64>
 800435a:	f894 2237 	ldrb.w	r2, [r4, #567]	; 0x237
 800435e:	f894 3236 	ldrb.w	r3, [r4, #566]	; 0x236
 8004362:	ea43 2302 	orr.w	r3, r3, r2, lsl #8
 8004366:	f64a 2255 	movw	r2, #43605	; 0xaa55
 800436a:	4293      	cmp	r3, r2
 800436c:	d11e      	bne.n	80043ac <check_fs+0x68>
 800436e:	f894 3038 	ldrb.w	r3, [r4, #56]	; 0x38
 8004372:	2be9      	cmp	r3, #233	; 0xe9
 8004374:	d005      	beq.n	8004382 <check_fs+0x3e>
 8004376:	6ba3      	ldr	r3, [r4, #56]	; 0x38
 8004378:	4a0e      	ldr	r2, [pc, #56]	; (80043b4 <check_fs+0x70>)
 800437a:	f003 13ff 	and.w	r3, r3, #16711935	; 0xff00ff
 800437e:	4293      	cmp	r3, r2
 8004380:	d116      	bne.n	80043b0 <check_fs+0x6c>
 8004382:	f104 006e 	add.w	r0, r4, #110	; 0x6e
 8004386:	f7ff fe63 	bl	8004050 <ld_dword>
 800438a:	4b0b      	ldr	r3, [pc, #44]	; (80043b8 <check_fs+0x74>)
 800438c:	f020 407f 	bic.w	r0, r0, #4278190080	; 0xff000000
 8004390:	4298      	cmp	r0, r3
 8004392:	d007      	beq.n	80043a4 <check_fs+0x60>
 8004394:	f104 008a 	add.w	r0, r4, #138	; 0x8a
 8004398:	f7ff fe5a 	bl	8004050 <ld_dword>
 800439c:	4b07      	ldr	r3, [pc, #28]	; (80043bc <check_fs+0x78>)
 800439e:	4298      	cmp	r0, r3
 80043a0:	bf18      	it	ne
 80043a2:	2102      	movne	r1, #2
 80043a4:	4608      	mov	r0, r1
 80043a6:	bd10      	pop	{r4, pc}
 80043a8:	2104      	movs	r1, #4
 80043aa:	e7fb      	b.n	80043a4 <check_fs+0x60>
 80043ac:	2103      	movs	r1, #3
 80043ae:	e7f9      	b.n	80043a4 <check_fs+0x60>
 80043b0:	2102      	movs	r1, #2
 80043b2:	e7f7      	b.n	80043a4 <check_fs+0x60>
 80043b4:	009000eb 	.word	0x009000eb
 80043b8:	00544146 	.word	0x00544146
 80043bc:	33544146 	.word	0x33544146

080043c0 <find_volume>:
 80043c0:	2300      	movs	r3, #0
 80043c2:	e92d 4ff0 	stmdb	sp!, {r4, r5, r6, r7, r8, r9, sl, fp, lr}
 80043c6:	600b      	str	r3, [r1, #0]
 80043c8:	b087      	sub	sp, #28
 80043ca:	460f      	mov	r7, r1
 80043cc:	4615      	mov	r5, r2
 80043ce:	f7ff ff1e 	bl	800420e <get_ldnumber>
 80043d2:	1e06      	subs	r6, r0, #0
 80043d4:	f2c0 8169 	blt.w	80046aa <find_volume+0x2ea>
 80043d8:	4bb7      	ldr	r3, [pc, #732]	; (80046b8 <find_volume+0x2f8>)
 80043da:	f853 4026 	ldr.w	r4, [r3, r6, lsl #2]
 80043de:	2c00      	cmp	r4, #0
 80043e0:	f000 8165 	beq.w	80046ae <find_volume+0x2ee>
 80043e4:	603c      	str	r4, [r7, #0]
 80043e6:	7823      	ldrb	r3, [r4, #0]
 80043e8:	f005 05fe 	and.w	r5, r5, #254	; 0xfe
 80043ec:	b16b      	cbz	r3, 800440a <find_volume+0x4a>
 80043ee:	7860      	ldrb	r0, [r4, #1]
 80043f0:	f7ff fdec 	bl	8003fcc <disk_status>
 80043f4:	07c1      	lsls	r1, r0, #31
 80043f6:	d408      	bmi.n	800440a <find_volume+0x4a>
 80043f8:	b11d      	cbz	r5, 8004402 <find_volume+0x42>
 80043fa:	f010 0504 	ands.w	r5, r0, #4
 80043fe:	d000      	beq.n	8004402 <find_volume+0x42>
 8004400:	250a      	movs	r5, #10
 8004402:	4628      	mov	r0, r5
 8004404:	b007      	add	sp, #28
 8004406:	e8bd 8ff0 	ldmia.w	sp!, {r4, r5, r6, r7, r8, r9, sl, fp, pc}
 800440a:	2300      	movs	r3, #0
 800440c:	b2f0      	uxtb	r0, r6
 800440e:	7023      	strb	r3, [r4, #0]
 8004410:	7060      	strb	r0, [r4, #1]
 8004412:	f7ff fde5 	bl	8003fe0 <disk_initialize>
 8004416:	07c2      	lsls	r2, r0, #31
 8004418:	f100 814b 	bmi.w	80046b2 <find_volume+0x2f2>
 800441c:	b10d      	cbz	r5, 8004422 <find_volume+0x62>
 800441e:	0743      	lsls	r3, r0, #29
 8004420:	d4ee      	bmi.n	8004400 <find_volume+0x40>
 8004422:	2102      	movs	r1, #2
 8004424:	7860      	ldrb	r0, [r4, #1]
 8004426:	f104 020c 	add.w	r2, r4, #12
 800442a:	f7ff fe05 	bl	8004038 <disk_ioctl>
 800442e:	4605      	mov	r5, r0
 8004430:	b108      	cbz	r0, 8004436 <find_volume+0x76>
 8004432:	2501      	movs	r5, #1
 8004434:	e7e5      	b.n	8004402 <find_volume+0x42>
 8004436:	89a3      	ldrh	r3, [r4, #12]
 8004438:	f5a3 7200 	sub.w	r2, r3, #512	; 0x200
 800443c:	f5b2 6f60 	cmp.w	r2, #3584	; 0xe00
 8004440:	d8f7      	bhi.n	8004432 <find_volume+0x72>
 8004442:	1e5a      	subs	r2, r3, #1
 8004444:	421a      	tst	r2, r3
 8004446:	d1f4      	bne.n	8004432 <find_volume+0x72>
 8004448:	4601      	mov	r1, r0
 800444a:	4620      	mov	r0, r4
 800444c:	f7ff ff7a 	bl	8004344 <check_fs>
 8004450:	2802      	cmp	r0, #2
 8004452:	f040 810b 	bne.w	800466c <find_volume+0x2ac>
 8004456:	ae02      	add	r6, sp, #8
 8004458:	4637      	mov	r7, r6
 800445a:	f504 71ff 	add.w	r1, r4, #510	; 0x1fe
 800445e:	f204 283e 	addw	r8, r4, #574	; 0x23e
 8004462:	f811 0c04 	ldrb.w	r0, [r1, #-4]
 8004466:	b110      	cbz	r0, 800446e <find_volume+0xae>
 8004468:	4608      	mov	r0, r1
 800446a:	f7ff fdf1 	bl	8004050 <ld_dword>
 800446e:	3110      	adds	r1, #16
 8004470:	4588      	cmp	r8, r1
 8004472:	f847 0b04 	str.w	r0, [r7], #4
 8004476:	d1f4      	bne.n	8004462 <find_volume+0xa2>
 8004478:	2700      	movs	r7, #0
 800447a:	f856 bb04 	ldr.w	fp, [r6], #4
 800447e:	f1bb 0f00 	cmp.w	fp, #0
 8004482:	f000 80eb 	beq.w	800465c <find_volume+0x29c>
 8004486:	4659      	mov	r1, fp
 8004488:	4620      	mov	r0, r4
 800448a:	f7ff ff5b 	bl	8004344 <check_fs>
 800448e:	2801      	cmp	r0, #1
 8004490:	f200 80e5 	bhi.w	800465e <find_volume+0x29e>
 8004494:	f894 2044 	ldrb.w	r2, [r4, #68]	; 0x44
 8004498:	f894 3043 	ldrb.w	r3, [r4, #67]	; 0x43
 800449c:	f8b4 a00c 	ldrh.w	sl, [r4, #12]
 80044a0:	ea43 2302 	orr.w	r3, r3, r2, lsl #8
 80044a4:	459a      	cmp	sl, r3
 80044a6:	f040 80e6 	bne.w	8004676 <find_volume+0x2b6>
 80044aa:	f894 004f 	ldrb.w	r0, [r4, #79]	; 0x4f
 80044ae:	f894 604e 	ldrb.w	r6, [r4, #78]	; 0x4e
 80044b2:	ea56 2600 	orrs.w	r6, r6, r0, lsl #8
 80044b6:	d104      	bne.n	80044c2 <find_volume+0x102>
 80044b8:	f104 005c 	add.w	r0, r4, #92	; 0x5c
 80044bc:	f7ff fdc8 	bl	8004050 <ld_dword>
 80044c0:	4606      	mov	r6, r0
 80044c2:	f894 9048 	ldrb.w	r9, [r4, #72]	; 0x48
 80044c6:	6226      	str	r6, [r4, #32]
 80044c8:	f109 33ff 	add.w	r3, r9, #4294967295
 80044cc:	2b01      	cmp	r3, #1
 80044ce:	f884 9002 	strb.w	r9, [r4, #2]
 80044d2:	f200 80d0 	bhi.w	8004676 <find_volume+0x2b6>
 80044d6:	f894 3045 	ldrb.w	r3, [r4, #69]	; 0x45
 80044da:	8163      	strh	r3, [r4, #10]
 80044dc:	2b00      	cmp	r3, #0
 80044de:	f000 80ca 	beq.w	8004676 <find_volume+0x2b6>
 80044e2:	1e5a      	subs	r2, r3, #1
 80044e4:	421a      	tst	r2, r3
 80044e6:	f040 80c6 	bne.w	8004676 <find_volume+0x2b6>
 80044ea:	f894 204a 	ldrb.w	r2, [r4, #74]	; 0x4a
 80044ee:	f894 8049 	ldrb.w	r8, [r4, #73]	; 0x49
 80044f2:	ea48 2802 	orr.w	r8, r8, r2, lsl #8
 80044f6:	ea4f 125a 	mov.w	r2, sl, lsr #5
 80044fa:	fbb8 f7f2 	udiv	r7, r8, r2
 80044fe:	fb02 8217 	mls	r2, r2, r7, r8
 8004502:	b292      	uxth	r2, r2
 8004504:	fa0f f188 	sxth.w	r1, r8
 8004508:	f8a4 8008 	strh.w	r8, [r4, #8]
 800450c:	2a00      	cmp	r2, #0
 800450e:	f040 80b2 	bne.w	8004676 <find_volume+0x2b6>
 8004512:	f894 204c 	ldrb.w	r2, [r4, #76]	; 0x4c
 8004516:	f894 004b 	ldrb.w	r0, [r4, #75]	; 0x4b
 800451a:	ea50 2002 	orrs.w	r0, r0, r2, lsl #8
 800451e:	d105      	bne.n	800452c <find_volume+0x16c>
 8004520:	f104 0058 	add.w	r0, r4, #88	; 0x58
 8004524:	9301      	str	r3, [sp, #4]
 8004526:	f7ff fd93 	bl	8004050 <ld_dword>
 800452a:	9b01      	ldr	r3, [sp, #4]
 800452c:	f894 c047 	ldrb.w	ip, [r4, #71]	; 0x47
 8004530:	f894 2046 	ldrb.w	r2, [r4, #70]	; 0x46
 8004534:	ea52 220c 	orrs.w	r2, r2, ip, lsl #8
 8004538:	f000 809d 	beq.w	8004676 <find_volume+0x2b6>
 800453c:	fb06 fc09 	mul.w	ip, r6, r9
 8004540:	4417      	add	r7, r2
 8004542:	eb07 0e0c 	add.w	lr, r7, ip
 8004546:	4570      	cmp	r0, lr
 8004548:	f0c0 8095 	bcc.w	8004676 <find_volume+0x2b6>
 800454c:	eba0 000e 	sub.w	r0, r0, lr
 8004550:	4298      	cmp	r0, r3
 8004552:	fbb0 f7f3 	udiv	r7, r0, r3
 8004556:	f0c0 808e 	bcc.w	8004676 <find_volume+0x2b6>
 800455a:	f64f 73f5 	movw	r3, #65525	; 0xfff5
 800455e:	429f      	cmp	r7, r3
 8004560:	f200 808d 	bhi.w	800467e <find_volume+0x2be>
 8004564:	f640 79f5 	movw	r9, #4085	; 0xff5
 8004568:	454f      	cmp	r7, r9
 800456a:	bf8c      	ite	hi
 800456c:	f04f 0902 	movhi.w	r9, #2
 8004570:	f04f 0901 	movls.w	r9, #1
 8004574:	3702      	adds	r7, #2
 8004576:	445a      	add	r2, fp
 8004578:	eb0e 030b 	add.w	r3, lr, fp
 800457c:	f1b9 0f03 	cmp.w	r9, #3
 8004580:	61e7      	str	r7, [r4, #28]
 8004582:	f8c4 b024 	str.w	fp, [r4, #36]	; 0x24
 8004586:	62a2      	str	r2, [r4, #40]	; 0x28
 8004588:	6323      	str	r3, [r4, #48]	; 0x30
 800458a:	d17b      	bne.n	8004684 <find_volume+0x2c4>
 800458c:	f894 2063 	ldrb.w	r2, [r4, #99]	; 0x63
 8004590:	f894 3062 	ldrb.w	r3, [r4, #98]	; 0x62
 8004594:	ea43 2302 	orr.w	r3, r3, r2, lsl #8
 8004598:	4319      	orrs	r1, r3
 800459a:	b209      	sxth	r1, r1
 800459c:	2900      	cmp	r1, #0
 800459e:	d16a      	bne.n	8004676 <find_volume+0x2b6>
 80045a0:	f104 0064 	add.w	r0, r4, #100	; 0x64
 80045a4:	f7ff fd54 	bl	8004050 <ld_dword>
 80045a8:	00bf      	lsls	r7, r7, #2
 80045aa:	62e0      	str	r0, [r4, #44]	; 0x2c
 80045ac:	f10a 33ff 	add.w	r3, sl, #4294967295
 80045b0:	441f      	add	r7, r3
 80045b2:	fbb7 fafa 	udiv	sl, r7, sl
 80045b6:	45b2      	cmp	sl, r6
 80045b8:	d85d      	bhi.n	8004676 <find_volume+0x2b6>
 80045ba:	f04f 33ff 	mov.w	r3, #4294967295
 80045be:	e9c4 3305 	strd	r3, r3, [r4, #20]
 80045c2:	2380      	movs	r3, #128	; 0x80
 80045c4:	f1b9 0f03 	cmp.w	r9, #3
 80045c8:	7123      	strb	r3, [r4, #4]
 80045ca:	d130      	bne.n	800462e <find_volume+0x26e>
 80045cc:	f894 2069 	ldrb.w	r2, [r4, #105]	; 0x69
 80045d0:	f894 3068 	ldrb.w	r3, [r4, #104]	; 0x68
 80045d4:	ea43 2302 	orr.w	r3, r3, r2, lsl #8
 80045d8:	2b01      	cmp	r3, #1
 80045da:	d128      	bne.n	800462e <find_volume+0x26e>
 80045dc:	4620      	mov	r0, r4
 80045de:	f10b 0101 	add.w	r1, fp, #1
 80045e2:	f7ff fe95 	bl	8004310 <move_window>
 80045e6:	bb10      	cbnz	r0, 800462e <find_volume+0x26e>
 80045e8:	f894 2237 	ldrb.w	r2, [r4, #567]	; 0x237
 80045ec:	f894 3236 	ldrb.w	r3, [r4, #566]	; 0x236
 80045f0:	7120      	strb	r0, [r4, #4]
 80045f2:	ea43 2302 	orr.w	r3, r3, r2, lsl #8
 80045f6:	f64a 2255 	movw	r2, #43605	; 0xaa55
 80045fa:	4293      	cmp	r3, r2
 80045fc:	d117      	bne.n	800462e <find_volume+0x26e>
 80045fe:	f104 0038 	add.w	r0, r4, #56	; 0x38
 8004602:	f7ff fd25 	bl	8004050 <ld_dword>
 8004606:	4b2d      	ldr	r3, [pc, #180]	; (80046bc <find_volume+0x2fc>)
 8004608:	4298      	cmp	r0, r3
 800460a:	d110      	bne.n	800462e <find_volume+0x26e>
 800460c:	f504 7007 	add.w	r0, r4, #540	; 0x21c
 8004610:	f7ff fd1e 	bl	8004050 <ld_dword>
 8004614:	4b2a      	ldr	r3, [pc, #168]	; (80046c0 <find_volume+0x300>)
 8004616:	4298      	cmp	r0, r3
 8004618:	d109      	bne.n	800462e <find_volume+0x26e>
 800461a:	f504 7008 	add.w	r0, r4, #544	; 0x220
 800461e:	f7ff fd17 	bl	8004050 <ld_dword>
 8004622:	61a0      	str	r0, [r4, #24]
 8004624:	f504 7009 	add.w	r0, r4, #548	; 0x224
 8004628:	f7ff fd12 	bl	8004050 <ld_dword>
 800462c:	6160      	str	r0, [r4, #20]
 800462e:	4a25      	ldr	r2, [pc, #148]	; (80046c4 <find_volume+0x304>)
 8004630:	f884 9000 	strb.w	r9, [r4]
 8004634:	8813      	ldrh	r3, [r2, #0]
 8004636:	3301      	adds	r3, #1
 8004638:	b29b      	uxth	r3, r3
 800463a:	8013      	strh	r3, [r2, #0]
 800463c:	80e3      	strh	r3, [r4, #6]
 800463e:	4b22      	ldr	r3, [pc, #136]	; (80046c8 <find_volume+0x308>)
 8004640:	6123      	str	r3, [r4, #16]
 8004642:	4b22      	ldr	r3, [pc, #136]	; (80046cc <find_volume+0x30c>)
 8004644:	681a      	ldr	r2, [r3, #0]
 8004646:	4294      	cmp	r4, r2
 8004648:	bf04      	itt	eq
 800464a:	2200      	moveq	r2, #0
 800464c:	601a      	streq	r2, [r3, #0]
 800464e:	691a      	ldr	r2, [r3, #16]
 8004650:	4294      	cmp	r4, r2
 8004652:	f47f aed6 	bne.w	8004402 <find_volume+0x42>
 8004656:	2200      	movs	r2, #0
 8004658:	611a      	str	r2, [r3, #16]
 800465a:	e6d2      	b.n	8004402 <find_volume+0x42>
 800465c:	2003      	movs	r0, #3
 800465e:	3701      	adds	r7, #1
 8004660:	2f04      	cmp	r7, #4
 8004662:	f47f af0a 	bne.w	800447a <find_volume+0xba>
 8004666:	2804      	cmp	r0, #4
 8004668:	d105      	bne.n	8004676 <find_volume+0x2b6>
 800466a:	e6e2      	b.n	8004432 <find_volume+0x72>
 800466c:	2804      	cmp	r0, #4
 800466e:	f43f aee0 	beq.w	8004432 <find_volume+0x72>
 8004672:	2801      	cmp	r0, #1
 8004674:	d901      	bls.n	800467a <find_volume+0x2ba>
 8004676:	250d      	movs	r5, #13
 8004678:	e6c3      	b.n	8004402 <find_volume+0x42>
 800467a:	46ab      	mov	fp, r5
 800467c:	e70a      	b.n	8004494 <find_volume+0xd4>
 800467e:	f04f 0903 	mov.w	r9, #3
 8004682:	e777      	b.n	8004574 <find_volume+0x1b4>
 8004684:	f1b8 0f00 	cmp.w	r8, #0
 8004688:	d0f5      	beq.n	8004676 <find_volume+0x2b6>
 800468a:	f1b9 0f02 	cmp.w	r9, #2
 800468e:	ea4f 0347 	mov.w	r3, r7, lsl #1
 8004692:	bf18      	it	ne
 8004694:	19db      	addne	r3, r3, r7
 8004696:	4462      	add	r2, ip
 8004698:	bf14      	ite	ne
 800469a:	f007 0701 	andne.w	r7, r7, #1
 800469e:	461f      	moveq	r7, r3
 80046a0:	62e2      	str	r2, [r4, #44]	; 0x2c
 80046a2:	bf18      	it	ne
 80046a4:	eb07 0753 	addne.w	r7, r7, r3, lsr #1
 80046a8:	e780      	b.n	80045ac <find_volume+0x1ec>
 80046aa:	250b      	movs	r5, #11
 80046ac:	e6a9      	b.n	8004402 <find_volume+0x42>
 80046ae:	250c      	movs	r5, #12
 80046b0:	e6a7      	b.n	8004402 <find_volume+0x42>
 80046b2:	2503      	movs	r5, #3
 80046b4:	e6a5      	b.n	8004402 <find_volume+0x42>
 80046b6:	bf00      	nop
 80046b8:	2000013c 	.word	0x2000013c
 80046bc:	41615252 	.word	0x41615252
 80046c0:	61417272 	.word	0x61417272
 80046c4:	20000160 	.word	0x20000160
 80046c8:	20000162 	.word	0x20000162
 80046cc:	20000140 	.word	0x20000140

080046d0 <put_fat>:
 80046d0:	2901      	cmp	r1, #1
 80046d2:	e92d 47f0 	stmdb	sp!, {r4, r5, r6, r7, r8, r9, sl, lr}
 80046d6:	4604      	mov	r4, r0
 80046d8:	460e      	mov	r6, r1
 80046da:	4617      	mov	r7, r2
 80046dc:	f240 808a 	bls.w	80047f4 <put_fat+0x124>
 80046e0:	69c3      	ldr	r3, [r0, #28]
 80046e2:	428b      	cmp	r3, r1
 80046e4:	f240 8086 	bls.w	80047f4 <put_fat+0x124>
 80046e8:	7803      	ldrb	r3, [r0, #0]
 80046ea:	2b02      	cmp	r3, #2
 80046ec:	d049      	beq.n	8004782 <put_fat+0xb2>
 80046ee:	2b03      	cmp	r3, #3
 80046f0:	d060      	beq.n	80047b4 <put_fat+0xe4>
 80046f2:	2b01      	cmp	r3, #1
 80046f4:	d17e      	bne.n	80047f4 <put_fat+0x124>
 80046f6:	8983      	ldrh	r3, [r0, #12]
 80046f8:	eb01 0a51 	add.w	sl, r1, r1, lsr #1
 80046fc:	fbba f3f3 	udiv	r3, sl, r3
 8004700:	6a81      	ldr	r1, [r0, #40]	; 0x28
 8004702:	4419      	add	r1, r3
 8004704:	f7ff fe04 	bl	8004310 <move_window>
 8004708:	4605      	mov	r5, r0
 800470a:	bb78      	cbnz	r0, 800476c <put_fat+0x9c>
 800470c:	89a3      	ldrh	r3, [r4, #12]
 800470e:	f016 0601 	ands.w	r6, r6, #1
 8004712:	fbba f2f3 	udiv	r2, sl, r3
 8004716:	fb03 a212 	mls	r2, r3, r2, sl
 800471a:	f104 0838 	add.w	r8, r4, #56	; 0x38
 800471e:	bf17      	itett	ne
 8004720:	f818 3002 	ldrbne.w	r3, [r8, r2]
 8004724:	b2fb      	uxtbeq	r3, r7
 8004726:	f003 010f 	andne.w	r1, r3, #15
 800472a:	013b      	lslne	r3, r7, #4
 800472c:	bf1c      	itt	ne
 800472e:	f003 03f0 	andne.w	r3, r3, #240	; 0xf0
 8004732:	430b      	orrne	r3, r1
 8004734:	f808 3002 	strb.w	r3, [r8, r2]
 8004738:	2301      	movs	r3, #1
 800473a:	70e3      	strb	r3, [r4, #3]
 800473c:	89a3      	ldrh	r3, [r4, #12]
 800473e:	f10a 0901 	add.w	r9, sl, #1
 8004742:	fbb9 f3f3 	udiv	r3, r9, r3
 8004746:	6aa1      	ldr	r1, [r4, #40]	; 0x28
 8004748:	4620      	mov	r0, r4
 800474a:	4419      	add	r1, r3
 800474c:	f7ff fde0 	bl	8004310 <move_window>
 8004750:	4605      	mov	r5, r0
 8004752:	b958      	cbnz	r0, 800476c <put_fat+0x9c>
 8004754:	89a3      	ldrh	r3, [r4, #12]
 8004756:	fbb9 f0f3 	udiv	r0, r9, r3
 800475a:	fb03 9010 	mls	r0, r3, r0, r9
 800475e:	b146      	cbz	r6, 8004772 <put_fat+0xa2>
 8004760:	f3c7 1707 	ubfx	r7, r7, #4, #8
 8004764:	f808 7000 	strb.w	r7, [r8, r0]
 8004768:	2301      	movs	r3, #1
 800476a:	70e3      	strb	r3, [r4, #3]
 800476c:	4628      	mov	r0, r5
 800476e:	e8bd 87f0 	ldmia.w	sp!, {r4, r5, r6, r7, r8, r9, sl, pc}
 8004772:	f818 3000 	ldrb.w	r3, [r8, r0]
 8004776:	f3c7 2703 	ubfx	r7, r7, #8, #4
 800477a:	f023 030f 	bic.w	r3, r3, #15
 800477e:	431f      	orrs	r7, r3
 8004780:	e7f0      	b.n	8004764 <put_fat+0x94>
 8004782:	8983      	ldrh	r3, [r0, #12]
 8004784:	085b      	lsrs	r3, r3, #1
 8004786:	fbb1 f3f3 	udiv	r3, r1, r3
 800478a:	6a81      	ldr	r1, [r0, #40]	; 0x28
 800478c:	4419      	add	r1, r3
 800478e:	f7ff fdbf 	bl	8004310 <move_window>
 8004792:	4605      	mov	r5, r0
 8004794:	2800      	cmp	r0, #0
 8004796:	d1e9      	bne.n	800476c <put_fat+0x9c>
 8004798:	89a0      	ldrh	r0, [r4, #12]
 800479a:	0076      	lsls	r6, r6, #1
 800479c:	fbb6 f3f0 	udiv	r3, r6, r0
 80047a0:	fb00 6613 	mls	r6, r0, r3, r6
 80047a4:	f104 0238 	add.w	r2, r4, #56	; 0x38
 80047a8:	5597      	strb	r7, [r2, r6]
 80047aa:	1993      	adds	r3, r2, r6
 80047ac:	f3c7 2707 	ubfx	r7, r7, #8, #8
 80047b0:	705f      	strb	r7, [r3, #1]
 80047b2:	e7d9      	b.n	8004768 <put_fat+0x98>
 80047b4:	8983      	ldrh	r3, [r0, #12]
 80047b6:	089b      	lsrs	r3, r3, #2
 80047b8:	fbb1 f3f3 	udiv	r3, r1, r3
 80047bc:	6a81      	ldr	r1, [r0, #40]	; 0x28
 80047be:	4419      	add	r1, r3
 80047c0:	f7ff fda6 	bl	8004310 <move_window>
 80047c4:	4605      	mov	r5, r0
 80047c6:	2800      	cmp	r0, #0
 80047c8:	d1d0      	bne.n	800476c <put_fat+0x9c>
 80047ca:	89a2      	ldrh	r2, [r4, #12]
 80047cc:	00b6      	lsls	r6, r6, #2
 80047ce:	fbb6 f1f2 	udiv	r1, r6, r2
 80047d2:	fb02 6611 	mls	r6, r2, r1, r6
 80047d6:	f104 0338 	add.w	r3, r4, #56	; 0x38
 80047da:	441e      	add	r6, r3
 80047dc:	4630      	mov	r0, r6
 80047de:	f7ff fc37 	bl	8004050 <ld_dword>
 80047e2:	f027 4770 	bic.w	r7, r7, #4026531840	; 0xf0000000
 80047e6:	f000 4170 	and.w	r1, r0, #4026531840	; 0xf0000000
 80047ea:	4339      	orrs	r1, r7
 80047ec:	4630      	mov	r0, r6
 80047ee:	f7ff fc37 	bl	8004060 <st_dword>
 80047f2:	e7b9      	b.n	8004768 <put_fat+0x98>
 80047f4:	2502      	movs	r5, #2
 80047f6:	e7b9      	b.n	800476c <put_fat+0x9c>

080047f8 <get_fat.isra.0>:
 80047f8:	2901      	cmp	r1, #1
 80047fa:	b5f8      	push	{r3, r4, r5, r6, r7, lr}
 80047fc:	4604      	mov	r4, r0
 80047fe:	460e      	mov	r6, r1
 8004800:	d968      	bls.n	80048d4 <get_fat.isra.0+0xdc>
 8004802:	69c3      	ldr	r3, [r0, #28]
 8004804:	4299      	cmp	r1, r3
 8004806:	d265      	bcs.n	80048d4 <get_fat.isra.0+0xdc>
 8004808:	7803      	ldrb	r3, [r0, #0]
 800480a:	2b02      	cmp	r3, #2
 800480c:	d032      	beq.n	8004874 <get_fat.isra.0+0x7c>
 800480e:	2b03      	cmp	r3, #3
 8004810:	d048      	beq.n	80048a4 <get_fat.isra.0+0xac>
 8004812:	2b01      	cmp	r3, #1
 8004814:	d15e      	bne.n	80048d4 <get_fat.isra.0+0xdc>
 8004816:	8983      	ldrh	r3, [r0, #12]
 8004818:	eb01 0551 	add.w	r5, r1, r1, lsr #1
 800481c:	fbb5 f3f3 	udiv	r3, r5, r3
 8004820:	6a81      	ldr	r1, [r0, #40]	; 0x28
 8004822:	4419      	add	r1, r3
 8004824:	f7ff fd74 	bl	8004310 <move_window>
 8004828:	b110      	cbz	r0, 8004830 <get_fat.isra.0+0x38>
 800482a:	f04f 30ff 	mov.w	r0, #4294967295
 800482e:	bdf8      	pop	{r3, r4, r5, r6, r7, pc}
 8004830:	89a1      	ldrh	r1, [r4, #12]
 8004832:	1c6f      	adds	r7, r5, #1
 8004834:	fbb5 f3f1 	udiv	r3, r5, r1
 8004838:	fb01 5313 	mls	r3, r1, r3, r5
 800483c:	fbb7 f1f1 	udiv	r1, r7, r1
 8004840:	4423      	add	r3, r4
 8004842:	f893 5038 	ldrb.w	r5, [r3, #56]	; 0x38
 8004846:	6aa3      	ldr	r3, [r4, #40]	; 0x28
 8004848:	4620      	mov	r0, r4
 800484a:	4419      	add	r1, r3
 800484c:	f7ff fd60 	bl	8004310 <move_window>
 8004850:	2800      	cmp	r0, #0
 8004852:	d1ea      	bne.n	800482a <get_fat.isra.0+0x32>
 8004854:	89a3      	ldrh	r3, [r4, #12]
 8004856:	fbb7 f0f3 	udiv	r0, r7, r3
 800485a:	fb03 7010 	mls	r0, r3, r0, r7
 800485e:	4404      	add	r4, r0
 8004860:	f894 0038 	ldrb.w	r0, [r4, #56]	; 0x38
 8004864:	07f3      	lsls	r3, r6, #31
 8004866:	ea45 2000 	orr.w	r0, r5, r0, lsl #8
 800486a:	bf4c      	ite	mi
 800486c:	0900      	lsrmi	r0, r0, #4
 800486e:	f3c0 000b 	ubfxpl	r0, r0, #0, #12
 8004872:	e7dc      	b.n	800482e <get_fat.isra.0+0x36>
 8004874:	8983      	ldrh	r3, [r0, #12]
 8004876:	085b      	lsrs	r3, r3, #1
 8004878:	fbb1 f3f3 	udiv	r3, r1, r3
 800487c:	6a81      	ldr	r1, [r0, #40]	; 0x28
 800487e:	4419      	add	r1, r3
 8004880:	f7ff fd46 	bl	8004310 <move_window>
 8004884:	2800      	cmp	r0, #0
 8004886:	d1d0      	bne.n	800482a <get_fat.isra.0+0x32>
 8004888:	f104 0238 	add.w	r2, r4, #56	; 0x38
 800488c:	89a4      	ldrh	r4, [r4, #12]
 800488e:	0076      	lsls	r6, r6, #1
 8004890:	fbb6 f3f4 	udiv	r3, r6, r4
 8004894:	fb04 6613 	mls	r6, r4, r3, r6
 8004898:	1993      	adds	r3, r2, r6
 800489a:	785b      	ldrb	r3, [r3, #1]
 800489c:	5d90      	ldrb	r0, [r2, r6]
 800489e:	ea40 2003 	orr.w	r0, r0, r3, lsl #8
 80048a2:	e7c4      	b.n	800482e <get_fat.isra.0+0x36>
 80048a4:	8983      	ldrh	r3, [r0, #12]
 80048a6:	089b      	lsrs	r3, r3, #2
 80048a8:	fbb1 f3f3 	udiv	r3, r1, r3
 80048ac:	6a81      	ldr	r1, [r0, #40]	; 0x28
 80048ae:	4419      	add	r1, r3
 80048b0:	f7ff fd2e 	bl	8004310 <move_window>
 80048b4:	2800      	cmp	r0, #0
 80048b6:	d1b8      	bne.n	800482a <get_fat.isra.0+0x32>
 80048b8:	89a3      	ldrh	r3, [r4, #12]
 80048ba:	00b6      	lsls	r6, r6, #2
 80048bc:	fbb6 f1f3 	udiv	r1, r6, r3
 80048c0:	fb03 6611 	mls	r6, r3, r1, r6
 80048c4:	f104 0038 	add.w	r0, r4, #56	; 0x38
 80048c8:	4430      	add	r0, r6
 80048ca:	f7ff fbc1 	bl	8004050 <ld_dword>
 80048ce:	f020 4070 	bic.w	r0, r0, #4026531840	; 0xf0000000
 80048d2:	e7ac      	b.n	800482e <get_fat.isra.0+0x36>
 80048d4:	2001      	movs	r0, #1
 80048d6:	e7aa      	b.n	800482e <get_fat.isra.0+0x36>

080048d8 <dir_sdi>:
 80048d8:	f5b1 1f00 	cmp.w	r1, #2097152	; 0x200000
 80048dc:	b5f8      	push	{r3, r4, r5, r6, r7, lr}
 80048de:	4605      	mov	r5, r0
 80048e0:	460e      	mov	r6, r1
 80048e2:	d301      	bcc.n	80048e8 <dir_sdi+0x10>
 80048e4:	2002      	movs	r0, #2
 80048e6:	bdf8      	pop	{r3, r4, r5, r6, r7, pc}
 80048e8:	06ca      	lsls	r2, r1, #27
 80048ea:	d1fb      	bne.n	80048e4 <dir_sdi+0xc>
 80048ec:	6882      	ldr	r2, [r0, #8]
 80048ee:	6804      	ldr	r4, [r0, #0]
 80048f0:	6141      	str	r1, [r0, #20]
 80048f2:	b9da      	cbnz	r2, 800492c <dir_sdi+0x54>
 80048f4:	7823      	ldrb	r3, [r4, #0]
 80048f6:	2b02      	cmp	r3, #2
 80048f8:	d901      	bls.n	80048fe <dir_sdi+0x26>
 80048fa:	6ae3      	ldr	r3, [r4, #44]	; 0x2c
 80048fc:	b9ab      	cbnz	r3, 800492a <dir_sdi+0x52>
 80048fe:	8923      	ldrh	r3, [r4, #8]
 8004900:	ebb3 1f56 	cmp.w	r3, r6, lsr #5
 8004904:	d9ee      	bls.n	80048e4 <dir_sdi+0xc>
 8004906:	6ae3      	ldr	r3, [r4, #44]	; 0x2c
 8004908:	61eb      	str	r3, [r5, #28]
 800490a:	69eb      	ldr	r3, [r5, #28]
 800490c:	61aa      	str	r2, [r5, #24]
 800490e:	2b00      	cmp	r3, #0
 8004910:	d0e8      	beq.n	80048e4 <dir_sdi+0xc>
 8004912:	89a2      	ldrh	r2, [r4, #12]
 8004914:	3438      	adds	r4, #56	; 0x38
 8004916:	fbb6 f1f2 	udiv	r1, r6, r2
 800491a:	440b      	add	r3, r1
 800491c:	fb02 6111 	mls	r1, r2, r1, r6
 8004920:	440c      	add	r4, r1
 8004922:	2000      	movs	r0, #0
 8004924:	61eb      	str	r3, [r5, #28]
 8004926:	622c      	str	r4, [r5, #32]
 8004928:	e7dd      	b.n	80048e6 <dir_sdi+0xe>
 800492a:	461a      	mov	r2, r3
 800492c:	8963      	ldrh	r3, [r4, #10]
 800492e:	89a7      	ldrh	r7, [r4, #12]
 8004930:	435f      	muls	r7, r3
 8004932:	42be      	cmp	r6, r7
 8004934:	4611      	mov	r1, r2
 8004936:	d204      	bcs.n	8004942 <dir_sdi+0x6a>
 8004938:	4620      	mov	r0, r4
 800493a:	f7ff fc3b 	bl	80041b4 <clust2sect>
 800493e:	61e8      	str	r0, [r5, #28]
 8004940:	e7e3      	b.n	800490a <dir_sdi+0x32>
 8004942:	6828      	ldr	r0, [r5, #0]
 8004944:	f7ff ff58 	bl	80047f8 <get_fat.isra.0>
 8004948:	1c43      	adds	r3, r0, #1
 800494a:	4602      	mov	r2, r0
 800494c:	d006      	beq.n	800495c <dir_sdi+0x84>
 800494e:	2801      	cmp	r0, #1
 8004950:	d9c8      	bls.n	80048e4 <dir_sdi+0xc>
 8004952:	69e3      	ldr	r3, [r4, #28]
 8004954:	4283      	cmp	r3, r0
 8004956:	d9c5      	bls.n	80048e4 <dir_sdi+0xc>
 8004958:	1bf6      	subs	r6, r6, r7
 800495a:	e7ea      	b.n	8004932 <dir_sdi+0x5a>
 800495c:	2001      	movs	r0, #1
 800495e:	e7c2      	b.n	80048e6 <dir_sdi+0xe>

08004960 <create_chain>:
 8004960:	e92d 41f0 	stmdb	sp!, {r4, r5, r6, r7, r8, lr}
 8004964:	4680      	mov	r8, r0
 8004966:	460f      	mov	r7, r1
 8004968:	6805      	ldr	r5, [r0, #0]
 800496a:	b971      	cbnz	r1, 800498a <create_chain+0x2a>
 800496c:	696e      	ldr	r6, [r5, #20]
 800496e:	b1ee      	cbz	r6, 80049ac <create_chain+0x4c>
 8004970:	69eb      	ldr	r3, [r5, #28]
 8004972:	42b3      	cmp	r3, r6
 8004974:	bf98      	it	ls
 8004976:	2601      	movls	r6, #1
 8004978:	4634      	mov	r4, r6
 800497a:	69eb      	ldr	r3, [r5, #28]
 800497c:	3401      	adds	r4, #1
 800497e:	42a3      	cmp	r3, r4
 8004980:	d817      	bhi.n	80049b2 <create_chain+0x52>
 8004982:	2e01      	cmp	r6, #1
 8004984:	d814      	bhi.n	80049b0 <create_chain+0x50>
 8004986:	2400      	movs	r4, #0
 8004988:	e006      	b.n	8004998 <create_chain+0x38>
 800498a:	4628      	mov	r0, r5
 800498c:	f7ff ff34 	bl	80047f8 <get_fat.isra.0>
 8004990:	2801      	cmp	r0, #1
 8004992:	4604      	mov	r4, r0
 8004994:	d803      	bhi.n	800499e <create_chain+0x3e>
 8004996:	2401      	movs	r4, #1
 8004998:	4620      	mov	r0, r4
 800499a:	e8bd 81f0 	ldmia.w	sp!, {r4, r5, r6, r7, r8, pc}
 800499e:	1c43      	adds	r3, r0, #1
 80049a0:	d030      	beq.n	8004a04 <create_chain+0xa4>
 80049a2:	69eb      	ldr	r3, [r5, #28]
 80049a4:	4283      	cmp	r3, r0
 80049a6:	d8f7      	bhi.n	8004998 <create_chain+0x38>
 80049a8:	463e      	mov	r6, r7
 80049aa:	e7e5      	b.n	8004978 <create_chain+0x18>
 80049ac:	2601      	movs	r6, #1
 80049ae:	e7e3      	b.n	8004978 <create_chain+0x18>
 80049b0:	2402      	movs	r4, #2
 80049b2:	4621      	mov	r1, r4
 80049b4:	f8d8 0000 	ldr.w	r0, [r8]
 80049b8:	f7ff ff1e 	bl	80047f8 <get_fat.isra.0>
 80049bc:	b130      	cbz	r0, 80049cc <create_chain+0x6c>
 80049be:	2801      	cmp	r0, #1
 80049c0:	d0e9      	beq.n	8004996 <create_chain+0x36>
 80049c2:	3001      	adds	r0, #1
 80049c4:	d01e      	beq.n	8004a04 <create_chain+0xa4>
 80049c6:	42b4      	cmp	r4, r6
 80049c8:	d1d7      	bne.n	800497a <create_chain+0x1a>
 80049ca:	e7dc      	b.n	8004986 <create_chain+0x26>
 80049cc:	f04f 32ff 	mov.w	r2, #4294967295
 80049d0:	4621      	mov	r1, r4
 80049d2:	4628      	mov	r0, r5
 80049d4:	f7ff fe7c 	bl	80046d0 <put_fat>
 80049d8:	b990      	cbnz	r0, 8004a00 <create_chain+0xa0>
 80049da:	b957      	cbnz	r7, 80049f2 <create_chain+0x92>
 80049dc:	e9d5 3206 	ldrd	r3, r2, [r5, #24]
 80049e0:	3a02      	subs	r2, #2
 80049e2:	4293      	cmp	r3, r2
 80049e4:	616c      	str	r4, [r5, #20]
 80049e6:	d910      	bls.n	8004a0a <create_chain+0xaa>
 80049e8:	792b      	ldrb	r3, [r5, #4]
 80049ea:	f043 0301 	orr.w	r3, r3, #1
 80049ee:	712b      	strb	r3, [r5, #4]
 80049f0:	e7d2      	b.n	8004998 <create_chain+0x38>
 80049f2:	4622      	mov	r2, r4
 80049f4:	4639      	mov	r1, r7
 80049f6:	4628      	mov	r0, r5
 80049f8:	f7ff fe6a 	bl	80046d0 <put_fat>
 80049fc:	2800      	cmp	r0, #0
 80049fe:	d0ed      	beq.n	80049dc <create_chain+0x7c>
 8004a00:	2801      	cmp	r0, #1
 8004a02:	d1c8      	bne.n	8004996 <create_chain+0x36>
 8004a04:	f04f 34ff 	mov.w	r4, #4294967295
 8004a08:	e7c6      	b.n	8004998 <create_chain+0x38>
 8004a0a:	3b01      	subs	r3, #1
 8004a0c:	61ab      	str	r3, [r5, #24]
 8004a0e:	e7eb      	b.n	80049e8 <create_chain+0x88>

08004a10 <remove_chain>:
 8004a10:	b5f8      	push	{r3, r4, r5, r6, r7, lr}
 8004a12:	460c      	mov	r4, r1
 8004a14:	2c01      	cmp	r4, #1
 8004a16:	4606      	mov	r6, r0
 8004a18:	4611      	mov	r1, r2
 8004a1a:	6805      	ldr	r5, [r0, #0]
 8004a1c:	d92b      	bls.n	8004a76 <remove_chain+0x66>
 8004a1e:	69eb      	ldr	r3, [r5, #28]
 8004a20:	42a3      	cmp	r3, r4
 8004a22:	d928      	bls.n	8004a76 <remove_chain+0x66>
 8004a24:	b12a      	cbz	r2, 8004a32 <remove_chain+0x22>
 8004a26:	f04f 32ff 	mov.w	r2, #4294967295
 8004a2a:	4628      	mov	r0, r5
 8004a2c:	f7ff fe50 	bl	80046d0 <put_fat>
 8004a30:	b938      	cbnz	r0, 8004a42 <remove_chain+0x32>
 8004a32:	4621      	mov	r1, r4
 8004a34:	6830      	ldr	r0, [r6, #0]
 8004a36:	f7ff fedf 	bl	80047f8 <get_fat.isra.0>
 8004a3a:	4627      	mov	r7, r4
 8004a3c:	4604      	mov	r4, r0
 8004a3e:	b908      	cbnz	r0, 8004a44 <remove_chain+0x34>
 8004a40:	2000      	movs	r0, #0
 8004a42:	bdf8      	pop	{r3, r4, r5, r6, r7, pc}
 8004a44:	2801      	cmp	r0, #1
 8004a46:	d016      	beq.n	8004a76 <remove_chain+0x66>
 8004a48:	1c43      	adds	r3, r0, #1
 8004a4a:	d016      	beq.n	8004a7a <remove_chain+0x6a>
 8004a4c:	2200      	movs	r2, #0
 8004a4e:	4639      	mov	r1, r7
 8004a50:	4628      	mov	r0, r5
 8004a52:	f7ff fe3d 	bl	80046d0 <put_fat>
 8004a56:	2800      	cmp	r0, #0
 8004a58:	d1f3      	bne.n	8004a42 <remove_chain+0x32>
 8004a5a:	e9d5 3206 	ldrd	r3, r2, [r5, #24]
 8004a5e:	1e91      	subs	r1, r2, #2
 8004a60:	428b      	cmp	r3, r1
 8004a62:	d205      	bcs.n	8004a70 <remove_chain+0x60>
 8004a64:	3301      	adds	r3, #1
 8004a66:	61ab      	str	r3, [r5, #24]
 8004a68:	792b      	ldrb	r3, [r5, #4]
 8004a6a:	f043 0301 	orr.w	r3, r3, #1
 8004a6e:	712b      	strb	r3, [r5, #4]
 8004a70:	42a2      	cmp	r2, r4
 8004a72:	d8de      	bhi.n	8004a32 <remove_chain+0x22>
 8004a74:	e7e4      	b.n	8004a40 <remove_chain+0x30>
 8004a76:	2002      	movs	r0, #2
 8004a78:	e7e3      	b.n	8004a42 <remove_chain+0x32>
 8004a7a:	2001      	movs	r0, #1
 8004a7c:	e7e1      	b.n	8004a42 <remove_chain+0x32>

08004a7e <sync_fs>:
 8004a7e:	b5f8      	push	{r3, r4, r5, r6, r7, lr}
 8004a80:	4604      	mov	r4, r0
 8004a82:	f7ff fc3f 	bl	8004304 <sync_window>
 8004a86:	4605      	mov	r5, r0
 8004a88:	2800      	cmp	r0, #0
 8004a8a:	d141      	bne.n	8004b10 <sync_fs+0x92>
 8004a8c:	7823      	ldrb	r3, [r4, #0]
 8004a8e:	2b03      	cmp	r3, #3
 8004a90:	d136      	bne.n	8004b00 <sync_fs+0x82>
 8004a92:	7927      	ldrb	r7, [r4, #4]
 8004a94:	2f01      	cmp	r7, #1
 8004a96:	d133      	bne.n	8004b00 <sync_fs+0x82>
 8004a98:	f104 0638 	add.w	r6, r4, #56	; 0x38
 8004a9c:	4601      	mov	r1, r0
 8004a9e:	89a2      	ldrh	r2, [r4, #12]
 8004aa0:	4630      	mov	r0, r6
 8004aa2:	f7ff fae5 	bl	8004070 <mem_set>
 8004aa6:	2355      	movs	r3, #85	; 0x55
 8004aa8:	f884 3236 	strb.w	r3, [r4, #566]	; 0x236
 8004aac:	23aa      	movs	r3, #170	; 0xaa
 8004aae:	f884 3237 	strb.w	r3, [r4, #567]	; 0x237
 8004ab2:	2352      	movs	r3, #82	; 0x52
 8004ab4:	2241      	movs	r2, #65	; 0x41
 8004ab6:	2172      	movs	r1, #114	; 0x72
 8004ab8:	f884 3038 	strb.w	r3, [r4, #56]	; 0x38
 8004abc:	f884 3039 	strb.w	r3, [r4, #57]	; 0x39
 8004ac0:	2361      	movs	r3, #97	; 0x61
 8004ac2:	f884 203b 	strb.w	r2, [r4, #59]	; 0x3b
 8004ac6:	f884 303a 	strb.w	r3, [r4, #58]	; 0x3a
 8004aca:	f884 221e 	strb.w	r2, [r4, #542]	; 0x21e
 8004ace:	f884 321f 	strb.w	r3, [r4, #543]	; 0x21f
 8004ad2:	f884 121c 	strb.w	r1, [r4, #540]	; 0x21c
 8004ad6:	f884 121d 	strb.w	r1, [r4, #541]	; 0x21d
 8004ada:	f504 7008 	add.w	r0, r4, #544	; 0x220
 8004ade:	69a1      	ldr	r1, [r4, #24]
 8004ae0:	f7ff fabe 	bl	8004060 <st_dword>
 8004ae4:	6961      	ldr	r1, [r4, #20]
 8004ae6:	f504 7009 	add.w	r0, r4, #548	; 0x224
 8004aea:	f7ff fab9 	bl	8004060 <st_dword>
 8004aee:	6a62      	ldr	r2, [r4, #36]	; 0x24
 8004af0:	463b      	mov	r3, r7
 8004af2:	3201      	adds	r2, #1
 8004af4:	4631      	mov	r1, r6
 8004af6:	7860      	ldrb	r0, [r4, #1]
 8004af8:	6362      	str	r2, [r4, #52]	; 0x34
 8004afa:	f7ff fa8f 	bl	800401c <disk_write>
 8004afe:	7125      	strb	r5, [r4, #4]
 8004b00:	2200      	movs	r2, #0
 8004b02:	7860      	ldrb	r0, [r4, #1]
 8004b04:	4611      	mov	r1, r2
 8004b06:	f7ff fa97 	bl	8004038 <disk_ioctl>
 8004b0a:	3800      	subs	r0, #0
 8004b0c:	bf18      	it	ne
 8004b0e:	2001      	movne	r0, #1
 8004b10:	bdf8      	pop	{r3, r4, r5, r6, r7, pc}

08004b12 <dir_next>:
 8004b12:	e92d 43f8 	stmdb	sp!, {r3, r4, r5, r6, r7, r8, r9, lr}
 8004b16:	6947      	ldr	r7, [r0, #20]
 8004b18:	69c3      	ldr	r3, [r0, #28]
 8004b1a:	4605      	mov	r5, r0
 8004b1c:	4689      	mov	r9, r1
 8004b1e:	3720      	adds	r7, #32
 8004b20:	b1a3      	cbz	r3, 8004b4c <dir_next+0x3a>
 8004b22:	f5b7 1f00 	cmp.w	r7, #2097152	; 0x200000
 8004b26:	d211      	bcs.n	8004b4c <dir_next+0x3a>
 8004b28:	6804      	ldr	r4, [r0, #0]
 8004b2a:	89a2      	ldrh	r2, [r4, #12]
 8004b2c:	fbb7 f0f2 	udiv	r0, r7, r2
 8004b30:	fb02 7210 	mls	r2, r2, r0, r7
 8004b34:	2a00      	cmp	r2, #0
 8004b36:	d14f      	bne.n	8004bd8 <dir_next+0xc6>
 8004b38:	69a9      	ldr	r1, [r5, #24]
 8004b3a:	3301      	adds	r3, #1
 8004b3c:	61eb      	str	r3, [r5, #28]
 8004b3e:	b939      	cbnz	r1, 8004b50 <dir_next+0x3e>
 8004b40:	8923      	ldrh	r3, [r4, #8]
 8004b42:	ebb3 1f57 	cmp.w	r3, r7, lsr #5
 8004b46:	d847      	bhi.n	8004bd8 <dir_next+0xc6>
 8004b48:	2300      	movs	r3, #0
 8004b4a:	61eb      	str	r3, [r5, #28]
 8004b4c:	2004      	movs	r0, #4
 8004b4e:	e00d      	b.n	8004b6c <dir_next+0x5a>
 8004b50:	f8b4 800a 	ldrh.w	r8, [r4, #10]
 8004b54:	f108 38ff 	add.w	r8, r8, #4294967295
 8004b58:	ea18 0800 	ands.w	r8, r8, r0
 8004b5c:	d13c      	bne.n	8004bd8 <dir_next+0xc6>
 8004b5e:	4620      	mov	r0, r4
 8004b60:	f7ff fe4a 	bl	80047f8 <get_fat.isra.0>
 8004b64:	2801      	cmp	r0, #1
 8004b66:	4606      	mov	r6, r0
 8004b68:	d802      	bhi.n	8004b70 <dir_next+0x5e>
 8004b6a:	2002      	movs	r0, #2
 8004b6c:	e8bd 83f8 	ldmia.w	sp!, {r3, r4, r5, r6, r7, r8, r9, pc}
 8004b70:	1c42      	adds	r2, r0, #1
 8004b72:	d101      	bne.n	8004b78 <dir_next+0x66>
 8004b74:	2001      	movs	r0, #1
 8004b76:	e7f9      	b.n	8004b6c <dir_next+0x5a>
 8004b78:	69e3      	ldr	r3, [r4, #28]
 8004b7a:	4283      	cmp	r3, r0
 8004b7c:	d826      	bhi.n	8004bcc <dir_next+0xba>
 8004b7e:	f1b9 0f00 	cmp.w	r9, #0
 8004b82:	d0e1      	beq.n	8004b48 <dir_next+0x36>
 8004b84:	4628      	mov	r0, r5
 8004b86:	69a9      	ldr	r1, [r5, #24]
 8004b88:	f7ff feea 	bl	8004960 <create_chain>
 8004b8c:	4606      	mov	r6, r0
 8004b8e:	2800      	cmp	r0, #0
 8004b90:	d03b      	beq.n	8004c0a <dir_next+0xf8>
 8004b92:	2801      	cmp	r0, #1
 8004b94:	d0e9      	beq.n	8004b6a <dir_next+0x58>
 8004b96:	1c43      	adds	r3, r0, #1
 8004b98:	d0ec      	beq.n	8004b74 <dir_next+0x62>
 8004b9a:	4620      	mov	r0, r4
 8004b9c:	f7ff fbb2 	bl	8004304 <sync_window>
 8004ba0:	4601      	mov	r1, r0
 8004ba2:	2800      	cmp	r0, #0
 8004ba4:	d1e6      	bne.n	8004b74 <dir_next+0x62>
 8004ba6:	89a2      	ldrh	r2, [r4, #12]
 8004ba8:	f104 0038 	add.w	r0, r4, #56	; 0x38
 8004bac:	f7ff fa60 	bl	8004070 <mem_set>
 8004bb0:	4631      	mov	r1, r6
 8004bb2:	4620      	mov	r0, r4
 8004bb4:	f7ff fafe 	bl	80041b4 <clust2sect>
 8004bb8:	f04f 0901 	mov.w	r9, #1
 8004bbc:	6360      	str	r0, [r4, #52]	; 0x34
 8004bbe:	8963      	ldrh	r3, [r4, #10]
 8004bc0:	4598      	cmp	r8, r3
 8004bc2:	d315      	bcc.n	8004bf0 <dir_next+0xde>
 8004bc4:	6b63      	ldr	r3, [r4, #52]	; 0x34
 8004bc6:	eba3 0308 	sub.w	r3, r3, r8
 8004bca:	6363      	str	r3, [r4, #52]	; 0x34
 8004bcc:	4631      	mov	r1, r6
 8004bce:	4620      	mov	r0, r4
 8004bd0:	61ae      	str	r6, [r5, #24]
 8004bd2:	f7ff faef 	bl	80041b4 <clust2sect>
 8004bd6:	61e8      	str	r0, [r5, #28]
 8004bd8:	89a1      	ldrh	r1, [r4, #12]
 8004bda:	616f      	str	r7, [r5, #20]
 8004bdc:	fbb7 f2f1 	udiv	r2, r7, r1
 8004be0:	fb01 7712 	mls	r7, r1, r2, r7
 8004be4:	f104 0338 	add.w	r3, r4, #56	; 0x38
 8004be8:	441f      	add	r7, r3
 8004bea:	2000      	movs	r0, #0
 8004bec:	622f      	str	r7, [r5, #32]
 8004bee:	e7bd      	b.n	8004b6c <dir_next+0x5a>
 8004bf0:	4620      	mov	r0, r4
 8004bf2:	f884 9003 	strb.w	r9, [r4, #3]
 8004bf6:	f7ff fb5f 	bl	80042b8 <sync_window.part.0>
 8004bfa:	2800      	cmp	r0, #0
 8004bfc:	d1ba      	bne.n	8004b74 <dir_next+0x62>
 8004bfe:	6b63      	ldr	r3, [r4, #52]	; 0x34
 8004c00:	f108 0801 	add.w	r8, r8, #1
 8004c04:	3301      	adds	r3, #1
 8004c06:	6363      	str	r3, [r4, #52]	; 0x34
 8004c08:	e7d9      	b.n	8004bbe <dir_next+0xac>
 8004c0a:	2007      	movs	r0, #7
 8004c0c:	e7ae      	b.n	8004b6c <dir_next+0x5a>
	...

08004c10 <dir_find>:
 8004c10:	e92d 4ff0 	stmdb	sp!, {r4, r5, r6, r7, r8, r9, sl, fp, lr}
 8004c14:	2100      	movs	r1, #0
 8004c16:	b085      	sub	sp, #20
 8004c18:	4604      	mov	r4, r0
 8004c1a:	f8d0 a000 	ldr.w	sl, [r0]
 8004c1e:	f7ff fe5b 	bl	80048d8 <dir_sdi>
 8004c22:	4607      	mov	r7, r0
 8004c24:	2800      	cmp	r0, #0
 8004c26:	f040 809b 	bne.w	8004d60 <dir_find+0x150>
 8004c2a:	f04f 09ff 	mov.w	r9, #255	; 0xff
 8004c2e:	f04f 33ff 	mov.w	r3, #4294967295
 8004c32:	46c8      	mov	r8, r9
 8004c34:	6323      	str	r3, [r4, #48]	; 0x30
 8004c36:	9300      	str	r3, [sp, #0]
 8004c38:	4650      	mov	r0, sl
 8004c3a:	69e1      	ldr	r1, [r4, #28]
 8004c3c:	f7ff fb68 	bl	8004310 <move_window>
 8004c40:	4607      	mov	r7, r0
 8004c42:	2800      	cmp	r0, #0
 8004c44:	f040 808c 	bne.w	8004d60 <dir_find+0x150>
 8004c48:	6a25      	ldr	r5, [r4, #32]
 8004c4a:	782e      	ldrb	r6, [r5, #0]
 8004c4c:	2e00      	cmp	r6, #0
 8004c4e:	f000 808b 	beq.w	8004d68 <dir_find+0x158>
 8004c52:	7aea      	ldrb	r2, [r5, #11]
 8004c54:	2ee5      	cmp	r6, #229	; 0xe5
 8004c56:	f002 033f 	and.w	r3, r2, #63	; 0x3f
 8004c5a:	71a3      	strb	r3, [r4, #6]
 8004c5c:	d003      	beq.n	8004c66 <dir_find+0x56>
 8004c5e:	0710      	lsls	r0, r2, #28
 8004c60:	d504      	bpl.n	8004c6c <dir_find+0x5c>
 8004c62:	2b0f      	cmp	r3, #15
 8004c64:	d004      	beq.n	8004c70 <dir_find+0x60>
 8004c66:	9b00      	ldr	r3, [sp, #0]
 8004c68:	6323      	str	r3, [r4, #48]	; 0x30
 8004c6a:	e053      	b.n	8004d14 <dir_find+0x104>
 8004c6c:	2b0f      	cmp	r3, #15
 8004c6e:	d159      	bne.n	8004d24 <dir_find+0x114>
 8004c70:	f894 302f 	ldrb.w	r3, [r4, #47]	; 0x2f
 8004c74:	0659      	lsls	r1, r3, #25
 8004c76:	d443      	bmi.n	8004d00 <dir_find+0xf0>
 8004c78:	0672      	lsls	r2, r6, #25
 8004c7a:	d549      	bpl.n	8004d10 <dir_find+0x100>
 8004c7c:	6963      	ldr	r3, [r4, #20]
 8004c7e:	f895 900d 	ldrb.w	r9, [r5, #13]
 8004c82:	f006 06bf 	and.w	r6, r6, #191	; 0xbf
 8004c86:	6323      	str	r3, [r4, #48]	; 0x30
 8004c88:	7b6b      	ldrb	r3, [r5, #13]
 8004c8a:	454b      	cmp	r3, r9
 8004c8c:	d142      	bne.n	8004d14 <dir_find+0x104>
 8004c8e:	7eea      	ldrb	r2, [r5, #27]
 8004c90:	7eab      	ldrb	r3, [r5, #26]
 8004c92:	ea53 2302 	orrs.w	r3, r3, r2, lsl #8
 8004c96:	d13d      	bne.n	8004d14 <dir_find+0x104>
 8004c98:	782f      	ldrb	r7, [r5, #0]
 8004c9a:	2201      	movs	r2, #1
 8004c9c:	f007 073f 	and.w	r7, r7, #63	; 0x3f
 8004ca0:	1e7b      	subs	r3, r7, #1
 8004ca2:	270d      	movs	r7, #13
 8004ca4:	f8da b010 	ldr.w	fp, [sl, #16]
 8004ca8:	435f      	muls	r7, r3
 8004caa:	4b30      	ldr	r3, [pc, #192]	; (8004d6c <dir_find+0x15c>)
 8004cac:	f813 1b01 	ldrb.w	r1, [r3], #1
 8004cb0:	1868      	adds	r0, r5, r1
 8004cb2:	7840      	ldrb	r0, [r0, #1]
 8004cb4:	f815 8001 	ldrb.w	r8, [r5, r1]
 8004cb8:	ea48 2800 	orr.w	r8, r8, r0, lsl #8
 8004cbc:	b36a      	cbz	r2, 8004d1a <dir_find+0x10a>
 8004cbe:	2ffe      	cmp	r7, #254	; 0xfe
 8004cc0:	9303      	str	r3, [sp, #12]
 8004cc2:	d827      	bhi.n	8004d14 <dir_find+0x104>
 8004cc4:	4640      	mov	r0, r8
 8004cc6:	f000 ffc9 	bl	8005c5c <ff_wtoupper>
 8004cca:	1c79      	adds	r1, r7, #1
 8004ccc:	9002      	str	r0, [sp, #8]
 8004cce:	f83b 0017 	ldrh.w	r0, [fp, r7, lsl #1]
 8004cd2:	9101      	str	r1, [sp, #4]
 8004cd4:	f000 ffc2 	bl	8005c5c <ff_wtoupper>
 8004cd8:	9a02      	ldr	r2, [sp, #8]
 8004cda:	4282      	cmp	r2, r0
 8004cdc:	d11a      	bne.n	8004d14 <dir_find+0x104>
 8004cde:	9901      	ldr	r1, [sp, #4]
 8004ce0:	4642      	mov	r2, r8
 8004ce2:	460f      	mov	r7, r1
 8004ce4:	9b03      	ldr	r3, [sp, #12]
 8004ce6:	4922      	ldr	r1, [pc, #136]	; (8004d70 <dir_find+0x160>)
 8004ce8:	4299      	cmp	r1, r3
 8004cea:	d1df      	bne.n	8004cac <dir_find+0x9c>
 8004cec:	782b      	ldrb	r3, [r5, #0]
 8004cee:	065b      	lsls	r3, r3, #25
 8004cf0:	d503      	bpl.n	8004cfa <dir_find+0xea>
 8004cf2:	b112      	cbz	r2, 8004cfa <dir_find+0xea>
 8004cf4:	f83b 3017 	ldrh.w	r3, [fp, r7, lsl #1]
 8004cf8:	b963      	cbnz	r3, 8004d14 <dir_find+0x104>
 8004cfa:	3e01      	subs	r6, #1
 8004cfc:	fa5f f886 	uxtb.w	r8, r6
 8004d00:	2100      	movs	r1, #0
 8004d02:	4620      	mov	r0, r4
 8004d04:	f7ff ff05 	bl	8004b12 <dir_next>
 8004d08:	4607      	mov	r7, r0
 8004d0a:	2800      	cmp	r0, #0
 8004d0c:	d094      	beq.n	8004c38 <dir_find+0x28>
 8004d0e:	e027      	b.n	8004d60 <dir_find+0x150>
 8004d10:	45b0      	cmp	r8, r6
 8004d12:	d0b9      	beq.n	8004c88 <dir_find+0x78>
 8004d14:	f04f 08ff 	mov.w	r8, #255	; 0xff
 8004d18:	e7f2      	b.n	8004d00 <dir_find+0xf0>
 8004d1a:	f64f 71ff 	movw	r1, #65535	; 0xffff
 8004d1e:	4588      	cmp	r8, r1
 8004d20:	d0e1      	beq.n	8004ce6 <dir_find+0xd6>
 8004d22:	e7f7      	b.n	8004d14 <dir_find+0x104>
 8004d24:	f1b8 0f00 	cmp.w	r8, #0
 8004d28:	d104      	bne.n	8004d34 <dir_find+0x124>
 8004d2a:	4628      	mov	r0, r5
 8004d2c:	f7ff fa60 	bl	80041f0 <sum_sfn>
 8004d30:	4548      	cmp	r0, r9
 8004d32:	d015      	beq.n	8004d60 <dir_find+0x150>
 8004d34:	f894 702f 	ldrb.w	r7, [r4, #47]	; 0x2f
 8004d38:	f017 0701 	ands.w	r7, r7, #1
 8004d3c:	d193      	bne.n	8004c66 <dir_find+0x56>
 8004d3e:	f104 0224 	add.w	r2, r4, #36	; 0x24
 8004d42:	f105 010b 	add.w	r1, r5, #11
 8004d46:	f815 3b01 	ldrb.w	r3, [r5], #1
 8004d4a:	f812 0b01 	ldrb.w	r0, [r2], #1
 8004d4e:	428d      	cmp	r5, r1
 8004d50:	eba3 0300 	sub.w	r3, r3, r0
 8004d54:	d002      	beq.n	8004d5c <dir_find+0x14c>
 8004d56:	2b00      	cmp	r3, #0
 8004d58:	d0f5      	beq.n	8004d46 <dir_find+0x136>
 8004d5a:	e784      	b.n	8004c66 <dir_find+0x56>
 8004d5c:	2b00      	cmp	r3, #0
 8004d5e:	d182      	bne.n	8004c66 <dir_find+0x56>
 8004d60:	4638      	mov	r0, r7
 8004d62:	b005      	add	sp, #20
 8004d64:	e8bd 8ff0 	ldmia.w	sp!, {r4, r5, r6, r7, r8, r9, sl, fp, pc}
 8004d68:	2704      	movs	r7, #4
 8004d6a:	e7f9      	b.n	8004d60 <dir_find+0x150>
 8004d6c:	080066e1 	.word	0x080066e1
 8004d70:	080066ee 	.word	0x080066ee

08004d74 <dir_register>:
 8004d74:	e92d 4ff0 	stmdb	sp!, {r4, r5, r6, r7, r8, r9, sl, fp, lr}
 8004d78:	f890 502f 	ldrb.w	r5, [r0, #47]	; 0x2f
 8004d7c:	4604      	mov	r4, r0
 8004d7e:	f015 05a0 	ands.w	r5, r5, #160	; 0xa0
 8004d82:	b089      	sub	sp, #36	; 0x24
 8004d84:	f040 808f 	bne.w	8004ea6 <dir_register+0x132>
 8004d88:	6806      	ldr	r6, [r0, #0]
 8004d8a:	6932      	ldr	r2, [r6, #16]
 8004d8c:	f832 3015 	ldrh.w	r3, [r2, r5, lsl #1]
 8004d90:	2b00      	cmp	r3, #0
 8004d92:	d166      	bne.n	8004e62 <dir_register+0xee>
 8004d94:	f104 0724 	add.w	r7, r4, #36	; 0x24
 8004d98:	220c      	movs	r2, #12
 8004d9a:	4639      	mov	r1, r7
 8004d9c:	a805      	add	r0, sp, #20
 8004d9e:	f7ff fa68 	bl	8004272 <mem_cpy.part.0>
 8004da2:	f89d 301f 	ldrb.w	r3, [sp, #31]
 8004da6:	07db      	lsls	r3, r3, #31
 8004da8:	f140 8086 	bpl.w	8004eb8 <dir_register+0x144>
 8004dac:	2340      	movs	r3, #64	; 0x40
 8004dae:	f04f 0a01 	mov.w	sl, #1
 8004db2:	f8df 8238 	ldr.w	r8, [pc, #568]	; 8004fec <dir_register+0x278>
 8004db6:	f884 302f 	strb.w	r3, [r4, #47]	; 0x2f
 8004dba:	220b      	movs	r2, #11
 8004dbc:	4638      	mov	r0, r7
 8004dbe:	a905      	add	r1, sp, #20
 8004dc0:	f8d6 9010 	ldr.w	r9, [r6, #16]
 8004dc4:	f7ff fa55 	bl	8004272 <mem_cpy.part.0>
 8004dc8:	f1ba 0f05 	cmp.w	sl, #5
 8004dcc:	d95a      	bls.n	8004e84 <dir_register+0x110>
 8004dce:	4653      	mov	r3, sl
 8004dd0:	f1a9 0102 	sub.w	r1, r9, #2
 8004dd4:	f831 2f02 	ldrh.w	r2, [r1, #2]!
 8004dd8:	2a00      	cmp	r2, #0
 8004dda:	d144      	bne.n	8004e66 <dir_register+0xf2>
 8004ddc:	2207      	movs	r2, #7
 8004dde:	f10d 0013 	add.w	r0, sp, #19
 8004de2:	f003 0c0f 	and.w	ip, r3, #15
 8004de6:	f10c 0130 	add.w	r1, ip, #48	; 0x30
 8004dea:	2939      	cmp	r1, #57	; 0x39
 8004dec:	bf88      	it	hi
 8004dee:	f10c 0137 	addhi.w	r1, ip, #55	; 0x37
 8004df2:	2b0f      	cmp	r3, #15
 8004df4:	f800 1901 	strb.w	r1, [r0], #-1
 8004df8:	f102 32ff 	add.w	r2, r2, #4294967295
 8004dfc:	ea4f 1113 	mov.w	r1, r3, lsr #4
 8004e00:	d842      	bhi.n	8004e88 <dir_register+0x114>
 8004e02:	217e      	movs	r1, #126	; 0x7e
 8004e04:	ab08      	add	r3, sp, #32
 8004e06:	4413      	add	r3, r2
 8004e08:	f803 1c14 	strb.w	r1, [r3, #-20]
 8004e0c:	f104 0123 	add.w	r1, r4, #35	; 0x23
 8004e10:	4608      	mov	r0, r1
 8004e12:	2300      	movs	r3, #0
 8004e14:	429a      	cmp	r2, r3
 8004e16:	d006      	beq.n	8004e26 <dir_register+0xb2>
 8004e18:	f810 cf01 	ldrb.w	ip, [r0, #1]!
 8004e1c:	f103 0e01 	add.w	lr, r3, #1
 8004e20:	f1bc 0f20 	cmp.w	ip, #32
 8004e24:	d132      	bne.n	8004e8c <dir_register+0x118>
 8004e26:	2a07      	cmp	r2, #7
 8004e28:	bf8f      	iteee	hi
 8004e2a:	2020      	movhi	r0, #32
 8004e2c:	a808      	addls	r0, sp, #32
 8004e2e:	1880      	addls	r0, r0, r2
 8004e30:	f810 0c14 	ldrbls.w	r0, [r0, #-20]
 8004e34:	f103 0301 	add.w	r3, r3, #1
 8004e38:	bf98      	it	ls
 8004e3a:	3201      	addls	r2, #1
 8004e3c:	2b07      	cmp	r3, #7
 8004e3e:	54c8      	strb	r0, [r1, r3]
 8004e40:	d9f1      	bls.n	8004e26 <dir_register+0xb2>
 8004e42:	4620      	mov	r0, r4
 8004e44:	f7ff fee4 	bl	8004c10 <dir_find>
 8004e48:	4681      	mov	r9, r0
 8004e4a:	bb78      	cbnz	r0, 8004eac <dir_register+0x138>
 8004e4c:	f10a 0a01 	add.w	sl, sl, #1
 8004e50:	f1ba 0f64 	cmp.w	sl, #100	; 0x64
 8004e54:	d1b1      	bne.n	8004dba <dir_register+0x46>
 8004e56:	f04f 0907 	mov.w	r9, #7
 8004e5a:	4648      	mov	r0, r9
 8004e5c:	b009      	add	sp, #36	; 0x24
 8004e5e:	e8bd 8ff0 	ldmia.w	sp!, {r4, r5, r6, r7, r8, r9, sl, fp, pc}
 8004e62:	3501      	adds	r5, #1
 8004e64:	e792      	b.n	8004d8c <dir_register+0x18>
 8004e66:	2010      	movs	r0, #16
 8004e68:	f002 0c01 	and.w	ip, r2, #1
 8004e6c:	eb0c 0343 	add.w	r3, ip, r3, lsl #1
 8004e70:	f413 3f80 	tst.w	r3, #65536	; 0x10000
 8004e74:	bf18      	it	ne
 8004e76:	ea83 0308 	eorne.w	r3, r3, r8
 8004e7a:	3801      	subs	r0, #1
 8004e7c:	ea4f 0252 	mov.w	r2, r2, lsr #1
 8004e80:	d1f2      	bne.n	8004e68 <dir_register+0xf4>
 8004e82:	e7a7      	b.n	8004dd4 <dir_register+0x60>
 8004e84:	4653      	mov	r3, sl
 8004e86:	e7a9      	b.n	8004ddc <dir_register+0x68>
 8004e88:	460b      	mov	r3, r1
 8004e8a:	e7aa      	b.n	8004de2 <dir_register+0x6e>
 8004e8c:	4673      	mov	r3, lr
 8004e8e:	e7c1      	b.n	8004e14 <dir_register+0xa0>
 8004e90:	4680      	mov	r8, r0
 8004e92:	2101      	movs	r1, #1
 8004e94:	4620      	mov	r0, r4
 8004e96:	f7ff fe3c 	bl	8004b12 <dir_next>
 8004e9a:	4681      	mov	r9, r0
 8004e9c:	b310      	cbz	r0, 8004ee4 <dir_register+0x170>
 8004e9e:	f1b9 0f04 	cmp.w	r9, #4
 8004ea2:	d0d8      	beq.n	8004e56 <dir_register+0xe2>
 8004ea4:	e7d9      	b.n	8004e5a <dir_register+0xe6>
 8004ea6:	f04f 0906 	mov.w	r9, #6
 8004eaa:	e7d6      	b.n	8004e5a <dir_register+0xe6>
 8004eac:	2804      	cmp	r0, #4
 8004eae:	d1d4      	bne.n	8004e5a <dir_register+0xe6>
 8004eb0:	f89d 301f 	ldrb.w	r3, [sp, #31]
 8004eb4:	f884 302f 	strb.w	r3, [r4, #47]	; 0x2f
 8004eb8:	f89d 301f 	ldrb.w	r3, [sp, #31]
 8004ebc:	2100      	movs	r1, #0
 8004ebe:	079b      	lsls	r3, r3, #30
 8004ec0:	bf42      	ittt	mi
 8004ec2:	230d      	movmi	r3, #13
 8004ec4:	350c      	addmi	r5, #12
 8004ec6:	fbb5 f5f3 	udivmi	r5, r5, r3
 8004eca:	4620      	mov	r0, r4
 8004ecc:	bf58      	it	pl
 8004ece:	2501      	movpl	r5, #1
 8004ed0:	f8d4 a000 	ldr.w	sl, [r4]
 8004ed4:	bf48      	it	mi
 8004ed6:	3501      	addmi	r5, #1
 8004ed8:	f7ff fcfe 	bl	80048d8 <dir_sdi>
 8004edc:	4681      	mov	r9, r0
 8004ede:	2800      	cmp	r0, #0
 8004ee0:	d1dd      	bne.n	8004e9e <dir_register+0x12a>
 8004ee2:	4680      	mov	r8, r0
 8004ee4:	4650      	mov	r0, sl
 8004ee6:	69e1      	ldr	r1, [r4, #28]
 8004ee8:	f7ff fa12 	bl	8004310 <move_window>
 8004eec:	4681      	mov	r9, r0
 8004eee:	2800      	cmp	r0, #0
 8004ef0:	d1d5      	bne.n	8004e9e <dir_register+0x12a>
 8004ef2:	6a23      	ldr	r3, [r4, #32]
 8004ef4:	781b      	ldrb	r3, [r3, #0]
 8004ef6:	2be5      	cmp	r3, #229	; 0xe5
 8004ef8:	d001      	beq.n	8004efe <dir_register+0x18a>
 8004efa:	2b00      	cmp	r3, #0
 8004efc:	d1c8      	bne.n	8004e90 <dir_register+0x11c>
 8004efe:	f108 0801 	add.w	r8, r8, #1
 8004f02:	4545      	cmp	r5, r8
 8004f04:	d1c5      	bne.n	8004e92 <dir_register+0x11e>
 8004f06:	3d01      	subs	r5, #1
 8004f08:	d055      	beq.n	8004fb6 <dir_register+0x242>
 8004f0a:	6961      	ldr	r1, [r4, #20]
 8004f0c:	4620      	mov	r0, r4
 8004f0e:	eba1 1145 	sub.w	r1, r1, r5, lsl #5
 8004f12:	f7ff fce1 	bl	80048d8 <dir_sdi>
 8004f16:	4681      	mov	r9, r0
 8004f18:	2800      	cmp	r0, #0
 8004f1a:	d19e      	bne.n	8004e5a <dir_register+0xe6>
 8004f1c:	4638      	mov	r0, r7
 8004f1e:	f7ff f967 	bl	80041f0 <sum_sfn>
 8004f22:	f64f 78ff 	movw	r8, #65535	; 0xffff
 8004f26:	9001      	str	r0, [sp, #4]
 8004f28:	4630      	mov	r0, r6
 8004f2a:	69e1      	ldr	r1, [r4, #28]
 8004f2c:	f7ff f9f0 	bl	8004310 <move_window>
 8004f30:	4681      	mov	r9, r0
 8004f32:	2800      	cmp	r0, #0
 8004f34:	d191      	bne.n	8004e5a <dir_register+0xe6>
 8004f36:	6a23      	ldr	r3, [r4, #32]
 8004f38:	9a01      	ldr	r2, [sp, #4]
 8004f3a:	f8d6 e010 	ldr.w	lr, [r6, #16]
 8004f3e:	735a      	strb	r2, [r3, #13]
 8004f40:	f04f 020f 	mov.w	r2, #15
 8004f44:	f04f 0c0d 	mov.w	ip, #13
 8004f48:	b2e9      	uxtb	r1, r5
 8004f4a:	72da      	strb	r2, [r3, #11]
 8004f4c:	1e4a      	subs	r2, r1, #1
 8004f4e:	fb0c f202 	mul.w	r2, ip, r2
 8004f52:	4684      	mov	ip, r0
 8004f54:	f8df a098 	ldr.w	sl, [pc, #152]	; 8004ff0 <dir_register+0x27c>
 8004f58:	7318      	strb	r0, [r3, #12]
 8004f5a:	7698      	strb	r0, [r3, #26]
 8004f5c:	76d8      	strb	r0, [r3, #27]
 8004f5e:	4540      	cmp	r0, r8
 8004f60:	bf18      	it	ne
 8004f62:	f83e 0012 	ldrhne.w	r0, [lr, r2, lsl #1]
 8004f66:	f81a 9b01 	ldrb.w	r9, [sl], #1
 8004f6a:	f10c 0c01 	add.w	ip, ip, #1
 8004f6e:	f803 0009 	strb.w	r0, [r3, r9]
 8004f72:	bf18      	it	ne
 8004f74:	3201      	addne	r2, #1
 8004f76:	eb03 0b09 	add.w	fp, r3, r9
 8004f7a:	ea4f 2910 	mov.w	r9, r0, lsr #8
 8004f7e:	2800      	cmp	r0, #0
 8004f80:	bf08      	it	eq
 8004f82:	4640      	moveq	r0, r8
 8004f84:	f1bc 0f0d 	cmp.w	ip, #13
 8004f88:	f88b 9001 	strb.w	r9, [fp, #1]
 8004f8c:	d1e7      	bne.n	8004f5e <dir_register+0x1ea>
 8004f8e:	4540      	cmp	r0, r8
 8004f90:	d002      	beq.n	8004f98 <dir_register+0x224>
 8004f92:	f83e 2012 	ldrh.w	r2, [lr, r2, lsl #1]
 8004f96:	b90a      	cbnz	r2, 8004f9c <dir_register+0x228>
 8004f98:	f041 0140 	orr.w	r1, r1, #64	; 0x40
 8004f9c:	7019      	strb	r1, [r3, #0]
 8004f9e:	2301      	movs	r3, #1
 8004fa0:	2100      	movs	r1, #0
 8004fa2:	4620      	mov	r0, r4
 8004fa4:	70f3      	strb	r3, [r6, #3]
 8004fa6:	f7ff fdb4 	bl	8004b12 <dir_next>
 8004faa:	4681      	mov	r9, r0
 8004fac:	2800      	cmp	r0, #0
 8004fae:	f47f af54 	bne.w	8004e5a <dir_register+0xe6>
 8004fb2:	3d01      	subs	r5, #1
 8004fb4:	d1b8      	bne.n	8004f28 <dir_register+0x1b4>
 8004fb6:	4630      	mov	r0, r6
 8004fb8:	69e1      	ldr	r1, [r4, #28]
 8004fba:	f7ff f9a9 	bl	8004310 <move_window>
 8004fbe:	4681      	mov	r9, r0
 8004fc0:	2800      	cmp	r0, #0
 8004fc2:	f47f af4a 	bne.w	8004e5a <dir_register+0xe6>
 8004fc6:	4601      	mov	r1, r0
 8004fc8:	2220      	movs	r2, #32
 8004fca:	6a20      	ldr	r0, [r4, #32]
 8004fcc:	f7ff f850 	bl	8004070 <mem_set>
 8004fd0:	220b      	movs	r2, #11
 8004fd2:	4639      	mov	r1, r7
 8004fd4:	6a20      	ldr	r0, [r4, #32]
 8004fd6:	f7ff f94c 	bl	8004272 <mem_cpy.part.0>
 8004fda:	f894 302f 	ldrb.w	r3, [r4, #47]	; 0x2f
 8004fde:	6a22      	ldr	r2, [r4, #32]
 8004fe0:	f003 0318 	and.w	r3, r3, #24
 8004fe4:	7313      	strb	r3, [r2, #12]
 8004fe6:	2301      	movs	r3, #1
 8004fe8:	70f3      	strb	r3, [r6, #3]
 8004fea:	e736      	b.n	8004e5a <dir_register+0xe6>
 8004fec:	00011021 	.word	0x00011021
 8004ff0:	080066e1 	.word	0x080066e1

08004ff4 <follow_path>:
 8004ff4:	e92d 4ff7 	stmdb	sp!, {r0, r1, r2, r4, r5, r6, r7, r8, r9, sl, fp, lr}
 8004ff8:	4606      	mov	r6, r0
 8004ffa:	f8d0 b000 	ldr.w	fp, [r0]
 8004ffe:	4689      	mov	r9, r1
 8005000:	f811 3b01 	ldrb.w	r3, [r1], #1
 8005004:	2b2f      	cmp	r3, #47	; 0x2f
 8005006:	d0fa      	beq.n	8004ffe <follow_path+0xa>
 8005008:	2b5c      	cmp	r3, #92	; 0x5c
 800500a:	d0f8      	beq.n	8004ffe <follow_path+0xa>
 800500c:	2100      	movs	r1, #0
 800500e:	60b1      	str	r1, [r6, #8]
 8005010:	f899 3000 	ldrb.w	r3, [r9]
 8005014:	2b1f      	cmp	r3, #31
 8005016:	f200 80c0 	bhi.w	800519a <follow_path+0x1a6>
 800501a:	2380      	movs	r3, #128	; 0x80
 800501c:	4630      	mov	r0, r6
 800501e:	f886 302f 	strb.w	r3, [r6, #47]	; 0x2f
 8005022:	b003      	add	sp, #12
 8005024:	e8bd 4ff0 	ldmia.w	sp!, {r4, r5, r6, r7, r8, r9, sl, fp, lr}
 8005028:	f7ff bc56 	b.w	80048d8 <dir_sdi>
 800502c:	3401      	adds	r4, #1
 800502e:	e0c7      	b.n	80051c0 <follow_path+0x1cc>
 8005030:	f5b4 7f80 	cmp.w	r4, #256	; 0x100
 8005034:	9300      	str	r3, [sp, #0]
 8005036:	d00c      	beq.n	8005052 <follow_path+0x5e>
 8005038:	2101      	movs	r1, #1
 800503a:	f000 fdf1 	bl	8005c20 <ff_convert>
 800503e:	b140      	cbz	r0, 8005052 <follow_path+0x5e>
 8005040:	287f      	cmp	r0, #127	; 0x7f
 8005042:	9b00      	ldr	r3, [sp, #0]
 8005044:	d807      	bhi.n	8005056 <follow_path+0x62>
 8005046:	4981      	ldr	r1, [pc, #516]	; (800524c <follow_path+0x258>)
 8005048:	f811 2b01 	ldrb.w	r2, [r1], #1
 800504c:	b11a      	cbz	r2, 8005056 <follow_path+0x62>
 800504e:	4290      	cmp	r0, r2
 8005050:	d1fa      	bne.n	8005048 <follow_path+0x54>
 8005052:	2006      	movs	r0, #6
 8005054:	e04e      	b.n	80050f4 <follow_path+0x100>
 8005056:	4627      	mov	r7, r4
 8005058:	f828 0f02 	strh.w	r0, [r8, #2]!
 800505c:	e0a6      	b.n	80051ac <follow_path+0x1b8>
 800505e:	f835 3017 	ldrh.w	r3, [r5, r7, lsl #1]
 8005062:	2b20      	cmp	r3, #32
 8005064:	d002      	beq.n	800506c <follow_path+0x78>
 8005066:	2b2e      	cmp	r3, #46	; 0x2e
 8005068:	f040 80ba 	bne.w	80051e0 <follow_path+0x1ec>
 800506c:	3f01      	subs	r7, #1
 800506e:	e0b4      	b.n	80051da <follow_path+0x1e6>
 8005070:	3101      	adds	r1, #1
 8005072:	e0c2      	b.n	80051fa <follow_path+0x206>
 8005074:	4543      	cmp	r3, r8
 8005076:	d205      	bcs.n	8005084 <follow_path+0x90>
 8005078:	42ba      	cmp	r2, r7
 800507a:	d14a      	bne.n	8005112 <follow_path+0x11e>
 800507c:	f1b8 0f0b 	cmp.w	r8, #11
 8005080:	d140      	bne.n	8005104 <follow_path+0x110>
 8005082:	e002      	b.n	800508a <follow_path+0x96>
 8005084:	f1b8 0f0b 	cmp.w	r8, #11
 8005088:	d137      	bne.n	80050fa <follow_path+0x106>
 800508a:	f04f 080b 	mov.w	r8, #11
 800508e:	f044 0403 	orr.w	r4, r4, #3
 8005092:	f896 3024 	ldrb.w	r3, [r6, #36]	; 0x24
 8005096:	2be5      	cmp	r3, #229	; 0xe5
 8005098:	bf04      	itt	eq
 800509a:	2305      	moveq	r3, #5
 800509c:	f886 3024 	strbeq.w	r3, [r6, #36]	; 0x24
 80050a0:	f1b8 0f08 	cmp.w	r8, #8
 80050a4:	bf04      	itt	eq
 80050a6:	00ad      	lsleq	r5, r5, #2
 80050a8:	b2ed      	uxtbeq	r5, r5
 80050aa:	f005 030c 	and.w	r3, r5, #12
 80050ae:	2b0c      	cmp	r3, #12
 80050b0:	d003      	beq.n	80050ba <follow_path+0xc6>
 80050b2:	f005 0203 	and.w	r2, r5, #3
 80050b6:	2a03      	cmp	r2, #3
 80050b8:	d101      	bne.n	80050be <follow_path+0xca>
 80050ba:	f044 0402 	orr.w	r4, r4, #2
 80050be:	07a1      	lsls	r1, r4, #30
 80050c0:	d409      	bmi.n	80050d6 <follow_path+0xe2>
 80050c2:	f005 0503 	and.w	r5, r5, #3
 80050c6:	2d01      	cmp	r5, #1
 80050c8:	bf08      	it	eq
 80050ca:	f044 0410 	orreq.w	r4, r4, #16
 80050ce:	2b04      	cmp	r3, #4
 80050d0:	bf08      	it	eq
 80050d2:	f044 0408 	orreq.w	r4, r4, #8
 80050d6:	4630      	mov	r0, r6
 80050d8:	f886 402f 	strb.w	r4, [r6, #47]	; 0x2f
 80050dc:	f7ff fd98 	bl	8004c10 <dir_find>
 80050e0:	f896 302f 	ldrb.w	r3, [r6, #47]	; 0x2f
 80050e4:	2800      	cmp	r0, #0
 80050e6:	d044      	beq.n	8005172 <follow_path+0x17e>
 80050e8:	2804      	cmp	r0, #4
 80050ea:	d103      	bne.n	80050f4 <follow_path+0x100>
 80050ec:	f013 0f04 	tst.w	r3, #4
 80050f0:	bf08      	it	eq
 80050f2:	2005      	moveq	r0, #5
 80050f4:	b003      	add	sp, #12
 80050f6:	e8bd 8ff0 	ldmia.w	sp!, {r4, r5, r6, r7, r8, r9, sl, fp, pc}
 80050fa:	42ba      	cmp	r2, r7
 80050fc:	d002      	beq.n	8005104 <follow_path+0x110>
 80050fe:	f044 0403 	orr.w	r4, r4, #3
 8005102:	d8c6      	bhi.n	8005092 <follow_path+0x9e>
 8005104:	00ad      	lsls	r5, r5, #2
 8005106:	463a      	mov	r2, r7
 8005108:	f04f 080b 	mov.w	r8, #11
 800510c:	2308      	movs	r3, #8
 800510e:	b2ed      	uxtb	r5, r5
 8005110:	e098      	b.n	8005244 <follow_path+0x250>
 8005112:	287f      	cmp	r0, #127	; 0x7f
 8005114:	d90e      	bls.n	8005134 <follow_path+0x140>
 8005116:	2100      	movs	r1, #0
 8005118:	e9cd 2300 	strd	r2, r3, [sp]
 800511c:	f000 fd80 	bl	8005c20 <ff_convert>
 8005120:	e9dd 2300 	ldrd	r2, r3, [sp]
 8005124:	f044 0402 	orr.w	r4, r4, #2
 8005128:	b158      	cbz	r0, 8005142 <follow_path+0x14e>
 800512a:	4949      	ldr	r1, [pc, #292]	; (8005250 <follow_path+0x25c>)
 800512c:	4408      	add	r0, r1
 800512e:	f810 0c80 	ldrb.w	r0, [r0, #-128]
 8005132:	b130      	cbz	r0, 8005142 <follow_path+0x14e>
 8005134:	f8df c11c 	ldr.w	ip, [pc, #284]	; 8005254 <follow_path+0x260>
 8005138:	f81c 1b01 	ldrb.w	r1, [ip], #1
 800513c:	b149      	cbz	r1, 8005152 <follow_path+0x15e>
 800513e:	4281      	cmp	r1, r0
 8005140:	d1fa      	bne.n	8005138 <follow_path+0x144>
 8005142:	205f      	movs	r0, #95	; 0x5f
 8005144:	f044 0403 	orr.w	r4, r4, #3
 8005148:	18f1      	adds	r1, r6, r3
 800514a:	f881 0024 	strb.w	r0, [r1, #36]	; 0x24
 800514e:	3301      	adds	r3, #1
 8005150:	e078      	b.n	8005244 <follow_path+0x250>
 8005152:	f1a0 0141 	sub.w	r1, r0, #65	; 0x41
 8005156:	2919      	cmp	r1, #25
 8005158:	d802      	bhi.n	8005160 <follow_path+0x16c>
 800515a:	f045 0502 	orr.w	r5, r5, #2
 800515e:	e7f3      	b.n	8005148 <follow_path+0x154>
 8005160:	f1a0 0161 	sub.w	r1, r0, #97	; 0x61
 8005164:	2919      	cmp	r1, #25
 8005166:	bf9e      	ittt	ls
 8005168:	3820      	subls	r0, #32
 800516a:	f045 0501 	orrls.w	r5, r5, #1
 800516e:	b280      	uxthls	r0, r0
 8005170:	e7ea      	b.n	8005148 <follow_path+0x154>
 8005172:	075a      	lsls	r2, r3, #29
 8005174:	d4be      	bmi.n	80050f4 <follow_path+0x100>
 8005176:	79b3      	ldrb	r3, [r6, #6]
 8005178:	06db      	lsls	r3, r3, #27
 800517a:	d565      	bpl.n	8005248 <follow_path+0x254>
 800517c:	f8bb 200c 	ldrh.w	r2, [fp, #12]
 8005180:	6970      	ldr	r0, [r6, #20]
 8005182:	f10b 0138 	add.w	r1, fp, #56	; 0x38
 8005186:	fbb0 f3f2 	udiv	r3, r0, r2
 800518a:	fb02 0313 	mls	r3, r2, r3, r0
 800518e:	f89b 0000 	ldrb.w	r0, [fp]
 8005192:	4419      	add	r1, r3
 8005194:	f7ff f876 	bl	8004284 <ld_clust.isra.0>
 8005198:	60b0      	str	r0, [r6, #8]
 800519a:	6833      	ldr	r3, [r6, #0]
 800519c:	2700      	movs	r7, #0
 800519e:	f8d3 a010 	ldr.w	sl, [r3, #16]
 80051a2:	f109 33ff 	add.w	r3, r9, #4294967295
 80051a6:	f1aa 0502 	sub.w	r5, sl, #2
 80051aa:	46a8      	mov	r8, r5
 80051ac:	f813 0f01 	ldrb.w	r0, [r3, #1]!
 80051b0:	1c7c      	adds	r4, r7, #1
 80051b2:	281f      	cmp	r0, #31
 80051b4:	d90c      	bls.n	80051d0 <follow_path+0x1dc>
 80051b6:	282f      	cmp	r0, #47	; 0x2f
 80051b8:	d002      	beq.n	80051c0 <follow_path+0x1cc>
 80051ba:	285c      	cmp	r0, #92	; 0x5c
 80051bc:	f47f af38 	bne.w	8005030 <follow_path+0x3c>
 80051c0:	f819 3004 	ldrb.w	r3, [r9, r4]
 80051c4:	2b2f      	cmp	r3, #47	; 0x2f
 80051c6:	f43f af31 	beq.w	800502c <follow_path+0x38>
 80051ca:	2b5c      	cmp	r3, #92	; 0x5c
 80051cc:	f43f af2e 	beq.w	800502c <follow_path+0x38>
 80051d0:	2820      	cmp	r0, #32
 80051d2:	44a1      	add	r9, r4
 80051d4:	bf34      	ite	cc
 80051d6:	2404      	movcc	r4, #4
 80051d8:	2400      	movcs	r4, #0
 80051da:	2f00      	cmp	r7, #0
 80051dc:	f47f af3f 	bne.w	800505e <follow_path+0x6a>
 80051e0:	2300      	movs	r3, #0
 80051e2:	f82a 3017 	strh.w	r3, [sl, r7, lsl #1]
 80051e6:	2f00      	cmp	r7, #0
 80051e8:	f43f af33 	beq.w	8005052 <follow_path+0x5e>
 80051ec:	2120      	movs	r1, #32
 80051ee:	220b      	movs	r2, #11
 80051f0:	f106 0024 	add.w	r0, r6, #36	; 0x24
 80051f4:	f7fe ff3c 	bl	8004070 <mem_set>
 80051f8:	4619      	mov	r1, r3
 80051fa:	f83a 3011 	ldrh.w	r3, [sl, r1, lsl #1]
 80051fe:	2b20      	cmp	r3, #32
 8005200:	f43f af36 	beq.w	8005070 <follow_path+0x7c>
 8005204:	2b2e      	cmp	r3, #46	; 0x2e
 8005206:	f43f af33 	beq.w	8005070 <follow_path+0x7c>
 800520a:	b109      	cbz	r1, 8005210 <follow_path+0x21c>
 800520c:	f044 0403 	orr.w	r4, r4, #3
 8005210:	f835 3017 	ldrh.w	r3, [r5, r7, lsl #1]
 8005214:	2b2e      	cmp	r3, #46	; 0x2e
 8005216:	d001      	beq.n	800521c <follow_path+0x228>
 8005218:	3f01      	subs	r7, #1
 800521a:	d1f9      	bne.n	8005210 <follow_path+0x21c>
 800521c:	2300      	movs	r3, #0
 800521e:	f04f 0808 	mov.w	r8, #8
 8005222:	461d      	mov	r5, r3
 8005224:	f83a 0011 	ldrh.w	r0, [sl, r1, lsl #1]
 8005228:	1c4a      	adds	r2, r1, #1
 800522a:	2800      	cmp	r0, #0
 800522c:	f43f af31 	beq.w	8005092 <follow_path+0x9e>
 8005230:	2820      	cmp	r0, #32
 8005232:	d005      	beq.n	8005240 <follow_path+0x24c>
 8005234:	282e      	cmp	r0, #46	; 0x2e
 8005236:	f47f af1d 	bne.w	8005074 <follow_path+0x80>
 800523a:	42ba      	cmp	r2, r7
 800523c:	f43f af1e 	beq.w	800507c <follow_path+0x88>
 8005240:	f044 0403 	orr.w	r4, r4, #3
 8005244:	4611      	mov	r1, r2
 8005246:	e7ed      	b.n	8005224 <follow_path+0x230>
 8005248:	2005      	movs	r0, #5
 800524a:	e753      	b.n	80050f4 <follow_path+0x100>
 800524c:	08006651 	.word	0x08006651
 8005250:	08006661 	.word	0x08006661
 8005254:	0800665a 	.word	0x0800665a

08005258 <f_mount>:
 8005258:	b530      	push	{r4, r5, lr}
 800525a:	b085      	sub	sp, #20
 800525c:	e9cd 1000 	strd	r1, r0, [sp]
 8005260:	a803      	add	r0, sp, #12
 8005262:	9103      	str	r1, [sp, #12]
 8005264:	4615      	mov	r5, r2
 8005266:	f7fe ffd2 	bl	800420e <get_ldnumber>
 800526a:	1e01      	subs	r1, r0, #0
 800526c:	db20      	blt.n	80052b0 <f_mount+0x58>
 800526e:	4c12      	ldr	r4, [pc, #72]	; (80052b8 <f_mount+0x60>)
 8005270:	f854 0021 	ldr.w	r0, [r4, r1, lsl #2]
 8005274:	b160      	cbz	r0, 8005290 <f_mount+0x38>
 8005276:	4b11      	ldr	r3, [pc, #68]	; (80052bc <f_mount+0x64>)
 8005278:	681a      	ldr	r2, [r3, #0]
 800527a:	4290      	cmp	r0, r2
 800527c:	bf04      	itt	eq
 800527e:	2200      	moveq	r2, #0
 8005280:	601a      	streq	r2, [r3, #0]
 8005282:	691a      	ldr	r2, [r3, #16]
 8005284:	4290      	cmp	r0, r2
 8005286:	f04f 0200 	mov.w	r2, #0
 800528a:	bf08      	it	eq
 800528c:	611a      	streq	r2, [r3, #16]
 800528e:	7002      	strb	r2, [r0, #0]
 8005290:	9801      	ldr	r0, [sp, #4]
 8005292:	b108      	cbz	r0, 8005298 <f_mount+0x40>
 8005294:	2300      	movs	r3, #0
 8005296:	7003      	strb	r3, [r0, #0]
 8005298:	f844 0021 	str.w	r0, [r4, r1, lsl #2]
 800529c:	b130      	cbz	r0, 80052ac <f_mount+0x54>
 800529e:	2d01      	cmp	r5, #1
 80052a0:	d108      	bne.n	80052b4 <f_mount+0x5c>
 80052a2:	2200      	movs	r2, #0
 80052a4:	4668      	mov	r0, sp
 80052a6:	a901      	add	r1, sp, #4
 80052a8:	f7ff f88a 	bl	80043c0 <find_volume>
 80052ac:	b005      	add	sp, #20
 80052ae:	bd30      	pop	{r4, r5, pc}
 80052b0:	200b      	movs	r0, #11
 80052b2:	e7fb      	b.n	80052ac <f_mount+0x54>
 80052b4:	2000      	movs	r0, #0
 80052b6:	e7f9      	b.n	80052ac <f_mount+0x54>
 80052b8:	2000013c 	.word	0x2000013c
 80052bc:	20000140 	.word	0x20000140

080052c0 <f_open>:
 80052c0:	e92d 43f0 	stmdb	sp!, {r4, r5, r6, r7, r8, r9, lr}
 80052c4:	b091      	sub	sp, #68	; 0x44
 80052c6:	4617      	mov	r7, r2
 80052c8:	4604      	mov	r4, r0
 80052ca:	9101      	str	r1, [sp, #4]
 80052cc:	2800      	cmp	r0, #0
 80052ce:	f000 80f7 	beq.w	80054c0 <f_open+0x200>
 80052d2:	f002 053f 	and.w	r5, r2, #63	; 0x3f
 80052d6:	462a      	mov	r2, r5
 80052d8:	a902      	add	r1, sp, #8
 80052da:	a801      	add	r0, sp, #4
 80052dc:	f7ff f870 	bl	80043c0 <find_volume>
 80052e0:	4606      	mov	r6, r0
 80052e2:	2800      	cmp	r0, #0
 80052e4:	d15c      	bne.n	80053a0 <f_open+0xe0>
 80052e6:	9b02      	ldr	r3, [sp, #8]
 80052e8:	9901      	ldr	r1, [sp, #4]
 80052ea:	a803      	add	r0, sp, #12
 80052ec:	9303      	str	r3, [sp, #12]
 80052ee:	f7ff fe81 	bl	8004ff4 <follow_path>
 80052f2:	b958      	cbnz	r0, 800530c <f_open+0x4c>
 80052f4:	f99d 303b 	ldrsb.w	r3, [sp, #59]	; 0x3b
 80052f8:	2b00      	cmp	r3, #0
 80052fa:	db58      	blt.n	80053ae <f_open+0xee>
 80052fc:	f015 0f3e 	tst.w	r5, #62	; 0x3e
 8005300:	bf14      	ite	ne
 8005302:	2101      	movne	r1, #1
 8005304:	2100      	moveq	r1, #0
 8005306:	a803      	add	r0, sp, #12
 8005308:	f7fe feb8 	bl	800407c <chk_lock>
 800530c:	f017 0f1c 	tst.w	r7, #28
 8005310:	d06d      	beq.n	80053ee <f_open+0x12e>
 8005312:	2800      	cmp	r0, #0
 8005314:	d04d      	beq.n	80053b2 <f_open+0xf2>
 8005316:	2804      	cmp	r0, #4
 8005318:	d142      	bne.n	80053a0 <f_open+0xe0>
 800531a:	4b6a      	ldr	r3, [pc, #424]	; (80054c4 <f_open+0x204>)
 800531c:	681a      	ldr	r2, [r3, #0]
 800531e:	b11a      	cbz	r2, 8005328 <f_open+0x68>
 8005320:	691b      	ldr	r3, [r3, #16]
 8005322:	2b00      	cmp	r3, #0
 8005324:	f040 80c6 	bne.w	80054b4 <f_open+0x1f4>
 8005328:	a803      	add	r0, sp, #12
 800532a:	f7ff fd23 	bl	8004d74 <dir_register>
 800532e:	2800      	cmp	r0, #0
 8005330:	d136      	bne.n	80053a0 <f_open+0xe0>
 8005332:	f045 0508 	orr.w	r5, r5, #8
 8005336:	f7fe fe3d 	bl	8003fb4 <get_fattime>
 800533a:	4602      	mov	r2, r0
 800533c:	4601      	mov	r1, r0
 800533e:	980b      	ldr	r0, [sp, #44]	; 0x2c
 8005340:	300e      	adds	r0, #14
 8005342:	f7fe fe8d 	bl	8004060 <st_dword>
 8005346:	980b      	ldr	r0, [sp, #44]	; 0x2c
 8005348:	4611      	mov	r1, r2
 800534a:	3016      	adds	r0, #22
 800534c:	f7fe fe88 	bl	8004060 <st_dword>
 8005350:	2220      	movs	r2, #32
 8005352:	9b0b      	ldr	r3, [sp, #44]	; 0x2c
 8005354:	f8dd 8008 	ldr.w	r8, [sp, #8]
 8005358:	72da      	strb	r2, [r3, #11]
 800535a:	990b      	ldr	r1, [sp, #44]	; 0x2c
 800535c:	f898 0000 	ldrb.w	r0, [r8]
 8005360:	f7fe ff90 	bl	8004284 <ld_clust.isra.0>
 8005364:	2200      	movs	r2, #0
 8005366:	4607      	mov	r7, r0
 8005368:	4640      	mov	r0, r8
 800536a:	f7fe ff99 	bl	80042a0 <st_clust.isra.0>
 800536e:	2200      	movs	r2, #0
 8005370:	2101      	movs	r1, #1
 8005372:	9b0b      	ldr	r3, [sp, #44]	; 0x2c
 8005374:	771a      	strb	r2, [r3, #28]
 8005376:	775a      	strb	r2, [r3, #29]
 8005378:	779a      	strb	r2, [r3, #30]
 800537a:	77da      	strb	r2, [r3, #31]
 800537c:	9b02      	ldr	r3, [sp, #8]
 800537e:	70d9      	strb	r1, [r3, #3]
 8005380:	b307      	cbz	r7, 80053c4 <f_open+0x104>
 8005382:	4639      	mov	r1, r7
 8005384:	a803      	add	r0, sp, #12
 8005386:	f8d3 8034 	ldr.w	r8, [r3, #52]	; 0x34
 800538a:	f7ff fb41 	bl	8004a10 <remove_chain>
 800538e:	b938      	cbnz	r0, 80053a0 <f_open+0xe0>
 8005390:	4641      	mov	r1, r8
 8005392:	9802      	ldr	r0, [sp, #8]
 8005394:	f7fe ffbc 	bl	8004310 <move_window>
 8005398:	9b02      	ldr	r3, [sp, #8]
 800539a:	3f01      	subs	r7, #1
 800539c:	615f      	str	r7, [r3, #20]
 800539e:	b188      	cbz	r0, 80053c4 <f_open+0x104>
 80053a0:	2300      	movs	r3, #0
 80053a2:	4606      	mov	r6, r0
 80053a4:	6023      	str	r3, [r4, #0]
 80053a6:	4630      	mov	r0, r6
 80053a8:	b011      	add	sp, #68	; 0x44
 80053aa:	e8bd 83f0 	ldmia.w	sp!, {r4, r5, r6, r7, r8, r9, pc}
 80053ae:	2006      	movs	r0, #6
 80053b0:	e7ac      	b.n	800530c <f_open+0x4c>
 80053b2:	f89d 3012 	ldrb.w	r3, [sp, #18]
 80053b6:	f013 0f11 	tst.w	r3, #17
 80053ba:	d122      	bne.n	8005402 <f_open+0x142>
 80053bc:	077b      	lsls	r3, r7, #29
 80053be:	d47b      	bmi.n	80054b8 <f_open+0x1f8>
 80053c0:	073f      	lsls	r7, r7, #28
 80053c2:	d4b8      	bmi.n	8005336 <f_open+0x76>
 80053c4:	9b02      	ldr	r3, [sp, #8]
 80053c6:	0728      	lsls	r0, r5, #28
 80053c8:	6b5b      	ldr	r3, [r3, #52]	; 0x34
 80053ca:	bf48      	it	mi
 80053cc:	f045 0540 	orrmi.w	r5, r5, #64	; 0x40
 80053d0:	6263      	str	r3, [r4, #36]	; 0x24
 80053d2:	9b0b      	ldr	r3, [sp, #44]	; 0x2c
 80053d4:	f015 0ffe 	tst.w	r5, #254	; 0xfe
 80053d8:	bf14      	ite	ne
 80053da:	2101      	movne	r1, #1
 80053dc:	2100      	moveq	r1, #0
 80053de:	62a3      	str	r3, [r4, #40]	; 0x28
 80053e0:	a803      	add	r0, sp, #12
 80053e2:	f7fe fe87 	bl	80040f4 <inc_lock>
 80053e6:	6120      	str	r0, [r4, #16]
 80053e8:	b968      	cbnz	r0, 8005406 <f_open+0x146>
 80053ea:	2002      	movs	r0, #2
 80053ec:	e7d8      	b.n	80053a0 <f_open+0xe0>
 80053ee:	2800      	cmp	r0, #0
 80053f0:	d1d6      	bne.n	80053a0 <f_open+0xe0>
 80053f2:	f89d 3012 	ldrb.w	r3, [sp, #18]
 80053f6:	06d8      	lsls	r0, r3, #27
 80053f8:	d460      	bmi.n	80054bc <f_open+0x1fc>
 80053fa:	07ba      	lsls	r2, r7, #30
 80053fc:	d5e2      	bpl.n	80053c4 <f_open+0x104>
 80053fe:	07df      	lsls	r7, r3, #31
 8005400:	d5e0      	bpl.n	80053c4 <f_open+0x104>
 8005402:	2007      	movs	r0, #7
 8005404:	e7cc      	b.n	80053a0 <f_open+0xe0>
 8005406:	9f02      	ldr	r7, [sp, #8]
 8005408:	990b      	ldr	r1, [sp, #44]	; 0x2c
 800540a:	7838      	ldrb	r0, [r7, #0]
 800540c:	f7fe ff3a 	bl	8004284 <ld_clust.isra.0>
 8005410:	60a0      	str	r0, [r4, #8]
 8005412:	f101 001c 	add.w	r0, r1, #28
 8005416:	f7fe fe1b 	bl	8004050 <ld_dword>
 800541a:	2100      	movs	r1, #0
 800541c:	88fb      	ldrh	r3, [r7, #6]
 800541e:	6027      	str	r7, [r4, #0]
 8005420:	f104 0730 	add.w	r7, r4, #48	; 0x30
 8005424:	f44f 5280 	mov.w	r2, #4096	; 0x1000
 8005428:	60e0      	str	r0, [r4, #12]
 800542a:	62e1      	str	r1, [r4, #44]	; 0x2c
 800542c:	4638      	mov	r0, r7
 800542e:	80a3      	strh	r3, [r4, #4]
 8005430:	7525      	strb	r5, [r4, #20]
 8005432:	7561      	strb	r1, [r4, #21]
 8005434:	6221      	str	r1, [r4, #32]
 8005436:	61a1      	str	r1, [r4, #24]
 8005438:	f7fe fe1a 	bl	8004070 <mem_set>
 800543c:	06aa      	lsls	r2, r5, #26
 800543e:	d5b2      	bpl.n	80053a6 <f_open+0xe6>
 8005440:	68e5      	ldr	r5, [r4, #12]
 8005442:	2d00      	cmp	r5, #0
 8005444:	d0af      	beq.n	80053a6 <f_open+0xe6>
 8005446:	9b02      	ldr	r3, [sp, #8]
 8005448:	68a1      	ldr	r1, [r4, #8]
 800544a:	895a      	ldrh	r2, [r3, #10]
 800544c:	f8b3 800c 	ldrh.w	r8, [r3, #12]
 8005450:	61a5      	str	r5, [r4, #24]
 8005452:	fb08 f802 	mul.w	r8, r8, r2
 8005456:	45a8      	cmp	r8, r5
 8005458:	d31e      	bcc.n	8005498 <f_open+0x1d8>
 800545a:	2000      	movs	r0, #0
 800545c:	61e1      	str	r1, [r4, #28]
 800545e:	2800      	cmp	r0, #0
 8005460:	d19e      	bne.n	80053a0 <f_open+0xe0>
 8005462:	f8dd 9008 	ldr.w	r9, [sp, #8]
 8005466:	f8b9 300c 	ldrh.w	r3, [r9, #12]
 800546a:	fbb5 f2f3 	udiv	r2, r5, r3
 800546e:	fb03 5512 	mls	r5, r3, r2, r5
 8005472:	2d00      	cmp	r5, #0
 8005474:	d097      	beq.n	80053a6 <f_open+0xe6>
 8005476:	4648      	mov	r0, r9
 8005478:	f7fe fe9c 	bl	80041b4 <clust2sect>
 800547c:	2800      	cmp	r0, #0
 800547e:	d0b4      	beq.n	80053ea <f_open+0x12a>
 8005480:	4402      	add	r2, r0
 8005482:	6222      	str	r2, [r4, #32]
 8005484:	2301      	movs	r3, #1
 8005486:	4639      	mov	r1, r7
 8005488:	f899 0001 	ldrb.w	r0, [r9, #1]
 800548c:	f7fe fdb8 	bl	8004000 <disk_read>
 8005490:	2800      	cmp	r0, #0
 8005492:	d088      	beq.n	80053a6 <f_open+0xe6>
 8005494:	2001      	movs	r0, #1
 8005496:	e783      	b.n	80053a0 <f_open+0xe0>
 8005498:	6820      	ldr	r0, [r4, #0]
 800549a:	f7ff f9ad 	bl	80047f8 <get_fat.isra.0>
 800549e:	2801      	cmp	r0, #1
 80054a0:	4601      	mov	r1, r0
 80054a2:	eba5 0508 	sub.w	r5, r5, r8
 80054a6:	d903      	bls.n	80054b0 <f_open+0x1f0>
 80054a8:	1c43      	adds	r3, r0, #1
 80054aa:	d1d4      	bne.n	8005456 <f_open+0x196>
 80054ac:	2001      	movs	r0, #1
 80054ae:	e7d5      	b.n	800545c <f_open+0x19c>
 80054b0:	2002      	movs	r0, #2
 80054b2:	e7d3      	b.n	800545c <f_open+0x19c>
 80054b4:	2012      	movs	r0, #18
 80054b6:	e773      	b.n	80053a0 <f_open+0xe0>
 80054b8:	2008      	movs	r0, #8
 80054ba:	e771      	b.n	80053a0 <f_open+0xe0>
 80054bc:	2004      	movs	r0, #4
 80054be:	e76f      	b.n	80053a0 <f_open+0xe0>
 80054c0:	2609      	movs	r6, #9
 80054c2:	e770      	b.n	80053a6 <f_open+0xe6>
 80054c4:	20000140 	.word	0x20000140

080054c8 <f_write>:
 80054c8:	e92d 4ff0 	stmdb	sp!, {r4, r5, r6, r7, r8, r9, sl, fp, lr}
 80054cc:	4699      	mov	r9, r3
 80054ce:	2300      	movs	r3, #0
 80054d0:	b085      	sub	sp, #20
 80054d2:	4688      	mov	r8, r1
 80054d4:	f8c9 3000 	str.w	r3, [r9]
 80054d8:	a903      	add	r1, sp, #12
 80054da:	4604      	mov	r4, r0
 80054dc:	4616      	mov	r6, r2
 80054de:	f7fe feae 	bl	800423e <validate>
 80054e2:	4605      	mov	r5, r0
 80054e4:	bb60      	cbnz	r0, 8005540 <f_write+0x78>
 80054e6:	7d65      	ldrb	r5, [r4, #21]
 80054e8:	bb55      	cbnz	r5, 8005540 <f_write+0x78>
 80054ea:	7d23      	ldrb	r3, [r4, #20]
 80054ec:	079a      	lsls	r2, r3, #30
 80054ee:	f140 80b8 	bpl.w	8005662 <f_write+0x19a>
 80054f2:	69a3      	ldr	r3, [r4, #24]
 80054f4:	f104 0a30 	add.w	sl, r4, #48	; 0x30
 80054f8:	42f3      	cmn	r3, r6
 80054fa:	bf28      	it	cs
 80054fc:	43de      	mvncs	r6, r3
 80054fe:	b1de      	cbz	r6, 8005538 <f_write+0x70>
 8005500:	9803      	ldr	r0, [sp, #12]
 8005502:	69a1      	ldr	r1, [r4, #24]
 8005504:	8983      	ldrh	r3, [r0, #12]
 8005506:	fbb1 f2f3 	udiv	r2, r1, r3
 800550a:	fb03 1312 	mls	r3, r3, r2, r1
 800550e:	2b00      	cmp	r3, #0
 8005510:	f040 8091 	bne.w	8005636 <f_write+0x16e>
 8005514:	8947      	ldrh	r7, [r0, #10]
 8005516:	3f01      	subs	r7, #1
 8005518:	4017      	ands	r7, r2
 800551a:	d124      	bne.n	8005566 <f_write+0x9e>
 800551c:	b931      	cbnz	r1, 800552c <f_write+0x64>
 800551e:	68a0      	ldr	r0, [r4, #8]
 8005520:	b9a0      	cbnz	r0, 800554c <f_write+0x84>
 8005522:	4601      	mov	r1, r0
 8005524:	4620      	mov	r0, r4
 8005526:	f7ff fa1b 	bl	8004960 <create_chain>
 800552a:	e004      	b.n	8005536 <f_write+0x6e>
 800552c:	6ae3      	ldr	r3, [r4, #44]	; 0x2c
 800552e:	b15b      	cbz	r3, 8005548 <f_write+0x80>
 8005530:	4620      	mov	r0, r4
 8005532:	f7fe fe4a 	bl	80041ca <clmt_clust>
 8005536:	b948      	cbnz	r0, 800554c <f_write+0x84>
 8005538:	7d23      	ldrb	r3, [r4, #20]
 800553a:	f043 0340 	orr.w	r3, r3, #64	; 0x40
 800553e:	7523      	strb	r3, [r4, #20]
 8005540:	4628      	mov	r0, r5
 8005542:	b005      	add	sp, #20
 8005544:	e8bd 8ff0 	ldmia.w	sp!, {r4, r5, r6, r7, r8, r9, sl, fp, pc}
 8005548:	69e1      	ldr	r1, [r4, #28]
 800554a:	e7eb      	b.n	8005524 <f_write+0x5c>
 800554c:	2801      	cmp	r0, #1
 800554e:	d102      	bne.n	8005556 <f_write+0x8e>
 8005550:	2502      	movs	r5, #2
 8005552:	7565      	strb	r5, [r4, #21]
 8005554:	e7f4      	b.n	8005540 <f_write+0x78>
 8005556:	1c43      	adds	r3, r0, #1
 8005558:	d101      	bne.n	800555e <f_write+0x96>
 800555a:	2501      	movs	r5, #1
 800555c:	e7f9      	b.n	8005552 <f_write+0x8a>
 800555e:	68a3      	ldr	r3, [r4, #8]
 8005560:	61e0      	str	r0, [r4, #28]
 8005562:	b903      	cbnz	r3, 8005566 <f_write+0x9e>
 8005564:	60a0      	str	r0, [r4, #8]
 8005566:	f994 3014 	ldrsb.w	r3, [r4, #20]
 800556a:	2b00      	cmp	r3, #0
 800556c:	da0c      	bge.n	8005588 <f_write+0xc0>
 800556e:	9803      	ldr	r0, [sp, #12]
 8005570:	2301      	movs	r3, #1
 8005572:	4651      	mov	r1, sl
 8005574:	6a22      	ldr	r2, [r4, #32]
 8005576:	7840      	ldrb	r0, [r0, #1]
 8005578:	f7fe fd50 	bl	800401c <disk_write>
 800557c:	2800      	cmp	r0, #0
 800557e:	d1ec      	bne.n	800555a <f_write+0x92>
 8005580:	7d23      	ldrb	r3, [r4, #20]
 8005582:	f003 037f 	and.w	r3, r3, #127	; 0x7f
 8005586:	7523      	strb	r3, [r4, #20]
 8005588:	f8dd b00c 	ldr.w	fp, [sp, #12]
 800558c:	69e1      	ldr	r1, [r4, #28]
 800558e:	4658      	mov	r0, fp
 8005590:	f7fe fe10 	bl	80041b4 <clust2sect>
 8005594:	2800      	cmp	r0, #0
 8005596:	d0db      	beq.n	8005550 <f_write+0x88>
 8005598:	f8bb 300c 	ldrh.w	r3, [fp, #12]
 800559c:	183a      	adds	r2, r7, r0
 800559e:	42b3      	cmp	r3, r6
 80055a0:	d837      	bhi.n	8005612 <f_write+0x14a>
 80055a2:	fbb6 f3f3 	udiv	r3, r6, r3
 80055a6:	f8bb 100a 	ldrh.w	r1, [fp, #10]
 80055aa:	18f8      	adds	r0, r7, r3
 80055ac:	4288      	cmp	r0, r1
 80055ae:	bf88      	it	hi
 80055b0:	1bcb      	subhi	r3, r1, r7
 80055b2:	f89b 0001 	ldrb.w	r0, [fp, #1]
 80055b6:	4641      	mov	r1, r8
 80055b8:	e9cd 2300 	strd	r2, r3, [sp]
 80055bc:	f7fe fd2e 	bl	800401c <disk_write>
 80055c0:	2800      	cmp	r0, #0
 80055c2:	d1ca      	bne.n	800555a <f_write+0x92>
 80055c4:	6a21      	ldr	r1, [r4, #32]
 80055c6:	9a00      	ldr	r2, [sp, #0]
 80055c8:	9b01      	ldr	r3, [sp, #4]
 80055ca:	1a89      	subs	r1, r1, r2
 80055cc:	4299      	cmp	r1, r3
 80055ce:	d20d      	bcs.n	80055ec <f_write+0x124>
 80055d0:	9a03      	ldr	r2, [sp, #12]
 80055d2:	8992      	ldrh	r2, [r2, #12]
 80055d4:	b132      	cbz	r2, 80055e4 <f_write+0x11c>
 80055d6:	4650      	mov	r0, sl
 80055d8:	fb02 8101 	mla	r1, r2, r1, r8
 80055dc:	9300      	str	r3, [sp, #0]
 80055de:	f7fe fe48 	bl	8004272 <mem_cpy.part.0>
 80055e2:	9b00      	ldr	r3, [sp, #0]
 80055e4:	7d22      	ldrb	r2, [r4, #20]
 80055e6:	f002 027f 	and.w	r2, r2, #127	; 0x7f
 80055ea:	7522      	strb	r2, [r4, #20]
 80055ec:	9a03      	ldr	r2, [sp, #12]
 80055ee:	8997      	ldrh	r7, [r2, #12]
 80055f0:	435f      	muls	r7, r3
 80055f2:	69a3      	ldr	r3, [r4, #24]
 80055f4:	68e2      	ldr	r2, [r4, #12]
 80055f6:	443b      	add	r3, r7
 80055f8:	61a3      	str	r3, [r4, #24]
 80055fa:	429a      	cmp	r2, r3
 80055fc:	bf2c      	ite	cs
 80055fe:	60e2      	strcs	r2, [r4, #12]
 8005600:	60e3      	strcc	r3, [r4, #12]
 8005602:	f8d9 3000 	ldr.w	r3, [r9]
 8005606:	44b8      	add	r8, r7
 8005608:	443b      	add	r3, r7
 800560a:	f8c9 3000 	str.w	r3, [r9]
 800560e:	1bf6      	subs	r6, r6, r7
 8005610:	e775      	b.n	80054fe <f_write+0x36>
 8005612:	6a23      	ldr	r3, [r4, #32]
 8005614:	4293      	cmp	r3, r2
 8005616:	d00d      	beq.n	8005634 <f_write+0x16c>
 8005618:	68e1      	ldr	r1, [r4, #12]
 800561a:	69a3      	ldr	r3, [r4, #24]
 800561c:	4299      	cmp	r1, r3
 800561e:	d909      	bls.n	8005634 <f_write+0x16c>
 8005620:	2301      	movs	r3, #1
 8005622:	4651      	mov	r1, sl
 8005624:	f89b 0001 	ldrb.w	r0, [fp, #1]
 8005628:	9200      	str	r2, [sp, #0]
 800562a:	f7fe fce9 	bl	8004000 <disk_read>
 800562e:	9a00      	ldr	r2, [sp, #0]
 8005630:	2800      	cmp	r0, #0
 8005632:	d192      	bne.n	800555a <f_write+0x92>
 8005634:	6222      	str	r2, [r4, #32]
 8005636:	9b03      	ldr	r3, [sp, #12]
 8005638:	899f      	ldrh	r7, [r3, #12]
 800563a:	69a3      	ldr	r3, [r4, #24]
 800563c:	fbb3 f0f7 	udiv	r0, r3, r7
 8005640:	fb07 3010 	mls	r0, r7, r0, r3
 8005644:	1a3f      	subs	r7, r7, r0
 8005646:	42b7      	cmp	r7, r6
 8005648:	bf28      	it	cs
 800564a:	4637      	movcs	r7, r6
 800564c:	b127      	cbz	r7, 8005658 <f_write+0x190>
 800564e:	463a      	mov	r2, r7
 8005650:	4641      	mov	r1, r8
 8005652:	4450      	add	r0, sl
 8005654:	f7fe fe0d 	bl	8004272 <mem_cpy.part.0>
 8005658:	7d23      	ldrb	r3, [r4, #20]
 800565a:	f063 037f 	orn	r3, r3, #127	; 0x7f
 800565e:	7523      	strb	r3, [r4, #20]
 8005660:	e7c7      	b.n	80055f2 <f_write+0x12a>
 8005662:	2507      	movs	r5, #7
 8005664:	e76c      	b.n	8005540 <f_write+0x78>

08005666 <putc_bfd>:
 8005666:	290a      	cmp	r1, #10
 8005668:	b573      	push	{r0, r1, r4, r5, r6, lr}
 800566a:	4604      	mov	r4, r0
 800566c:	460e      	mov	r6, r1
 800566e:	d102      	bne.n	8005676 <putc_bfd+0x10>
 8005670:	210d      	movs	r1, #13
 8005672:	f7ff fff8 	bl	8005666 <putc_bfd>
 8005676:	6863      	ldr	r3, [r4, #4]
 8005678:	2b00      	cmp	r3, #0
 800567a:	db14      	blt.n	80056a6 <putc_bfd+0x40>
 800567c:	1c5d      	adds	r5, r3, #1
 800567e:	2d3c      	cmp	r5, #60	; 0x3c
 8005680:	4423      	add	r3, r4
 8005682:	731e      	strb	r6, [r3, #12]
 8005684:	dd0b      	ble.n	800569e <putc_bfd+0x38>
 8005686:	462a      	mov	r2, r5
 8005688:	ab01      	add	r3, sp, #4
 800568a:	6820      	ldr	r0, [r4, #0]
 800568c:	f104 010c 	add.w	r1, r4, #12
 8005690:	f7ff ff1a 	bl	80054c8 <f_write>
 8005694:	9b01      	ldr	r3, [sp, #4]
 8005696:	1b5d      	subs	r5, r3, r5
 8005698:	bf18      	it	ne
 800569a:	f04f 35ff 	movne.w	r5, #4294967295
 800569e:	68a3      	ldr	r3, [r4, #8]
 80056a0:	6065      	str	r5, [r4, #4]
 80056a2:	3301      	adds	r3, #1
 80056a4:	60a3      	str	r3, [r4, #8]
 80056a6:	b002      	add	sp, #8
 80056a8:	bd70      	pop	{r4, r5, r6, pc}

080056aa <putc_flush>:
 80056aa:	6842      	ldr	r2, [r0, #4]
 80056ac:	b513      	push	{r0, r1, r4, lr}
 80056ae:	2a00      	cmp	r2, #0
 80056b0:	4604      	mov	r4, r0
 80056b2:	da03      	bge.n	80056bc <putc_flush+0x12>
 80056b4:	f04f 30ff 	mov.w	r0, #4294967295
 80056b8:	b002      	add	sp, #8
 80056ba:	bd10      	pop	{r4, pc}
 80056bc:	f100 010c 	add.w	r1, r0, #12
 80056c0:	ab01      	add	r3, sp, #4
 80056c2:	6800      	ldr	r0, [r0, #0]
 80056c4:	f7ff ff00 	bl	80054c8 <f_write>
 80056c8:	2800      	cmp	r0, #0
 80056ca:	d1f3      	bne.n	80056b4 <putc_flush+0xa>
 80056cc:	6862      	ldr	r2, [r4, #4]
 80056ce:	9b01      	ldr	r3, [sp, #4]
 80056d0:	429a      	cmp	r2, r3
 80056d2:	d1ef      	bne.n	80056b4 <putc_flush+0xa>
 80056d4:	68a0      	ldr	r0, [r4, #8]
 80056d6:	e7ef      	b.n	80056b8 <putc_flush+0xe>

080056d8 <f_sync>:
 80056d8:	b5f7      	push	{r0, r1, r2, r4, r5, r6, r7, lr}
 80056da:	a901      	add	r1, sp, #4
 80056dc:	4605      	mov	r5, r0
 80056de:	f7fe fdae 	bl	800423e <validate>
 80056e2:	4604      	mov	r4, r0
 80056e4:	2800      	cmp	r0, #0
 80056e6:	d13b      	bne.n	8005760 <f_sync+0x88>
 80056e8:	7d2b      	ldrb	r3, [r5, #20]
 80056ea:	f013 0440 	ands.w	r4, r3, #64	; 0x40
 80056ee:	d037      	beq.n	8005760 <f_sync+0x88>
 80056f0:	061b      	lsls	r3, r3, #24
 80056f2:	d50c      	bpl.n	800570e <f_sync+0x36>
 80056f4:	9801      	ldr	r0, [sp, #4]
 80056f6:	2301      	movs	r3, #1
 80056f8:	6a2a      	ldr	r2, [r5, #32]
 80056fa:	7840      	ldrb	r0, [r0, #1]
 80056fc:	f105 0130 	add.w	r1, r5, #48	; 0x30
 8005700:	f7fe fc8c 	bl	800401c <disk_write>
 8005704:	bb78      	cbnz	r0, 8005766 <f_sync+0x8e>
 8005706:	7d2b      	ldrb	r3, [r5, #20]
 8005708:	f003 037f 	and.w	r3, r3, #127	; 0x7f
 800570c:	752b      	strb	r3, [r5, #20]
 800570e:	f7fe fc51 	bl	8003fb4 <get_fattime>
 8005712:	6a69      	ldr	r1, [r5, #36]	; 0x24
 8005714:	4607      	mov	r7, r0
 8005716:	9801      	ldr	r0, [sp, #4]
 8005718:	f7fe fdfa 	bl	8004310 <move_window>
 800571c:	4604      	mov	r4, r0
 800571e:	b9f8      	cbnz	r0, 8005760 <f_sync+0x88>
 8005720:	6aae      	ldr	r6, [r5, #40]	; 0x28
 8005722:	7af3      	ldrb	r3, [r6, #11]
 8005724:	4631      	mov	r1, r6
 8005726:	f043 0320 	orr.w	r3, r3, #32
 800572a:	72f3      	strb	r3, [r6, #11]
 800572c:	68aa      	ldr	r2, [r5, #8]
 800572e:	6828      	ldr	r0, [r5, #0]
 8005730:	f7fe fdb6 	bl	80042a0 <st_clust.isra.0>
 8005734:	68e9      	ldr	r1, [r5, #12]
 8005736:	f106 001c 	add.w	r0, r6, #28
 800573a:	f7fe fc91 	bl	8004060 <st_dword>
 800573e:	4639      	mov	r1, r7
 8005740:	f106 0016 	add.w	r0, r6, #22
 8005744:	f7fe fc8c 	bl	8004060 <st_dword>
 8005748:	2301      	movs	r3, #1
 800574a:	9801      	ldr	r0, [sp, #4]
 800574c:	74b4      	strb	r4, [r6, #18]
 800574e:	74f4      	strb	r4, [r6, #19]
 8005750:	70c3      	strb	r3, [r0, #3]
 8005752:	f7ff f994 	bl	8004a7e <sync_fs>
 8005756:	4604      	mov	r4, r0
 8005758:	7d2b      	ldrb	r3, [r5, #20]
 800575a:	f023 0340 	bic.w	r3, r3, #64	; 0x40
 800575e:	752b      	strb	r3, [r5, #20]
 8005760:	4620      	mov	r0, r4
 8005762:	b003      	add	sp, #12
 8005764:	bdf0      	pop	{r4, r5, r6, r7, pc}
 8005766:	2401      	movs	r4, #1
 8005768:	e7fa      	b.n	8005760 <f_sync+0x88>

0800576a <f_close>:
 800576a:	b513      	push	{r0, r1, r4, lr}
 800576c:	4604      	mov	r4, r0
 800576e:	f7ff ffb3 	bl	80056d8 <f_sync>
 8005772:	b948      	cbnz	r0, 8005788 <f_close+0x1e>
 8005774:	4620      	mov	r0, r4
 8005776:	a901      	add	r1, sp, #4
 8005778:	f7fe fd61 	bl	800423e <validate>
 800577c:	b920      	cbnz	r0, 8005788 <f_close+0x1e>
 800577e:	6920      	ldr	r0, [r4, #16]
 8005780:	f7fe fcfa 	bl	8004178 <dec_lock>
 8005784:	b900      	cbnz	r0, 8005788 <f_close+0x1e>
 8005786:	6020      	str	r0, [r4, #0]
 8005788:	b002      	add	sp, #8
 800578a:	bd10      	pop	{r4, pc}

0800578c <f_lseek>:
 800578c:	e92d 4ff7 	stmdb	sp!, {r0, r1, r2, r4, r5, r6, r7, r8, r9, sl, fp, lr}
 8005790:	460d      	mov	r5, r1
 8005792:	a901      	add	r1, sp, #4
 8005794:	4604      	mov	r4, r0
 8005796:	f7fe fd52 	bl	800423e <validate>
 800579a:	4606      	mov	r6, r0
 800579c:	b9e8      	cbnz	r0, 80057da <f_lseek+0x4e>
 800579e:	7d66      	ldrb	r6, [r4, #21]
 80057a0:	b9de      	cbnz	r6, 80057da <f_lseek+0x4e>
 80057a2:	6ae3      	ldr	r3, [r4, #44]	; 0x2c
 80057a4:	2b00      	cmp	r3, #0
 80057a6:	d07e      	beq.n	80058a6 <f_lseek+0x11a>
 80057a8:	1c6a      	adds	r2, r5, #1
 80057aa:	d139      	bne.n	8005820 <f_lseek+0x94>
 80057ac:	461d      	mov	r5, r3
 80057ae:	f8d4 8008 	ldr.w	r8, [r4, #8]
 80057b2:	2702      	movs	r7, #2
 80057b4:	f855 bb04 	ldr.w	fp, [r5], #4
 80057b8:	f1b8 0f00 	cmp.w	r8, #0
 80057bc:	d028      	beq.n	8005810 <f_lseek+0x84>
 80057be:	4640      	mov	r0, r8
 80057c0:	f04f 0a00 	mov.w	sl, #0
 80057c4:	4601      	mov	r1, r0
 80057c6:	4681      	mov	r9, r0
 80057c8:	6820      	ldr	r0, [r4, #0]
 80057ca:	f7ff f815 	bl	80047f8 <get_fat.isra.0>
 80057ce:	2801      	cmp	r0, #1
 80057d0:	f10a 0a01 	add.w	sl, sl, #1
 80057d4:	d807      	bhi.n	80057e6 <f_lseek+0x5a>
 80057d6:	2602      	movs	r6, #2
 80057d8:	7566      	strb	r6, [r4, #21]
 80057da:	4630      	mov	r0, r6
 80057dc:	b003      	add	sp, #12
 80057de:	e8bd 8ff0 	ldmia.w	sp!, {r4, r5, r6, r7, r8, r9, sl, fp, pc}
 80057e2:	4680      	mov	r8, r0
 80057e4:	e7eb      	b.n	80057be <f_lseek+0x32>
 80057e6:	1c43      	adds	r3, r0, #1
 80057e8:	d101      	bne.n	80057ee <f_lseek+0x62>
 80057ea:	2601      	movs	r6, #1
 80057ec:	e7f4      	b.n	80057d8 <f_lseek+0x4c>
 80057ee:	f109 0901 	add.w	r9, r9, #1
 80057f2:	4581      	cmp	r9, r0
 80057f4:	d0e6      	beq.n	80057c4 <f_lseek+0x38>
 80057f6:	3702      	adds	r7, #2
 80057f8:	45bb      	cmp	fp, r7
 80057fa:	bf21      	itttt	cs
 80057fc:	462b      	movcs	r3, r5
 80057fe:	f843 ab08 	strcs.w	sl, [r3], #8
 8005802:	f8c5 8004 	strcs.w	r8, [r5, #4]
 8005806:	461d      	movcs	r5, r3
 8005808:	9b01      	ldr	r3, [sp, #4]
 800580a:	69db      	ldr	r3, [r3, #28]
 800580c:	4283      	cmp	r3, r0
 800580e:	d8e8      	bhi.n	80057e2 <f_lseek+0x56>
 8005810:	6ae3      	ldr	r3, [r4, #44]	; 0x2c
 8005812:	455f      	cmp	r7, fp
 8005814:	601f      	str	r7, [r3, #0]
 8005816:	f200 80cc 	bhi.w	80059b2 <f_lseek+0x226>
 800581a:	2300      	movs	r3, #0
 800581c:	602b      	str	r3, [r5, #0]
 800581e:	e7dc      	b.n	80057da <f_lseek+0x4e>
 8005820:	68e0      	ldr	r0, [r4, #12]
 8005822:	4285      	cmp	r5, r0
 8005824:	bf28      	it	cs
 8005826:	4605      	movcs	r5, r0
 8005828:	61a5      	str	r5, [r4, #24]
 800582a:	2d00      	cmp	r5, #0
 800582c:	d0d5      	beq.n	80057da <f_lseek+0x4e>
 800582e:	f105 38ff 	add.w	r8, r5, #4294967295
 8005832:	4641      	mov	r1, r8
 8005834:	4620      	mov	r0, r4
 8005836:	f7fe fcc8 	bl	80041ca <clmt_clust>
 800583a:	9f01      	ldr	r7, [sp, #4]
 800583c:	4601      	mov	r1, r0
 800583e:	61e0      	str	r0, [r4, #28]
 8005840:	4638      	mov	r0, r7
 8005842:	f7fe fcb7 	bl	80041b4 <clust2sect>
 8005846:	2800      	cmp	r0, #0
 8005848:	d0c5      	beq.n	80057d6 <f_lseek+0x4a>
 800584a:	89bb      	ldrh	r3, [r7, #12]
 800584c:	fbb5 f1f3 	udiv	r1, r5, r3
 8005850:	fb03 5511 	mls	r5, r3, r1, r5
 8005854:	2d00      	cmp	r5, #0
 8005856:	d0c0      	beq.n	80057da <f_lseek+0x4e>
 8005858:	fbb8 f8f3 	udiv	r8, r8, r3
 800585c:	897d      	ldrh	r5, [r7, #10]
 800585e:	6a22      	ldr	r2, [r4, #32]
 8005860:	3d01      	subs	r5, #1
 8005862:	ea05 0508 	and.w	r5, r5, r8
 8005866:	4405      	add	r5, r0
 8005868:	42aa      	cmp	r2, r5
 800586a:	d0b6      	beq.n	80057da <f_lseek+0x4e>
 800586c:	f994 3014 	ldrsb.w	r3, [r4, #20]
 8005870:	f104 0630 	add.w	r6, r4, #48	; 0x30
 8005874:	2b00      	cmp	r3, #0
 8005876:	da0a      	bge.n	800588e <f_lseek+0x102>
 8005878:	2301      	movs	r3, #1
 800587a:	4631      	mov	r1, r6
 800587c:	7878      	ldrb	r0, [r7, #1]
 800587e:	f7fe fbcd 	bl	800401c <disk_write>
 8005882:	2800      	cmp	r0, #0
 8005884:	d1b1      	bne.n	80057ea <f_lseek+0x5e>
 8005886:	7d23      	ldrb	r3, [r4, #20]
 8005888:	f003 037f 	and.w	r3, r3, #127	; 0x7f
 800588c:	7523      	strb	r3, [r4, #20]
 800588e:	9801      	ldr	r0, [sp, #4]
 8005890:	4631      	mov	r1, r6
 8005892:	2301      	movs	r3, #1
 8005894:	462a      	mov	r2, r5
 8005896:	7840      	ldrb	r0, [r0, #1]
 8005898:	f7fe fbb2 	bl	8004000 <disk_read>
 800589c:	4606      	mov	r6, r0
 800589e:	2800      	cmp	r0, #0
 80058a0:	d1a3      	bne.n	80057ea <f_lseek+0x5e>
 80058a2:	6225      	str	r5, [r4, #32]
 80058a4:	e799      	b.n	80057da <f_lseek+0x4e>
 80058a6:	68e3      	ldr	r3, [r4, #12]
 80058a8:	42ab      	cmp	r3, r5
 80058aa:	d204      	bcs.n	80058b6 <f_lseek+0x12a>
 80058ac:	7d22      	ldrb	r2, [r4, #20]
 80058ae:	f012 0f02 	tst.w	r2, #2
 80058b2:	bf08      	it	eq
 80058b4:	461d      	moveq	r5, r3
 80058b6:	2200      	movs	r2, #0
 80058b8:	69a3      	ldr	r3, [r4, #24]
 80058ba:	61a2      	str	r2, [r4, #24]
 80058bc:	bb05      	cbnz	r5, 8005900 <f_lseek+0x174>
 80058be:	2500      	movs	r5, #0
 80058c0:	68e2      	ldr	r2, [r4, #12]
 80058c2:	69a3      	ldr	r3, [r4, #24]
 80058c4:	9801      	ldr	r0, [sp, #4]
 80058c6:	4293      	cmp	r3, r2
 80058c8:	bf81      	itttt	hi
 80058ca:	7d22      	ldrbhi	r2, [r4, #20]
 80058cc:	60e3      	strhi	r3, [r4, #12]
 80058ce:	f042 0240 	orrhi.w	r2, r2, #64	; 0x40
 80058d2:	7522      	strbhi	r2, [r4, #20]
 80058d4:	8981      	ldrh	r1, [r0, #12]
 80058d6:	fbb3 f2f1 	udiv	r2, r3, r1
 80058da:	fb01 3312 	mls	r3, r1, r2, r3
 80058de:	2b00      	cmp	r3, #0
 80058e0:	f43f af7b 	beq.w	80057da <f_lseek+0x4e>
 80058e4:	6a22      	ldr	r2, [r4, #32]
 80058e6:	42aa      	cmp	r2, r5
 80058e8:	f43f af77 	beq.w	80057da <f_lseek+0x4e>
 80058ec:	f994 3014 	ldrsb.w	r3, [r4, #20]
 80058f0:	f104 0630 	add.w	r6, r4, #48	; 0x30
 80058f4:	2b00      	cmp	r3, #0
 80058f6:	daca      	bge.n	800588e <f_lseek+0x102>
 80058f8:	2301      	movs	r3, #1
 80058fa:	4631      	mov	r1, r6
 80058fc:	7840      	ldrb	r0, [r0, #1]
 80058fe:	e7be      	b.n	800587e <f_lseek+0xf2>
 8005900:	9a01      	ldr	r2, [sp, #4]
 8005902:	8951      	ldrh	r1, [r2, #10]
 8005904:	8997      	ldrh	r7, [r2, #12]
 8005906:	434f      	muls	r7, r1
 8005908:	b31b      	cbz	r3, 8005952 <f_lseek+0x1c6>
 800590a:	3b01      	subs	r3, #1
 800590c:	1e6a      	subs	r2, r5, #1
 800590e:	fbb2 f2f7 	udiv	r2, r2, r7
 8005912:	fbb3 f1f7 	udiv	r1, r3, r7
 8005916:	428a      	cmp	r2, r1
 8005918:	d31b      	bcc.n	8005952 <f_lseek+0x1c6>
 800591a:	427a      	negs	r2, r7
 800591c:	4013      	ands	r3, r2
 800591e:	69e1      	ldr	r1, [r4, #28]
 8005920:	61a3      	str	r3, [r4, #24]
 8005922:	1aed      	subs	r5, r5, r3
 8005924:	2900      	cmp	r1, #0
 8005926:	d0ca      	beq.n	80058be <f_lseek+0x132>
 8005928:	42bd      	cmp	r5, r7
 800592a:	69a3      	ldr	r3, [r4, #24]
 800592c:	d820      	bhi.n	8005970 <f_lseek+0x1e4>
 800592e:	69a3      	ldr	r3, [r4, #24]
 8005930:	9801      	ldr	r0, [sp, #4]
 8005932:	442b      	add	r3, r5
 8005934:	61a3      	str	r3, [r4, #24]
 8005936:	8983      	ldrh	r3, [r0, #12]
 8005938:	fbb5 f2f3 	udiv	r2, r5, r3
 800593c:	fb03 5312 	mls	r3, r3, r2, r5
 8005940:	2b00      	cmp	r3, #0
 8005942:	d0bc      	beq.n	80058be <f_lseek+0x132>
 8005944:	f7fe fc36 	bl	80041b4 <clust2sect>
 8005948:	2800      	cmp	r0, #0
 800594a:	f43f af44 	beq.w	80057d6 <f_lseek+0x4a>
 800594e:	1815      	adds	r5, r2, r0
 8005950:	e7b6      	b.n	80058c0 <f_lseek+0x134>
 8005952:	68a1      	ldr	r1, [r4, #8]
 8005954:	b951      	cbnz	r1, 800596c <f_lseek+0x1e0>
 8005956:	4620      	mov	r0, r4
 8005958:	f7ff f802 	bl	8004960 <create_chain>
 800595c:	2801      	cmp	r0, #1
 800595e:	4601      	mov	r1, r0
 8005960:	f43f af39 	beq.w	80057d6 <f_lseek+0x4a>
 8005964:	1c48      	adds	r0, r1, #1
 8005966:	f43f af40 	beq.w	80057ea <f_lseek+0x5e>
 800596a:	60a1      	str	r1, [r4, #8]
 800596c:	61e1      	str	r1, [r4, #28]
 800596e:	e7d9      	b.n	8005924 <f_lseek+0x198>
 8005970:	443b      	add	r3, r7
 8005972:	61a3      	str	r3, [r4, #24]
 8005974:	7d23      	ldrb	r3, [r4, #20]
 8005976:	eba5 0807 	sub.w	r8, r5, r7
 800597a:	079a      	lsls	r2, r3, #30
 800597c:	d506      	bpl.n	800598c <f_lseek+0x200>
 800597e:	4620      	mov	r0, r4
 8005980:	f7fe ffee 	bl	8004960 <create_chain>
 8005984:	4605      	mov	r5, r0
 8005986:	b928      	cbnz	r0, 8005994 <f_lseek+0x208>
 8005988:	4601      	mov	r1, r0
 800598a:	e7d0      	b.n	800592e <f_lseek+0x1a2>
 800598c:	6820      	ldr	r0, [r4, #0]
 800598e:	f7fe ff33 	bl	80047f8 <get_fat.isra.0>
 8005992:	4605      	mov	r5, r0
 8005994:	1c6b      	adds	r3, r5, #1
 8005996:	f43f af28 	beq.w	80057ea <f_lseek+0x5e>
 800599a:	2d01      	cmp	r5, #1
 800599c:	f67f af1b 	bls.w	80057d6 <f_lseek+0x4a>
 80059a0:	9b01      	ldr	r3, [sp, #4]
 80059a2:	69db      	ldr	r3, [r3, #28]
 80059a4:	42ab      	cmp	r3, r5
 80059a6:	f67f af16 	bls.w	80057d6 <f_lseek+0x4a>
 80059aa:	4629      	mov	r1, r5
 80059ac:	61e5      	str	r5, [r4, #28]
 80059ae:	4645      	mov	r5, r8
 80059b0:	e7ba      	b.n	8005928 <f_lseek+0x19c>
 80059b2:	2611      	movs	r6, #17
 80059b4:	e711      	b.n	80057da <f_lseek+0x4e>
	...

080059b8 <f_printf>:
 80059b8:	b40e      	push	{r1, r2, r3}
 80059ba:	2100      	movs	r1, #0
 80059bc:	e92d 4ff0 	stmdb	sp!, {r4, r5, r6, r7, r8, r9, sl, fp, lr}
 80059c0:	f04f 080a 	mov.w	r8, #10
 80059c4:	b09e      	sub	sp, #120	; 0x78
 80059c6:	aa27      	add	r2, sp, #156	; 0x9c
 80059c8:	f852 3b04 	ldr.w	r3, [r2], #4
 80059cc:	e9cd 110c 	strd	r1, r1, [sp, #48]	; 0x30
 80059d0:	900b      	str	r0, [sp, #44]	; 0x2c
 80059d2:	9202      	str	r2, [sp, #8]
 80059d4:	7819      	ldrb	r1, [r3, #0]
 80059d6:	2900      	cmp	r1, #0
 80059d8:	f000 80f5 	beq.w	8005bc6 <f_printf+0x20e>
 80059dc:	2925      	cmp	r1, #37	; 0x25
 80059de:	d004      	beq.n	80059ea <f_printf+0x32>
 80059e0:	1c5d      	adds	r5, r3, #1
 80059e2:	a80b      	add	r0, sp, #44	; 0x2c
 80059e4:	f7ff fe3f 	bl	8005666 <putc_bfd>
 80059e8:	e0d2      	b.n	8005b90 <f_printf+0x1d8>
 80059ea:	7859      	ldrb	r1, [r3, #1]
 80059ec:	2930      	cmp	r1, #48	; 0x30
 80059ee:	d104      	bne.n	80059fa <f_printf+0x42>
 80059f0:	7899      	ldrb	r1, [r3, #2]
 80059f2:	1cdd      	adds	r5, r3, #3
 80059f4:	2301      	movs	r3, #1
 80059f6:	2700      	movs	r7, #0
 80059f8:	e00a      	b.n	8005a10 <f_printf+0x58>
 80059fa:	292d      	cmp	r1, #45	; 0x2d
 80059fc:	d12d      	bne.n	8005a5a <f_printf+0xa2>
 80059fe:	7899      	ldrb	r1, [r3, #2]
 8005a00:	1cdd      	adds	r5, r3, #3
 8005a02:	2302      	movs	r3, #2
 8005a04:	e7f7      	b.n	80059f6 <f_printf+0x3e>
 8005a06:	fb08 1707 	mla	r7, r8, r7, r1
 8005a0a:	f815 1b01 	ldrb.w	r1, [r5], #1
 8005a0e:	3f30      	subs	r7, #48	; 0x30
 8005a10:	f1a1 0230 	sub.w	r2, r1, #48	; 0x30
 8005a14:	2a09      	cmp	r2, #9
 8005a16:	d9f6      	bls.n	8005a06 <f_printf+0x4e>
 8005a18:	f001 02df 	and.w	r2, r1, #223	; 0xdf
 8005a1c:	2a4c      	cmp	r2, #76	; 0x4c
 8005a1e:	bf04      	itt	eq
 8005a20:	f815 1b01 	ldrbeq.w	r1, [r5], #1
 8005a24:	f043 0304 	orreq.w	r3, r3, #4
 8005a28:	2900      	cmp	r1, #0
 8005a2a:	f000 80cc 	beq.w	8005bc6 <f_printf+0x20e>
 8005a2e:	f1a1 0261 	sub.w	r2, r1, #97	; 0x61
 8005a32:	2a19      	cmp	r2, #25
 8005a34:	bf8e      	itee	hi
 8005a36:	460a      	movhi	r2, r1
 8005a38:	f1a1 0220 	subls.w	r2, r1, #32
 8005a3c:	b2d2      	uxtbls	r2, r2
 8005a3e:	2a58      	cmp	r2, #88	; 0x58
 8005a40:	d8cf      	bhi.n	80059e2 <f_printf+0x2a>
 8005a42:	2a4e      	cmp	r2, #78	; 0x4e
 8005a44:	d80c      	bhi.n	8005a60 <f_printf+0xa8>
 8005a46:	2a43      	cmp	r2, #67	; 0x43
 8005a48:	f000 80aa 	beq.w	8005ba0 <f_printf+0x1e8>
 8005a4c:	2a44      	cmp	r2, #68	; 0x44
 8005a4e:	f000 80ae 	beq.w	8005bae <f_printf+0x1f6>
 8005a52:	2a42      	cmp	r2, #66	; 0x42
 8005a54:	d1c5      	bne.n	80059e2 <f_printf+0x2a>
 8005a56:	2402      	movs	r4, #2
 8005a58:	e01f      	b.n	8005a9a <f_printf+0xe2>
 8005a5a:	1c9d      	adds	r5, r3, #2
 8005a5c:	2300      	movs	r3, #0
 8005a5e:	e7ca      	b.n	80059f6 <f_printf+0x3e>
 8005a60:	f1a2 004f 	sub.w	r0, r2, #79	; 0x4f
 8005a64:	2809      	cmp	r0, #9
 8005a66:	d8bc      	bhi.n	80059e2 <f_printf+0x2a>
 8005a68:	a401      	add	r4, pc, #4	; (adr r4, 8005a70 <f_printf+0xb8>)
 8005a6a:	f854 f020 	ldr.w	pc, [r4, r0, lsl #2]
 8005a6e:	bf00      	nop
 8005a70:	08005a99 	.word	0x08005a99
 8005a74:	080059e3 	.word	0x080059e3
 8005a78:	080059e3 	.word	0x080059e3
 8005a7c:	080059e3 	.word	0x080059e3
 8005a80:	08005b43 	.word	0x08005b43
 8005a84:	080059e3 	.word	0x080059e3
 8005a88:	08005baf 	.word	0x08005baf
 8005a8c:	080059e3 	.word	0x080059e3
 8005a90:	080059e3 	.word	0x080059e3
 8005a94:	08005bab 	.word	0x08005bab
 8005a98:	2408      	movs	r4, #8
 8005a9a:	9802      	ldr	r0, [sp, #8]
 8005a9c:	2a44      	cmp	r2, #68	; 0x44
 8005a9e:	f100 0604 	add.w	r6, r0, #4
 8005aa2:	9602      	str	r6, [sp, #8]
 8005aa4:	6800      	ldr	r0, [r0, #0]
 8005aa6:	d104      	bne.n	8005ab2 <f_printf+0xfa>
 8005aa8:	2800      	cmp	r0, #0
 8005aaa:	bfbc      	itt	lt
 8005aac:	4240      	neglt	r0, r0
 8005aae:	f043 0308 	orrlt.w	r3, r3, #8
 8005ab2:	2978      	cmp	r1, #120	; 0x78
 8005ab4:	f10d 0c0c 	add.w	ip, sp, #12
 8005ab8:	bf0c      	ite	eq
 8005aba:	f04f 0e27 	moveq.w	lr, #39	; 0x27
 8005abe:	f04f 0e07 	movne.w	lr, #7
 8005ac2:	2100      	movs	r1, #0
 8005ac4:	46e1      	mov	r9, ip
 8005ac6:	fbb0 fbf4 	udiv	fp, r0, r4
 8005aca:	4682      	mov	sl, r0
 8005acc:	fb04 061b 	mls	r6, r4, fp, r0
 8005ad0:	b2f2      	uxtb	r2, r6
 8005ad2:	2e09      	cmp	r6, #9
 8005ad4:	bf84      	itt	hi
 8005ad6:	4472      	addhi	r2, lr
 8005ad8:	b2d2      	uxtbhi	r2, r2
 8005ada:	3230      	adds	r2, #48	; 0x30
 8005adc:	4554      	cmp	r4, sl
 8005ade:	4658      	mov	r0, fp
 8005ae0:	f101 0601 	add.w	r6, r1, #1
 8005ae4:	f80c 2b01 	strb.w	r2, [ip], #1
 8005ae8:	d802      	bhi.n	8005af0 <f_printf+0x138>
 8005aea:	2e20      	cmp	r6, #32
 8005aec:	d161      	bne.n	8005bb2 <f_printf+0x1fa>
 8005aee:	211f      	movs	r1, #31
 8005af0:	071a      	lsls	r2, r3, #28
 8005af2:	d505      	bpl.n	8005b00 <f_printf+0x148>
 8005af4:	aa1e      	add	r2, sp, #120	; 0x78
 8005af6:	4416      	add	r6, r2
 8005af8:	222d      	movs	r2, #45	; 0x2d
 8005afa:	f806 2c6c 	strb.w	r2, [r6, #-108]
 8005afe:	1c8e      	adds	r6, r1, #2
 8005b00:	f013 0f01 	tst.w	r3, #1
 8005b04:	bf14      	ite	ne
 8005b06:	f04f 0a30 	movne.w	sl, #48	; 0x30
 8005b0a:	f04f 0a20 	moveq.w	sl, #32
 8005b0e:	46b3      	mov	fp, r6
 8005b10:	f003 0402 	and.w	r4, r3, #2
 8005b14:	f10b 0301 	add.w	r3, fp, #1
 8005b18:	b914      	cbnz	r4, 8005b20 <f_printf+0x168>
 8005b1a:	45bb      	cmp	fp, r7
 8005b1c:	d34b      	bcc.n	8005bb6 <f_printf+0x1fe>
 8005b1e:	469b      	mov	fp, r3
 8005b20:	3e01      	subs	r6, #1
 8005b22:	f819 1006 	ldrb.w	r1, [r9, r6]
 8005b26:	a80b      	add	r0, sp, #44	; 0x2c
 8005b28:	f7ff fd9d 	bl	8005666 <putc_bfd>
 8005b2c:	2e00      	cmp	r6, #0
 8005b2e:	d1f7      	bne.n	8005b20 <f_printf+0x168>
 8005b30:	455f      	cmp	r7, fp
 8005b32:	d92d      	bls.n	8005b90 <f_printf+0x1d8>
 8005b34:	4651      	mov	r1, sl
 8005b36:	a80b      	add	r0, sp, #44	; 0x2c
 8005b38:	f7ff fd95 	bl	8005666 <putc_bfd>
 8005b3c:	f10b 0b01 	add.w	fp, fp, #1
 8005b40:	e7f6      	b.n	8005b30 <f_printf+0x178>
 8005b42:	9a02      	ldr	r2, [sp, #8]
 8005b44:	1d11      	adds	r1, r2, #4
 8005b46:	6816      	ldr	r6, [r2, #0]
 8005b48:	2200      	movs	r2, #0
 8005b4a:	9102      	str	r1, [sp, #8]
 8005b4c:	5cb1      	ldrb	r1, [r6, r2]
 8005b4e:	4614      	mov	r4, r2
 8005b50:	3201      	adds	r2, #1
 8005b52:	2900      	cmp	r1, #0
 8005b54:	d1fa      	bne.n	8005b4c <f_printf+0x194>
 8005b56:	0799      	lsls	r1, r3, #30
 8005b58:	d40f      	bmi.n	8005b7a <f_printf+0x1c2>
 8005b5a:	46a1      	mov	r9, r4
 8005b5c:	e005      	b.n	8005b6a <f_printf+0x1b2>
 8005b5e:	2120      	movs	r1, #32
 8005b60:	a80b      	add	r0, sp, #44	; 0x2c
 8005b62:	f7ff fd80 	bl	8005666 <putc_bfd>
 8005b66:	f109 0901 	add.w	r9, r9, #1
 8005b6a:	454f      	cmp	r7, r9
 8005b6c:	d8f7      	bhi.n	8005b5e <f_printf+0x1a6>
 8005b6e:	1b3b      	subs	r3, r7, r4
 8005b70:	42bc      	cmp	r4, r7
 8005b72:	bf88      	it	hi
 8005b74:	2300      	movhi	r3, #0
 8005b76:	3401      	adds	r4, #1
 8005b78:	441c      	add	r4, r3
 8005b7a:	3e01      	subs	r6, #1
 8005b7c:	e002      	b.n	8005b84 <f_printf+0x1cc>
 8005b7e:	a80b      	add	r0, sp, #44	; 0x2c
 8005b80:	f7ff fd71 	bl	8005666 <putc_bfd>
 8005b84:	f816 1f01 	ldrb.w	r1, [r6, #1]!
 8005b88:	2900      	cmp	r1, #0
 8005b8a:	d1f8      	bne.n	8005b7e <f_printf+0x1c6>
 8005b8c:	42a7      	cmp	r7, r4
 8005b8e:	d801      	bhi.n	8005b94 <f_printf+0x1dc>
 8005b90:	462b      	mov	r3, r5
 8005b92:	e71f      	b.n	80059d4 <f_printf+0x1c>
 8005b94:	2120      	movs	r1, #32
 8005b96:	a80b      	add	r0, sp, #44	; 0x2c
 8005b98:	f7ff fd65 	bl	8005666 <putc_bfd>
 8005b9c:	3401      	adds	r4, #1
 8005b9e:	e7f5      	b.n	8005b8c <f_printf+0x1d4>
 8005ba0:	9b02      	ldr	r3, [sp, #8]
 8005ba2:	1d1a      	adds	r2, r3, #4
 8005ba4:	7819      	ldrb	r1, [r3, #0]
 8005ba6:	9202      	str	r2, [sp, #8]
 8005ba8:	e71b      	b.n	80059e2 <f_printf+0x2a>
 8005baa:	2410      	movs	r4, #16
 8005bac:	e775      	b.n	8005a9a <f_printf+0xe2>
 8005bae:	240a      	movs	r4, #10
 8005bb0:	e773      	b.n	8005a9a <f_printf+0xe2>
 8005bb2:	4631      	mov	r1, r6
 8005bb4:	e787      	b.n	8005ac6 <f_printf+0x10e>
 8005bb6:	4651      	mov	r1, sl
 8005bb8:	a80b      	add	r0, sp, #44	; 0x2c
 8005bba:	9301      	str	r3, [sp, #4]
 8005bbc:	f7ff fd53 	bl	8005666 <putc_bfd>
 8005bc0:	9b01      	ldr	r3, [sp, #4]
 8005bc2:	469b      	mov	fp, r3
 8005bc4:	e7a6      	b.n	8005b14 <f_printf+0x15c>
 8005bc6:	a80b      	add	r0, sp, #44	; 0x2c
 8005bc8:	f7ff fd6f 	bl	80056aa <putc_flush>
 8005bcc:	b01e      	add	sp, #120	; 0x78
 8005bce:	e8bd 4ff0 	ldmia.w	sp!, {r4, r5, r6, r7, r8, r9, sl, fp, lr}
 8005bd2:	b003      	add	sp, #12
 8005bd4:	4770      	bx	lr
 8005bd6:	bf00      	nop

08005bd8 <FATFS_LinkDriverEx>:
 8005bd8:	b530      	push	{r4, r5, lr}
 8005bda:	4b0e      	ldr	r3, [pc, #56]	; (8005c14 <FATFS_LinkDriverEx+0x3c>)
 8005bdc:	4605      	mov	r5, r0
 8005bde:	7a5c      	ldrb	r4, [r3, #9]
 8005be0:	f004 00ff 	and.w	r0, r4, #255	; 0xff
 8005be4:	b9a4      	cbnz	r4, 8005c10 <FATFS_LinkDriverEx+0x38>
 8005be6:	7a5c      	ldrb	r4, [r3, #9]
 8005be8:	5518      	strb	r0, [r3, r4]
 8005bea:	7a5c      	ldrb	r4, [r3, #9]
 8005bec:	eb03 0484 	add.w	r4, r3, r4, lsl #2
 8005bf0:	6065      	str	r5, [r4, #4]
 8005bf2:	7a5c      	ldrb	r4, [r3, #9]
 8005bf4:	441c      	add	r4, r3
 8005bf6:	7222      	strb	r2, [r4, #8]
 8005bf8:	7a5a      	ldrb	r2, [r3, #9]
 8005bfa:	1c54      	adds	r4, r2, #1
 8005bfc:	b2e4      	uxtb	r4, r4
 8005bfe:	725c      	strb	r4, [r3, #9]
 8005c00:	233a      	movs	r3, #58	; 0x3a
 8005c02:	704b      	strb	r3, [r1, #1]
 8005c04:	232f      	movs	r3, #47	; 0x2f
 8005c06:	3230      	adds	r2, #48	; 0x30
 8005c08:	700a      	strb	r2, [r1, #0]
 8005c0a:	708b      	strb	r3, [r1, #2]
 8005c0c:	70c8      	strb	r0, [r1, #3]
 8005c0e:	bd30      	pop	{r4, r5, pc}
 8005c10:	2001      	movs	r0, #1
 8005c12:	e7fc      	b.n	8005c0e <FATFS_LinkDriverEx+0x36>
 8005c14:	20000364 	.word	0x20000364

08005c18 <FATFS_LinkDriver>:
 8005c18:	2200      	movs	r2, #0
 8005c1a:	f7ff bfdd 	b.w	8005bd8 <FATFS_LinkDriverEx>
	...

08005c20 <ff_convert>:
 8005c20:	287f      	cmp	r0, #127	; 0x7f
 8005c22:	b510      	push	{r4, lr}
 8005c24:	d906      	bls.n	8005c34 <ff_convert+0x14>
 8005c26:	b131      	cbz	r1, 8005c36 <ff_convert+0x16>
 8005c28:	28ff      	cmp	r0, #255	; 0xff
 8005c2a:	d812      	bhi.n	8005c52 <ff_convert+0x32>
 8005c2c:	4b0a      	ldr	r3, [pc, #40]	; (8005c58 <ff_convert+0x38>)
 8005c2e:	3880      	subs	r0, #128	; 0x80
 8005c30:	f833 0010 	ldrh.w	r0, [r3, r0, lsl #1]
 8005c34:	bd10      	pop	{r4, pc}
 8005c36:	4a08      	ldr	r2, [pc, #32]	; (8005c58 <ff_convert+0x38>)
 8005c38:	f832 4b02 	ldrh.w	r4, [r2], #2
 8005c3c:	b28b      	uxth	r3, r1
 8005c3e:	4284      	cmp	r4, r0
 8005c40:	d003      	beq.n	8005c4a <ff_convert+0x2a>
 8005c42:	3101      	adds	r1, #1
 8005c44:	2980      	cmp	r1, #128	; 0x80
 8005c46:	d1f7      	bne.n	8005c38 <ff_convert+0x18>
 8005c48:	460b      	mov	r3, r1
 8005c4a:	f103 0080 	add.w	r0, r3, #128	; 0x80
 8005c4e:	b2c0      	uxtb	r0, r0
 8005c50:	e7f0      	b.n	8005c34 <ff_convert+0x14>
 8005c52:	2000      	movs	r0, #0
 8005c54:	e7ee      	b.n	8005c34 <ff_convert+0x14>
 8005c56:	bf00      	nop
 8005c58:	080066ee 	.word	0x080066ee

08005c5c <ff_wtoupper>:
 8005c5c:	4b1e      	ldr	r3, [pc, #120]	; (8005cd8 <ff_wtoupper+0x7c>)
 8005c5e:	4a1f      	ldr	r2, [pc, #124]	; (8005cdc <ff_wtoupper+0x80>)
 8005c60:	b570      	push	{r4, r5, r6, lr}
 8005c62:	f5b0 5f80 	cmp.w	r0, #4096	; 0x1000
 8005c66:	bf28      	it	cs
 8005c68:	4613      	movcs	r3, r2
 8005c6a:	1d19      	adds	r1, r3, #4
 8005c6c:	f831 3c04 	ldrh.w	r3, [r1, #-4]
 8005c70:	460a      	mov	r2, r1
 8005c72:	b1a3      	cbz	r3, 8005c9e <ff_wtoupper+0x42>
 8005c74:	4298      	cmp	r0, r3
 8005c76:	d312      	bcc.n	8005c9e <ff_wtoupper+0x42>
 8005c78:	f831 4c02 	ldrh.w	r4, [r1, #-2]
 8005c7c:	0a25      	lsrs	r5, r4, #8
 8005c7e:	b2e4      	uxtb	r4, r4
 8005c80:	18e6      	adds	r6, r4, r3
 8005c82:	42b0      	cmp	r0, r6
 8005c84:	da21      	bge.n	8005cca <ff_wtoupper+0x6e>
 8005c86:	2d08      	cmp	r5, #8
 8005c88:	d809      	bhi.n	8005c9e <ff_wtoupper+0x42>
 8005c8a:	e8df f005 	tbb	[pc, r5]
 8005c8e:	0905      	.short	0x0905
 8005c90:	1513110f 	.word	0x1513110f
 8005c94:	1917      	.short	0x1917
 8005c96:	1b          	.byte	0x1b
 8005c97:	00          	.byte	0x00
 8005c98:	1ac0      	subs	r0, r0, r3
 8005c9a:	f831 0010 	ldrh.w	r0, [r1, r0, lsl #1]
 8005c9e:	bd70      	pop	{r4, r5, r6, pc}
 8005ca0:	1ac3      	subs	r3, r0, r3
 8005ca2:	f003 0301 	and.w	r3, r3, #1
 8005ca6:	1ac0      	subs	r0, r0, r3
 8005ca8:	b280      	uxth	r0, r0
 8005caa:	e7f8      	b.n	8005c9e <ff_wtoupper+0x42>
 8005cac:	3810      	subs	r0, #16
 8005cae:	e7fb      	b.n	8005ca8 <ff_wtoupper+0x4c>
 8005cb0:	3820      	subs	r0, #32
 8005cb2:	e7f9      	b.n	8005ca8 <ff_wtoupper+0x4c>
 8005cb4:	3830      	subs	r0, #48	; 0x30
 8005cb6:	e7f7      	b.n	8005ca8 <ff_wtoupper+0x4c>
 8005cb8:	381a      	subs	r0, #26
 8005cba:	e7f5      	b.n	8005ca8 <ff_wtoupper+0x4c>
 8005cbc:	3008      	adds	r0, #8
 8005cbe:	e7f3      	b.n	8005ca8 <ff_wtoupper+0x4c>
 8005cc0:	3850      	subs	r0, #80	; 0x50
 8005cc2:	e7f1      	b.n	8005ca8 <ff_wtoupper+0x4c>
 8005cc4:	f5a0 50e3 	sub.w	r0, r0, #7264	; 0x1c60
 8005cc8:	e7ee      	b.n	8005ca8 <ff_wtoupper+0x4c>
 8005cca:	3104      	adds	r1, #4
 8005ccc:	2d00      	cmp	r5, #0
 8005cce:	d1cd      	bne.n	8005c6c <ff_wtoupper+0x10>
 8005cd0:	eb02 0344 	add.w	r3, r2, r4, lsl #1
 8005cd4:	e7c9      	b.n	8005c6a <ff_wtoupper+0xe>
 8005cd6:	bf00      	nop
 8005cd8:	080067ee 	.word	0x080067ee
 8005cdc:	080069e0 	.word	0x080069e0

08005ce0 <__errno>:
 8005ce0:	4b01      	ldr	r3, [pc, #4]	; (8005ce8 <__errno+0x8>)
 8005ce2:	6818      	ldr	r0, [r3, #0]
 8005ce4:	4770      	bx	lr
 8005ce6:	bf00      	nop
 8005ce8:	2000006c 	.word	0x2000006c

08005cec <__libc_init_array>:
 8005cec:	b570      	push	{r4, r5, r6, lr}
 8005cee:	2600      	movs	r6, #0
 8005cf0:	4d0c      	ldr	r5, [pc, #48]	; (8005d24 <__libc_init_array+0x38>)
 8005cf2:	4c0d      	ldr	r4, [pc, #52]	; (8005d28 <__libc_init_array+0x3c>)
 8005cf4:	1b64      	subs	r4, r4, r5
 8005cf6:	10a4      	asrs	r4, r4, #2
 8005cf8:	42a6      	cmp	r6, r4
 8005cfa:	d109      	bne.n	8005d10 <__libc_init_array+0x24>
 8005cfc:	f000 fc5c 	bl	80065b8 <_init>
 8005d00:	2600      	movs	r6, #0
 8005d02:	4d0a      	ldr	r5, [pc, #40]	; (8005d2c <__libc_init_array+0x40>)
 8005d04:	4c0a      	ldr	r4, [pc, #40]	; (8005d30 <__libc_init_array+0x44>)
 8005d06:	1b64      	subs	r4, r4, r5
 8005d08:	10a4      	asrs	r4, r4, #2
 8005d0a:	42a6      	cmp	r6, r4
 8005d0c:	d105      	bne.n	8005d1a <__libc_init_array+0x2e>
 8005d0e:	bd70      	pop	{r4, r5, r6, pc}
 8005d10:	f855 3b04 	ldr.w	r3, [r5], #4
 8005d14:	4798      	blx	r3
 8005d16:	3601      	adds	r6, #1
 8005d18:	e7ee      	b.n	8005cf8 <__libc_init_array+0xc>
 8005d1a:	f855 3b04 	ldr.w	r3, [r5], #4
 8005d1e:	4798      	blx	r3
 8005d20:	3601      	adds	r6, #1
 8005d22:	e7f2      	b.n	8005d0a <__libc_init_array+0x1e>
 8005d24:	08006ad8 	.word	0x08006ad8
 8005d28:	08006ad8 	.word	0x08006ad8
 8005d2c:	08006ad8 	.word	0x08006ad8
 8005d30:	08006adc 	.word	0x08006adc

08005d34 <memcpy>:
 8005d34:	440a      	add	r2, r1
 8005d36:	4291      	cmp	r1, r2
 8005d38:	f100 33ff 	add.w	r3, r0, #4294967295
 8005d3c:	d100      	bne.n	8005d40 <memcpy+0xc>
 8005d3e:	4770      	bx	lr
 8005d40:	b510      	push	{r4, lr}
 8005d42:	f811 4b01 	ldrb.w	r4, [r1], #1
 8005d46:	4291      	cmp	r1, r2
 8005d48:	f803 4f01 	strb.w	r4, [r3, #1]!
 8005d4c:	d1f9      	bne.n	8005d42 <memcpy+0xe>
 8005d4e:	bd10      	pop	{r4, pc}

08005d50 <memset>:
 8005d50:	4603      	mov	r3, r0
 8005d52:	4402      	add	r2, r0
 8005d54:	4293      	cmp	r3, r2
 8005d56:	d100      	bne.n	8005d5a <memset+0xa>
 8005d58:	4770      	bx	lr
 8005d5a:	f803 1b01 	strb.w	r1, [r3], #1
 8005d5e:	e7f9      	b.n	8005d54 <memset+0x4>

08005d60 <siprintf>:
 8005d60:	b40e      	push	{r1, r2, r3}
 8005d62:	f06f 4100 	mvn.w	r1, #2147483648	; 0x80000000
 8005d66:	b500      	push	{lr}
 8005d68:	b09c      	sub	sp, #112	; 0x70
 8005d6a:	ab1d      	add	r3, sp, #116	; 0x74
 8005d6c:	9002      	str	r0, [sp, #8]
 8005d6e:	9006      	str	r0, [sp, #24]
 8005d70:	9107      	str	r1, [sp, #28]
 8005d72:	9104      	str	r1, [sp, #16]
 8005d74:	4808      	ldr	r0, [pc, #32]	; (8005d98 <siprintf+0x38>)
 8005d76:	4909      	ldr	r1, [pc, #36]	; (8005d9c <siprintf+0x3c>)
 8005d78:	f853 2b04 	ldr.w	r2, [r3], #4
 8005d7c:	9105      	str	r1, [sp, #20]
 8005d7e:	6800      	ldr	r0, [r0, #0]
 8005d80:	a902      	add	r1, sp, #8
 8005d82:	9301      	str	r3, [sp, #4]
 8005d84:	f000 f868 	bl	8005e58 <_svfiprintf_r>
 8005d88:	2200      	movs	r2, #0
 8005d8a:	9b02      	ldr	r3, [sp, #8]
 8005d8c:	701a      	strb	r2, [r3, #0]
 8005d8e:	b01c      	add	sp, #112	; 0x70
 8005d90:	f85d eb04 	ldr.w	lr, [sp], #4
 8005d94:	b003      	add	sp, #12
 8005d96:	4770      	bx	lr
 8005d98:	2000006c 	.word	0x2000006c
 8005d9c:	ffff0208 	.word	0xffff0208

08005da0 <__ssputs_r>:
 8005da0:	e92d 47f0 	stmdb	sp!, {r4, r5, r6, r7, r8, r9, sl, lr}
 8005da4:	688e      	ldr	r6, [r1, #8]
 8005da6:	4682      	mov	sl, r0
 8005da8:	429e      	cmp	r6, r3
 8005daa:	460c      	mov	r4, r1
 8005dac:	4690      	mov	r8, r2
 8005dae:	461f      	mov	r7, r3
 8005db0:	d838      	bhi.n	8005e24 <__ssputs_r+0x84>
 8005db2:	898a      	ldrh	r2, [r1, #12]
 8005db4:	f412 6f90 	tst.w	r2, #1152	; 0x480
 8005db8:	d032      	beq.n	8005e20 <__ssputs_r+0x80>
 8005dba:	6825      	ldr	r5, [r4, #0]
 8005dbc:	6909      	ldr	r1, [r1, #16]
 8005dbe:	3301      	adds	r3, #1
 8005dc0:	eba5 0901 	sub.w	r9, r5, r1
 8005dc4:	6965      	ldr	r5, [r4, #20]
 8005dc6:	444b      	add	r3, r9
 8005dc8:	eb05 0545 	add.w	r5, r5, r5, lsl #1
 8005dcc:	eb05 75d5 	add.w	r5, r5, r5, lsr #31
 8005dd0:	106d      	asrs	r5, r5, #1
 8005dd2:	429d      	cmp	r5, r3
 8005dd4:	bf38      	it	cc
 8005dd6:	461d      	movcc	r5, r3
 8005dd8:	0553      	lsls	r3, r2, #21
 8005dda:	d531      	bpl.n	8005e40 <__ssputs_r+0xa0>
 8005ddc:	4629      	mov	r1, r5
 8005dde:	f000 fb45 	bl	800646c <_malloc_r>
 8005de2:	4606      	mov	r6, r0
 8005de4:	b950      	cbnz	r0, 8005dfc <__ssputs_r+0x5c>
 8005de6:	230c      	movs	r3, #12
 8005de8:	f04f 30ff 	mov.w	r0, #4294967295
 8005dec:	f8ca 3000 	str.w	r3, [sl]
 8005df0:	89a3      	ldrh	r3, [r4, #12]
 8005df2:	f043 0340 	orr.w	r3, r3, #64	; 0x40
 8005df6:	81a3      	strh	r3, [r4, #12]
 8005df8:	e8bd 87f0 	ldmia.w	sp!, {r4, r5, r6, r7, r8, r9, sl, pc}
 8005dfc:	464a      	mov	r2, r9
 8005dfe:	6921      	ldr	r1, [r4, #16]
 8005e00:	f7ff ff98 	bl	8005d34 <memcpy>
 8005e04:	89a3      	ldrh	r3, [r4, #12]
 8005e06:	f423 6390 	bic.w	r3, r3, #1152	; 0x480
 8005e0a:	f043 0380 	orr.w	r3, r3, #128	; 0x80
 8005e0e:	81a3      	strh	r3, [r4, #12]
 8005e10:	6126      	str	r6, [r4, #16]
 8005e12:	444e      	add	r6, r9
 8005e14:	6026      	str	r6, [r4, #0]
 8005e16:	463e      	mov	r6, r7
 8005e18:	6165      	str	r5, [r4, #20]
 8005e1a:	eba5 0509 	sub.w	r5, r5, r9
 8005e1e:	60a5      	str	r5, [r4, #8]
 8005e20:	42be      	cmp	r6, r7
 8005e22:	d900      	bls.n	8005e26 <__ssputs_r+0x86>
 8005e24:	463e      	mov	r6, r7
 8005e26:	4632      	mov	r2, r6
 8005e28:	4641      	mov	r1, r8
 8005e2a:	6820      	ldr	r0, [r4, #0]
 8005e2c:	f000 fab8 	bl	80063a0 <memmove>
 8005e30:	68a3      	ldr	r3, [r4, #8]
 8005e32:	6822      	ldr	r2, [r4, #0]
 8005e34:	1b9b      	subs	r3, r3, r6
 8005e36:	4432      	add	r2, r6
 8005e38:	2000      	movs	r0, #0
 8005e3a:	60a3      	str	r3, [r4, #8]
 8005e3c:	6022      	str	r2, [r4, #0]
 8005e3e:	e7db      	b.n	8005df8 <__ssputs_r+0x58>
 8005e40:	462a      	mov	r2, r5
 8005e42:	f000 fb6d 	bl	8006520 <_realloc_r>
 8005e46:	4606      	mov	r6, r0
 8005e48:	2800      	cmp	r0, #0
 8005e4a:	d1e1      	bne.n	8005e10 <__ssputs_r+0x70>
 8005e4c:	4650      	mov	r0, sl
 8005e4e:	6921      	ldr	r1, [r4, #16]
 8005e50:	f000 fac0 	bl	80063d4 <_free_r>
 8005e54:	e7c7      	b.n	8005de6 <__ssputs_r+0x46>
	...

08005e58 <_svfiprintf_r>:
 8005e58:	e92d 4ff0 	stmdb	sp!, {r4, r5, r6, r7, r8, r9, sl, fp, lr}
 8005e5c:	4698      	mov	r8, r3
 8005e5e:	898b      	ldrh	r3, [r1, #12]
 8005e60:	4607      	mov	r7, r0
 8005e62:	061b      	lsls	r3, r3, #24
 8005e64:	460d      	mov	r5, r1
 8005e66:	4614      	mov	r4, r2
 8005e68:	b09d      	sub	sp, #116	; 0x74
 8005e6a:	d50e      	bpl.n	8005e8a <_svfiprintf_r+0x32>
 8005e6c:	690b      	ldr	r3, [r1, #16]
 8005e6e:	b963      	cbnz	r3, 8005e8a <_svfiprintf_r+0x32>
 8005e70:	2140      	movs	r1, #64	; 0x40
 8005e72:	f000 fafb 	bl	800646c <_malloc_r>
 8005e76:	6028      	str	r0, [r5, #0]
 8005e78:	6128      	str	r0, [r5, #16]
 8005e7a:	b920      	cbnz	r0, 8005e86 <_svfiprintf_r+0x2e>
 8005e7c:	230c      	movs	r3, #12
 8005e7e:	603b      	str	r3, [r7, #0]
 8005e80:	f04f 30ff 	mov.w	r0, #4294967295
 8005e84:	e0d1      	b.n	800602a <_svfiprintf_r+0x1d2>
 8005e86:	2340      	movs	r3, #64	; 0x40
 8005e88:	616b      	str	r3, [r5, #20]
 8005e8a:	2300      	movs	r3, #0
 8005e8c:	9309      	str	r3, [sp, #36]	; 0x24
 8005e8e:	2320      	movs	r3, #32
 8005e90:	f88d 3029 	strb.w	r3, [sp, #41]	; 0x29
 8005e94:	2330      	movs	r3, #48	; 0x30
 8005e96:	f04f 0901 	mov.w	r9, #1
 8005e9a:	f8cd 800c 	str.w	r8, [sp, #12]
 8005e9e:	f8df 81a4 	ldr.w	r8, [pc, #420]	; 8006044 <_svfiprintf_r+0x1ec>
 8005ea2:	f88d 302a 	strb.w	r3, [sp, #42]	; 0x2a
 8005ea6:	4623      	mov	r3, r4
 8005ea8:	469a      	mov	sl, r3
 8005eaa:	f813 2b01 	ldrb.w	r2, [r3], #1
 8005eae:	b10a      	cbz	r2, 8005eb4 <_svfiprintf_r+0x5c>
 8005eb0:	2a25      	cmp	r2, #37	; 0x25
 8005eb2:	d1f9      	bne.n	8005ea8 <_svfiprintf_r+0x50>
 8005eb4:	ebba 0b04 	subs.w	fp, sl, r4
 8005eb8:	d00b      	beq.n	8005ed2 <_svfiprintf_r+0x7a>
 8005eba:	465b      	mov	r3, fp
 8005ebc:	4622      	mov	r2, r4
 8005ebe:	4629      	mov	r1, r5
 8005ec0:	4638      	mov	r0, r7
 8005ec2:	f7ff ff6d 	bl	8005da0 <__ssputs_r>
 8005ec6:	3001      	adds	r0, #1
 8005ec8:	f000 80aa 	beq.w	8006020 <_svfiprintf_r+0x1c8>
 8005ecc:	9a09      	ldr	r2, [sp, #36]	; 0x24
 8005ece:	445a      	add	r2, fp
 8005ed0:	9209      	str	r2, [sp, #36]	; 0x24
 8005ed2:	f89a 3000 	ldrb.w	r3, [sl]
 8005ed6:	2b00      	cmp	r3, #0
 8005ed8:	f000 80a2 	beq.w	8006020 <_svfiprintf_r+0x1c8>
 8005edc:	2300      	movs	r3, #0
 8005ede:	f04f 32ff 	mov.w	r2, #4294967295
 8005ee2:	e9cd 2305 	strd	r2, r3, [sp, #20]
 8005ee6:	f10a 0a01 	add.w	sl, sl, #1
 8005eea:	9304      	str	r3, [sp, #16]
 8005eec:	9307      	str	r3, [sp, #28]
 8005eee:	f88d 3053 	strb.w	r3, [sp, #83]	; 0x53
 8005ef2:	931a      	str	r3, [sp, #104]	; 0x68
 8005ef4:	4654      	mov	r4, sl
 8005ef6:	2205      	movs	r2, #5
 8005ef8:	f814 1b01 	ldrb.w	r1, [r4], #1
 8005efc:	4851      	ldr	r0, [pc, #324]	; (8006044 <_svfiprintf_r+0x1ec>)
 8005efe:	f000 fa41 	bl	8006384 <memchr>
 8005f02:	9a04      	ldr	r2, [sp, #16]
 8005f04:	b9d8      	cbnz	r0, 8005f3e <_svfiprintf_r+0xe6>
 8005f06:	06d0      	lsls	r0, r2, #27
 8005f08:	bf44      	itt	mi
 8005f0a:	2320      	movmi	r3, #32
 8005f0c:	f88d 3053 	strbmi.w	r3, [sp, #83]	; 0x53
 8005f10:	0711      	lsls	r1, r2, #28
 8005f12:	bf44      	itt	mi
 8005f14:	232b      	movmi	r3, #43	; 0x2b
 8005f16:	f88d 3053 	strbmi.w	r3, [sp, #83]	; 0x53
 8005f1a:	f89a 3000 	ldrb.w	r3, [sl]
 8005f1e:	2b2a      	cmp	r3, #42	; 0x2a
 8005f20:	d015      	beq.n	8005f4e <_svfiprintf_r+0xf6>
 8005f22:	4654      	mov	r4, sl
 8005f24:	2000      	movs	r0, #0
 8005f26:	f04f 0c0a 	mov.w	ip, #10
 8005f2a:	9a07      	ldr	r2, [sp, #28]
 8005f2c:	4621      	mov	r1, r4
 8005f2e:	f811 3b01 	ldrb.w	r3, [r1], #1
 8005f32:	3b30      	subs	r3, #48	; 0x30
 8005f34:	2b09      	cmp	r3, #9
 8005f36:	d94e      	bls.n	8005fd6 <_svfiprintf_r+0x17e>
 8005f38:	b1b0      	cbz	r0, 8005f68 <_svfiprintf_r+0x110>
 8005f3a:	9207      	str	r2, [sp, #28]
 8005f3c:	e014      	b.n	8005f68 <_svfiprintf_r+0x110>
 8005f3e:	eba0 0308 	sub.w	r3, r0, r8
 8005f42:	fa09 f303 	lsl.w	r3, r9, r3
 8005f46:	4313      	orrs	r3, r2
 8005f48:	46a2      	mov	sl, r4
 8005f4a:	9304      	str	r3, [sp, #16]
 8005f4c:	e7d2      	b.n	8005ef4 <_svfiprintf_r+0x9c>
 8005f4e:	9b03      	ldr	r3, [sp, #12]
 8005f50:	1d19      	adds	r1, r3, #4
 8005f52:	681b      	ldr	r3, [r3, #0]
 8005f54:	9103      	str	r1, [sp, #12]
 8005f56:	2b00      	cmp	r3, #0
 8005f58:	bfbb      	ittet	lt
 8005f5a:	425b      	neglt	r3, r3
 8005f5c:	f042 0202 	orrlt.w	r2, r2, #2
 8005f60:	9307      	strge	r3, [sp, #28]
 8005f62:	9307      	strlt	r3, [sp, #28]
 8005f64:	bfb8      	it	lt
 8005f66:	9204      	strlt	r2, [sp, #16]
 8005f68:	7823      	ldrb	r3, [r4, #0]
 8005f6a:	2b2e      	cmp	r3, #46	; 0x2e
 8005f6c:	d10c      	bne.n	8005f88 <_svfiprintf_r+0x130>
 8005f6e:	7863      	ldrb	r3, [r4, #1]
 8005f70:	2b2a      	cmp	r3, #42	; 0x2a
 8005f72:	d135      	bne.n	8005fe0 <_svfiprintf_r+0x188>
 8005f74:	9b03      	ldr	r3, [sp, #12]
 8005f76:	3402      	adds	r4, #2
 8005f78:	1d1a      	adds	r2, r3, #4
 8005f7a:	681b      	ldr	r3, [r3, #0]
 8005f7c:	9203      	str	r2, [sp, #12]
 8005f7e:	2b00      	cmp	r3, #0
 8005f80:	bfb8      	it	lt
 8005f82:	f04f 33ff 	movlt.w	r3, #4294967295
 8005f86:	9305      	str	r3, [sp, #20]
 8005f88:	f8df a0c8 	ldr.w	sl, [pc, #200]	; 8006054 <_svfiprintf_r+0x1fc>
 8005f8c:	2203      	movs	r2, #3
 8005f8e:	4650      	mov	r0, sl
 8005f90:	7821      	ldrb	r1, [r4, #0]
 8005f92:	f000 f9f7 	bl	8006384 <memchr>
 8005f96:	b140      	cbz	r0, 8005faa <_svfiprintf_r+0x152>
 8005f98:	2340      	movs	r3, #64	; 0x40
 8005f9a:	eba0 000a 	sub.w	r0, r0, sl
 8005f9e:	fa03 f000 	lsl.w	r0, r3, r0
 8005fa2:	9b04      	ldr	r3, [sp, #16]
 8005fa4:	3401      	adds	r4, #1
 8005fa6:	4303      	orrs	r3, r0
 8005fa8:	9304      	str	r3, [sp, #16]
 8005faa:	f814 1b01 	ldrb.w	r1, [r4], #1
 8005fae:	2206      	movs	r2, #6
 8005fb0:	4825      	ldr	r0, [pc, #148]	; (8006048 <_svfiprintf_r+0x1f0>)
 8005fb2:	f88d 1028 	strb.w	r1, [sp, #40]	; 0x28
 8005fb6:	f000 f9e5 	bl	8006384 <memchr>
 8005fba:	2800      	cmp	r0, #0
 8005fbc:	d038      	beq.n	8006030 <_svfiprintf_r+0x1d8>
 8005fbe:	4b23      	ldr	r3, [pc, #140]	; (800604c <_svfiprintf_r+0x1f4>)
 8005fc0:	bb1b      	cbnz	r3, 800600a <_svfiprintf_r+0x1b2>
 8005fc2:	9b03      	ldr	r3, [sp, #12]
 8005fc4:	3307      	adds	r3, #7
 8005fc6:	f023 0307 	bic.w	r3, r3, #7
 8005fca:	3308      	adds	r3, #8
 8005fcc:	9303      	str	r3, [sp, #12]
 8005fce:	9b09      	ldr	r3, [sp, #36]	; 0x24
 8005fd0:	4433      	add	r3, r6
 8005fd2:	9309      	str	r3, [sp, #36]	; 0x24
 8005fd4:	e767      	b.n	8005ea6 <_svfiprintf_r+0x4e>
 8005fd6:	460c      	mov	r4, r1
 8005fd8:	2001      	movs	r0, #1
 8005fda:	fb0c 3202 	mla	r2, ip, r2, r3
 8005fde:	e7a5      	b.n	8005f2c <_svfiprintf_r+0xd4>
 8005fe0:	2300      	movs	r3, #0
 8005fe2:	f04f 0c0a 	mov.w	ip, #10
 8005fe6:	4619      	mov	r1, r3
 8005fe8:	3401      	adds	r4, #1
 8005fea:	9305      	str	r3, [sp, #20]
 8005fec:	4620      	mov	r0, r4
 8005fee:	f810 2b01 	ldrb.w	r2, [r0], #1
 8005ff2:	3a30      	subs	r2, #48	; 0x30
 8005ff4:	2a09      	cmp	r2, #9
 8005ff6:	d903      	bls.n	8006000 <_svfiprintf_r+0x1a8>
 8005ff8:	2b00      	cmp	r3, #0
 8005ffa:	d0c5      	beq.n	8005f88 <_svfiprintf_r+0x130>
 8005ffc:	9105      	str	r1, [sp, #20]
 8005ffe:	e7c3      	b.n	8005f88 <_svfiprintf_r+0x130>
 8006000:	4604      	mov	r4, r0
 8006002:	2301      	movs	r3, #1
 8006004:	fb0c 2101 	mla	r1, ip, r1, r2
 8006008:	e7f0      	b.n	8005fec <_svfiprintf_r+0x194>
 800600a:	ab03      	add	r3, sp, #12
 800600c:	9300      	str	r3, [sp, #0]
 800600e:	462a      	mov	r2, r5
 8006010:	4638      	mov	r0, r7
 8006012:	4b0f      	ldr	r3, [pc, #60]	; (8006050 <_svfiprintf_r+0x1f8>)
 8006014:	a904      	add	r1, sp, #16
 8006016:	f3af 8000 	nop.w
 800601a:	1c42      	adds	r2, r0, #1
 800601c:	4606      	mov	r6, r0
 800601e:	d1d6      	bne.n	8005fce <_svfiprintf_r+0x176>
 8006020:	89ab      	ldrh	r3, [r5, #12]
 8006022:	065b      	lsls	r3, r3, #25
 8006024:	f53f af2c 	bmi.w	8005e80 <_svfiprintf_r+0x28>
 8006028:	9809      	ldr	r0, [sp, #36]	; 0x24
 800602a:	b01d      	add	sp, #116	; 0x74
 800602c:	e8bd 8ff0 	ldmia.w	sp!, {r4, r5, r6, r7, r8, r9, sl, fp, pc}
 8006030:	ab03      	add	r3, sp, #12
 8006032:	9300      	str	r3, [sp, #0]
 8006034:	462a      	mov	r2, r5
 8006036:	4638      	mov	r0, r7
 8006038:	4b05      	ldr	r3, [pc, #20]	; (8006050 <_svfiprintf_r+0x1f8>)
 800603a:	a904      	add	r1, sp, #16
 800603c:	f000 f87c 	bl	8006138 <_printf_i>
 8006040:	e7eb      	b.n	800601a <_svfiprintf_r+0x1c2>
 8006042:	bf00      	nop
 8006044:	08006a9c 	.word	0x08006a9c
 8006048:	08006aa6 	.word	0x08006aa6
 800604c:	00000000 	.word	0x00000000
 8006050:	08005da1 	.word	0x08005da1
 8006054:	08006aa2 	.word	0x08006aa2

08006058 <_printf_common>:
 8006058:	e92d 47f0 	stmdb	sp!, {r4, r5, r6, r7, r8, r9, sl, lr}
 800605c:	4616      	mov	r6, r2
 800605e:	4699      	mov	r9, r3
 8006060:	688a      	ldr	r2, [r1, #8]
 8006062:	690b      	ldr	r3, [r1, #16]
 8006064:	4607      	mov	r7, r0
 8006066:	4293      	cmp	r3, r2
 8006068:	bfb8      	it	lt
 800606a:	4613      	movlt	r3, r2
 800606c:	6033      	str	r3, [r6, #0]
 800606e:	f891 2043 	ldrb.w	r2, [r1, #67]	; 0x43
 8006072:	460c      	mov	r4, r1
 8006074:	f8dd 8020 	ldr.w	r8, [sp, #32]
 8006078:	b10a      	cbz	r2, 800607e <_printf_common+0x26>
 800607a:	3301      	adds	r3, #1
 800607c:	6033      	str	r3, [r6, #0]
 800607e:	6823      	ldr	r3, [r4, #0]
 8006080:	0699      	lsls	r1, r3, #26
 8006082:	bf42      	ittt	mi
 8006084:	6833      	ldrmi	r3, [r6, #0]
 8006086:	3302      	addmi	r3, #2
 8006088:	6033      	strmi	r3, [r6, #0]
 800608a:	6825      	ldr	r5, [r4, #0]
 800608c:	f015 0506 	ands.w	r5, r5, #6
 8006090:	d106      	bne.n	80060a0 <_printf_common+0x48>
 8006092:	f104 0a19 	add.w	sl, r4, #25
 8006096:	68e3      	ldr	r3, [r4, #12]
 8006098:	6832      	ldr	r2, [r6, #0]
 800609a:	1a9b      	subs	r3, r3, r2
 800609c:	42ab      	cmp	r3, r5
 800609e:	dc28      	bgt.n	80060f2 <_printf_common+0x9a>
 80060a0:	f894 2043 	ldrb.w	r2, [r4, #67]	; 0x43
 80060a4:	1e13      	subs	r3, r2, #0
 80060a6:	6822      	ldr	r2, [r4, #0]
 80060a8:	bf18      	it	ne
 80060aa:	2301      	movne	r3, #1
 80060ac:	0692      	lsls	r2, r2, #26
 80060ae:	d42d      	bmi.n	800610c <_printf_common+0xb4>
 80060b0:	4649      	mov	r1, r9
 80060b2:	4638      	mov	r0, r7
 80060b4:	f104 0243 	add.w	r2, r4, #67	; 0x43
 80060b8:	47c0      	blx	r8
 80060ba:	3001      	adds	r0, #1
 80060bc:	d020      	beq.n	8006100 <_printf_common+0xa8>
 80060be:	6823      	ldr	r3, [r4, #0]
 80060c0:	68e5      	ldr	r5, [r4, #12]
 80060c2:	f003 0306 	and.w	r3, r3, #6
 80060c6:	2b04      	cmp	r3, #4
 80060c8:	bf18      	it	ne
 80060ca:	2500      	movne	r5, #0
 80060cc:	6832      	ldr	r2, [r6, #0]
 80060ce:	f04f 0600 	mov.w	r6, #0
 80060d2:	68a3      	ldr	r3, [r4, #8]
 80060d4:	bf08      	it	eq
 80060d6:	1aad      	subeq	r5, r5, r2
 80060d8:	6922      	ldr	r2, [r4, #16]
 80060da:	bf08      	it	eq
 80060dc:	ea25 75e5 	biceq.w	r5, r5, r5, asr #31
 80060e0:	4293      	cmp	r3, r2
 80060e2:	bfc4      	itt	gt
 80060e4:	1a9b      	subgt	r3, r3, r2
 80060e6:	18ed      	addgt	r5, r5, r3
 80060e8:	341a      	adds	r4, #26
 80060ea:	42b5      	cmp	r5, r6
 80060ec:	d11a      	bne.n	8006124 <_printf_common+0xcc>
 80060ee:	2000      	movs	r0, #0
 80060f0:	e008      	b.n	8006104 <_printf_common+0xac>
 80060f2:	2301      	movs	r3, #1
 80060f4:	4652      	mov	r2, sl
 80060f6:	4649      	mov	r1, r9
 80060f8:	4638      	mov	r0, r7
 80060fa:	47c0      	blx	r8
 80060fc:	3001      	adds	r0, #1
 80060fe:	d103      	bne.n	8006108 <_printf_common+0xb0>
 8006100:	f04f 30ff 	mov.w	r0, #4294967295
 8006104:	e8bd 87f0 	ldmia.w	sp!, {r4, r5, r6, r7, r8, r9, sl, pc}
 8006108:	3501      	adds	r5, #1
 800610a:	e7c4      	b.n	8006096 <_printf_common+0x3e>
 800610c:	2030      	movs	r0, #48	; 0x30
 800610e:	18e1      	adds	r1, r4, r3
 8006110:	f881 0043 	strb.w	r0, [r1, #67]	; 0x43
 8006114:	1c5a      	adds	r2, r3, #1
 8006116:	f894 1045 	ldrb.w	r1, [r4, #69]	; 0x45
 800611a:	4422      	add	r2, r4
 800611c:	3302      	adds	r3, #2
 800611e:	f882 1043 	strb.w	r1, [r2, #67]	; 0x43
 8006122:	e7c5      	b.n	80060b0 <_printf_common+0x58>
 8006124:	2301      	movs	r3, #1
 8006126:	4622      	mov	r2, r4
 8006128:	4649      	mov	r1, r9
 800612a:	4638      	mov	r0, r7
 800612c:	47c0      	blx	r8
 800612e:	3001      	adds	r0, #1
 8006130:	d0e6      	beq.n	8006100 <_printf_common+0xa8>
 8006132:	3601      	adds	r6, #1
 8006134:	e7d9      	b.n	80060ea <_printf_common+0x92>
	...

08006138 <_printf_i>:
 8006138:	e92d 47ff 	stmdb	sp!, {r0, r1, r2, r3, r4, r5, r6, r7, r8, r9, sl, lr}
 800613c:	460c      	mov	r4, r1
 800613e:	7e27      	ldrb	r7, [r4, #24]
 8006140:	4691      	mov	r9, r2
 8006142:	2f78      	cmp	r7, #120	; 0x78
 8006144:	4680      	mov	r8, r0
 8006146:	469a      	mov	sl, r3
 8006148:	990c      	ldr	r1, [sp, #48]	; 0x30
 800614a:	f104 0243 	add.w	r2, r4, #67	; 0x43
 800614e:	d807      	bhi.n	8006160 <_printf_i+0x28>
 8006150:	2f62      	cmp	r7, #98	; 0x62
 8006152:	d80a      	bhi.n	800616a <_printf_i+0x32>
 8006154:	2f00      	cmp	r7, #0
 8006156:	f000 80d9 	beq.w	800630c <_printf_i+0x1d4>
 800615a:	2f58      	cmp	r7, #88	; 0x58
 800615c:	f000 80a4 	beq.w	80062a8 <_printf_i+0x170>
 8006160:	f104 0642 	add.w	r6, r4, #66	; 0x42
 8006164:	f884 7042 	strb.w	r7, [r4, #66]	; 0x42
 8006168:	e03a      	b.n	80061e0 <_printf_i+0xa8>
 800616a:	f1a7 0363 	sub.w	r3, r7, #99	; 0x63
 800616e:	2b15      	cmp	r3, #21
 8006170:	d8f6      	bhi.n	8006160 <_printf_i+0x28>
 8006172:	a001      	add	r0, pc, #4	; (adr r0, 8006178 <_printf_i+0x40>)
 8006174:	f850 f023 	ldr.w	pc, [r0, r3, lsl #2]
 8006178:	080061d1 	.word	0x080061d1
 800617c:	080061e5 	.word	0x080061e5
 8006180:	08006161 	.word	0x08006161
 8006184:	08006161 	.word	0x08006161
 8006188:	08006161 	.word	0x08006161
 800618c:	08006161 	.word	0x08006161
 8006190:	080061e5 	.word	0x080061e5
 8006194:	08006161 	.word	0x08006161
 8006198:	08006161 	.word	0x08006161
 800619c:	08006161 	.word	0x08006161
 80061a0:	08006161 	.word	0x08006161
 80061a4:	080062f3 	.word	0x080062f3
 80061a8:	08006215 	.word	0x08006215
 80061ac:	080062d5 	.word	0x080062d5
 80061b0:	08006161 	.word	0x08006161
 80061b4:	08006161 	.word	0x08006161
 80061b8:	08006315 	.word	0x08006315
 80061bc:	08006161 	.word	0x08006161
 80061c0:	08006215 	.word	0x08006215
 80061c4:	08006161 	.word	0x08006161
 80061c8:	08006161 	.word	0x08006161
 80061cc:	080062dd 	.word	0x080062dd
 80061d0:	680b      	ldr	r3, [r1, #0]
 80061d2:	f104 0642 	add.w	r6, r4, #66	; 0x42
 80061d6:	1d1a      	adds	r2, r3, #4
 80061d8:	681b      	ldr	r3, [r3, #0]
 80061da:	600a      	str	r2, [r1, #0]
 80061dc:	f884 3042 	strb.w	r3, [r4, #66]	; 0x42
 80061e0:	2301      	movs	r3, #1
 80061e2:	e0a4      	b.n	800632e <_printf_i+0x1f6>
 80061e4:	6825      	ldr	r5, [r4, #0]
 80061e6:	6808      	ldr	r0, [r1, #0]
 80061e8:	062e      	lsls	r6, r5, #24
 80061ea:	f100 0304 	add.w	r3, r0, #4
 80061ee:	d50a      	bpl.n	8006206 <_printf_i+0xce>
 80061f0:	6805      	ldr	r5, [r0, #0]
 80061f2:	600b      	str	r3, [r1, #0]
 80061f4:	2d00      	cmp	r5, #0
 80061f6:	da03      	bge.n	8006200 <_printf_i+0xc8>
 80061f8:	232d      	movs	r3, #45	; 0x2d
 80061fa:	426d      	negs	r5, r5
 80061fc:	f884 3043 	strb.w	r3, [r4, #67]	; 0x43
 8006200:	230a      	movs	r3, #10
 8006202:	485e      	ldr	r0, [pc, #376]	; (800637c <_printf_i+0x244>)
 8006204:	e019      	b.n	800623a <_printf_i+0x102>
 8006206:	f015 0f40 	tst.w	r5, #64	; 0x40
 800620a:	6805      	ldr	r5, [r0, #0]
 800620c:	600b      	str	r3, [r1, #0]
 800620e:	bf18      	it	ne
 8006210:	b22d      	sxthne	r5, r5
 8006212:	e7ef      	b.n	80061f4 <_printf_i+0xbc>
 8006214:	680b      	ldr	r3, [r1, #0]
 8006216:	6825      	ldr	r5, [r4, #0]
 8006218:	1d18      	adds	r0, r3, #4
 800621a:	6008      	str	r0, [r1, #0]
 800621c:	0628      	lsls	r0, r5, #24
 800621e:	d501      	bpl.n	8006224 <_printf_i+0xec>
 8006220:	681d      	ldr	r5, [r3, #0]
 8006222:	e002      	b.n	800622a <_printf_i+0xf2>
 8006224:	0669      	lsls	r1, r5, #25
 8006226:	d5fb      	bpl.n	8006220 <_printf_i+0xe8>
 8006228:	881d      	ldrh	r5, [r3, #0]
 800622a:	2f6f      	cmp	r7, #111	; 0x6f
 800622c:	bf0c      	ite	eq
 800622e:	2308      	moveq	r3, #8
 8006230:	230a      	movne	r3, #10
 8006232:	4852      	ldr	r0, [pc, #328]	; (800637c <_printf_i+0x244>)
 8006234:	2100      	movs	r1, #0
 8006236:	f884 1043 	strb.w	r1, [r4, #67]	; 0x43
 800623a:	6866      	ldr	r6, [r4, #4]
 800623c:	2e00      	cmp	r6, #0
 800623e:	bfa8      	it	ge
 8006240:	6821      	ldrge	r1, [r4, #0]
 8006242:	60a6      	str	r6, [r4, #8]
 8006244:	bfa4      	itt	ge
 8006246:	f021 0104 	bicge.w	r1, r1, #4
 800624a:	6021      	strge	r1, [r4, #0]
 800624c:	b90d      	cbnz	r5, 8006252 <_printf_i+0x11a>
 800624e:	2e00      	cmp	r6, #0
 8006250:	d04d      	beq.n	80062ee <_printf_i+0x1b6>
 8006252:	4616      	mov	r6, r2
 8006254:	fbb5 f1f3 	udiv	r1, r5, r3
 8006258:	fb03 5711 	mls	r7, r3, r1, r5
 800625c:	5dc7      	ldrb	r7, [r0, r7]
 800625e:	f806 7d01 	strb.w	r7, [r6, #-1]!
 8006262:	462f      	mov	r7, r5
 8006264:	42bb      	cmp	r3, r7
 8006266:	460d      	mov	r5, r1
 8006268:	d9f4      	bls.n	8006254 <_printf_i+0x11c>
 800626a:	2b08      	cmp	r3, #8
 800626c:	d10b      	bne.n	8006286 <_printf_i+0x14e>
 800626e:	6823      	ldr	r3, [r4, #0]
 8006270:	07df      	lsls	r7, r3, #31
 8006272:	d508      	bpl.n	8006286 <_printf_i+0x14e>
 8006274:	6923      	ldr	r3, [r4, #16]
 8006276:	6861      	ldr	r1, [r4, #4]
 8006278:	4299      	cmp	r1, r3
 800627a:	bfde      	ittt	le
 800627c:	2330      	movle	r3, #48	; 0x30
 800627e:	f806 3c01 	strble.w	r3, [r6, #-1]
 8006282:	f106 36ff 	addle.w	r6, r6, #4294967295
 8006286:	1b92      	subs	r2, r2, r6
 8006288:	6122      	str	r2, [r4, #16]
 800628a:	464b      	mov	r3, r9
 800628c:	4621      	mov	r1, r4
 800628e:	4640      	mov	r0, r8
 8006290:	f8cd a000 	str.w	sl, [sp]
 8006294:	aa03      	add	r2, sp, #12
 8006296:	f7ff fedf 	bl	8006058 <_printf_common>
 800629a:	3001      	adds	r0, #1
 800629c:	d14c      	bne.n	8006338 <_printf_i+0x200>
 800629e:	f04f 30ff 	mov.w	r0, #4294967295
 80062a2:	b004      	add	sp, #16
 80062a4:	e8bd 87f0 	ldmia.w	sp!, {r4, r5, r6, r7, r8, r9, sl, pc}
 80062a8:	4834      	ldr	r0, [pc, #208]	; (800637c <_printf_i+0x244>)
 80062aa:	f884 7045 	strb.w	r7, [r4, #69]	; 0x45
 80062ae:	680e      	ldr	r6, [r1, #0]
 80062b0:	6823      	ldr	r3, [r4, #0]
 80062b2:	f856 5b04 	ldr.w	r5, [r6], #4
 80062b6:	061f      	lsls	r7, r3, #24
 80062b8:	600e      	str	r6, [r1, #0]
 80062ba:	d514      	bpl.n	80062e6 <_printf_i+0x1ae>
 80062bc:	07d9      	lsls	r1, r3, #31
 80062be:	bf44      	itt	mi
 80062c0:	f043 0320 	orrmi.w	r3, r3, #32
 80062c4:	6023      	strmi	r3, [r4, #0]
 80062c6:	b91d      	cbnz	r5, 80062d0 <_printf_i+0x198>
 80062c8:	6823      	ldr	r3, [r4, #0]
 80062ca:	f023 0320 	bic.w	r3, r3, #32
 80062ce:	6023      	str	r3, [r4, #0]
 80062d0:	2310      	movs	r3, #16
 80062d2:	e7af      	b.n	8006234 <_printf_i+0xfc>
 80062d4:	6823      	ldr	r3, [r4, #0]
 80062d6:	f043 0320 	orr.w	r3, r3, #32
 80062da:	6023      	str	r3, [r4, #0]
 80062dc:	2378      	movs	r3, #120	; 0x78
 80062de:	4828      	ldr	r0, [pc, #160]	; (8006380 <_printf_i+0x248>)
 80062e0:	f884 3045 	strb.w	r3, [r4, #69]	; 0x45
 80062e4:	e7e3      	b.n	80062ae <_printf_i+0x176>
 80062e6:	065e      	lsls	r6, r3, #25
 80062e8:	bf48      	it	mi
 80062ea:	b2ad      	uxthmi	r5, r5
 80062ec:	e7e6      	b.n	80062bc <_printf_i+0x184>
 80062ee:	4616      	mov	r6, r2
 80062f0:	e7bb      	b.n	800626a <_printf_i+0x132>
 80062f2:	680b      	ldr	r3, [r1, #0]
 80062f4:	6826      	ldr	r6, [r4, #0]
 80062f6:	1d1d      	adds	r5, r3, #4
 80062f8:	6960      	ldr	r0, [r4, #20]
 80062fa:	600d      	str	r5, [r1, #0]
 80062fc:	0635      	lsls	r5, r6, #24
 80062fe:	681b      	ldr	r3, [r3, #0]
 8006300:	d501      	bpl.n	8006306 <_printf_i+0x1ce>
 8006302:	6018      	str	r0, [r3, #0]
 8006304:	e002      	b.n	800630c <_printf_i+0x1d4>
 8006306:	0671      	lsls	r1, r6, #25
 8006308:	d5fb      	bpl.n	8006302 <_printf_i+0x1ca>
 800630a:	8018      	strh	r0, [r3, #0]
 800630c:	2300      	movs	r3, #0
 800630e:	4616      	mov	r6, r2
 8006310:	6123      	str	r3, [r4, #16]
 8006312:	e7ba      	b.n	800628a <_printf_i+0x152>
 8006314:	680b      	ldr	r3, [r1, #0]
 8006316:	1d1a      	adds	r2, r3, #4
 8006318:	600a      	str	r2, [r1, #0]
 800631a:	681e      	ldr	r6, [r3, #0]
 800631c:	2100      	movs	r1, #0
 800631e:	4630      	mov	r0, r6
 8006320:	6862      	ldr	r2, [r4, #4]
 8006322:	f000 f82f 	bl	8006384 <memchr>
 8006326:	b108      	cbz	r0, 800632c <_printf_i+0x1f4>
 8006328:	1b80      	subs	r0, r0, r6
 800632a:	6060      	str	r0, [r4, #4]
 800632c:	6863      	ldr	r3, [r4, #4]
 800632e:	6123      	str	r3, [r4, #16]
 8006330:	2300      	movs	r3, #0
 8006332:	f884 3043 	strb.w	r3, [r4, #67]	; 0x43
 8006336:	e7a8      	b.n	800628a <_printf_i+0x152>
 8006338:	4632      	mov	r2, r6
 800633a:	4649      	mov	r1, r9
 800633c:	4640      	mov	r0, r8
 800633e:	6923      	ldr	r3, [r4, #16]
 8006340:	47d0      	blx	sl
 8006342:	3001      	adds	r0, #1
 8006344:	d0ab      	beq.n	800629e <_printf_i+0x166>
 8006346:	6823      	ldr	r3, [r4, #0]
 8006348:	079b      	lsls	r3, r3, #30
 800634a:	d413      	bmi.n	8006374 <_printf_i+0x23c>
 800634c:	68e0      	ldr	r0, [r4, #12]
 800634e:	9b03      	ldr	r3, [sp, #12]
 8006350:	4298      	cmp	r0, r3
 8006352:	bfb8      	it	lt
 8006354:	4618      	movlt	r0, r3
 8006356:	e7a4      	b.n	80062a2 <_printf_i+0x16a>
 8006358:	2301      	movs	r3, #1
 800635a:	4632      	mov	r2, r6
 800635c:	4649      	mov	r1, r9
 800635e:	4640      	mov	r0, r8
 8006360:	47d0      	blx	sl
 8006362:	3001      	adds	r0, #1
 8006364:	d09b      	beq.n	800629e <_printf_i+0x166>
 8006366:	3501      	adds	r5, #1
 8006368:	68e3      	ldr	r3, [r4, #12]
 800636a:	9903      	ldr	r1, [sp, #12]
 800636c:	1a5b      	subs	r3, r3, r1
 800636e:	42ab      	cmp	r3, r5
 8006370:	dcf2      	bgt.n	8006358 <_printf_i+0x220>
 8006372:	e7eb      	b.n	800634c <_printf_i+0x214>
 8006374:	2500      	movs	r5, #0
 8006376:	f104 0619 	add.w	r6, r4, #25
 800637a:	e7f5      	b.n	8006368 <_printf_i+0x230>
 800637c:	08006aad 	.word	0x08006aad
 8006380:	08006abe 	.word	0x08006abe

08006384 <memchr>:
 8006384:	4603      	mov	r3, r0
 8006386:	b510      	push	{r4, lr}
 8006388:	b2c9      	uxtb	r1, r1
 800638a:	4402      	add	r2, r0
 800638c:	4293      	cmp	r3, r2
 800638e:	4618      	mov	r0, r3
 8006390:	d101      	bne.n	8006396 <memchr+0x12>
 8006392:	2000      	movs	r0, #0
 8006394:	e003      	b.n	800639e <memchr+0x1a>
 8006396:	7804      	ldrb	r4, [r0, #0]
 8006398:	3301      	adds	r3, #1
 800639a:	428c      	cmp	r4, r1
 800639c:	d1f6      	bne.n	800638c <memchr+0x8>
 800639e:	bd10      	pop	{r4, pc}

080063a0 <memmove>:
 80063a0:	4288      	cmp	r0, r1
 80063a2:	b510      	push	{r4, lr}
 80063a4:	eb01 0402 	add.w	r4, r1, r2
 80063a8:	d902      	bls.n	80063b0 <memmove+0x10>
 80063aa:	4284      	cmp	r4, r0
 80063ac:	4623      	mov	r3, r4
 80063ae:	d807      	bhi.n	80063c0 <memmove+0x20>
 80063b0:	1e43      	subs	r3, r0, #1
 80063b2:	42a1      	cmp	r1, r4
 80063b4:	d008      	beq.n	80063c8 <memmove+0x28>
 80063b6:	f811 2b01 	ldrb.w	r2, [r1], #1
 80063ba:	f803 2f01 	strb.w	r2, [r3, #1]!
 80063be:	e7f8      	b.n	80063b2 <memmove+0x12>
 80063c0:	4601      	mov	r1, r0
 80063c2:	4402      	add	r2, r0
 80063c4:	428a      	cmp	r2, r1
 80063c6:	d100      	bne.n	80063ca <memmove+0x2a>
 80063c8:	bd10      	pop	{r4, pc}
 80063ca:	f813 4d01 	ldrb.w	r4, [r3, #-1]!
 80063ce:	f802 4d01 	strb.w	r4, [r2, #-1]!
 80063d2:	e7f7      	b.n	80063c4 <memmove+0x24>

080063d4 <_free_r>:
 80063d4:	b538      	push	{r3, r4, r5, lr}
 80063d6:	4605      	mov	r5, r0
 80063d8:	2900      	cmp	r1, #0
 80063da:	d043      	beq.n	8006464 <_free_r+0x90>
 80063dc:	f851 3c04 	ldr.w	r3, [r1, #-4]
 80063e0:	1f0c      	subs	r4, r1, #4
 80063e2:	2b00      	cmp	r3, #0
 80063e4:	bfb8      	it	lt
 80063e6:	18e4      	addlt	r4, r4, r3
 80063e8:	f000 f8d0 	bl	800658c <__malloc_lock>
 80063ec:	4a1e      	ldr	r2, [pc, #120]	; (8006468 <_free_r+0x94>)
 80063ee:	6813      	ldr	r3, [r2, #0]
 80063f0:	4610      	mov	r0, r2
 80063f2:	b933      	cbnz	r3, 8006402 <_free_r+0x2e>
 80063f4:	6063      	str	r3, [r4, #4]
 80063f6:	6014      	str	r4, [r2, #0]
 80063f8:	4628      	mov	r0, r5
 80063fa:	e8bd 4038 	ldmia.w	sp!, {r3, r4, r5, lr}
 80063fe:	f000 b8cb 	b.w	8006598 <__malloc_unlock>
 8006402:	42a3      	cmp	r3, r4
 8006404:	d90a      	bls.n	800641c <_free_r+0x48>
 8006406:	6821      	ldr	r1, [r4, #0]
 8006408:	1862      	adds	r2, r4, r1
 800640a:	4293      	cmp	r3, r2
 800640c:	bf01      	itttt	eq
 800640e:	681a      	ldreq	r2, [r3, #0]
 8006410:	685b      	ldreq	r3, [r3, #4]
 8006412:	1852      	addeq	r2, r2, r1
 8006414:	6022      	streq	r2, [r4, #0]
 8006416:	6063      	str	r3, [r4, #4]
 8006418:	6004      	str	r4, [r0, #0]
 800641a:	e7ed      	b.n	80063f8 <_free_r+0x24>
 800641c:	461a      	mov	r2, r3
 800641e:	685b      	ldr	r3, [r3, #4]
 8006420:	b10b      	cbz	r3, 8006426 <_free_r+0x52>
 8006422:	42a3      	cmp	r3, r4
 8006424:	d9fa      	bls.n	800641c <_free_r+0x48>
 8006426:	6811      	ldr	r1, [r2, #0]
 8006428:	1850      	adds	r0, r2, r1
 800642a:	42a0      	cmp	r0, r4
 800642c:	d10b      	bne.n	8006446 <_free_r+0x72>
 800642e:	6820      	ldr	r0, [r4, #0]
 8006430:	4401      	add	r1, r0
 8006432:	1850      	adds	r0, r2, r1
 8006434:	4283      	cmp	r3, r0
 8006436:	6011      	str	r1, [r2, #0]
 8006438:	d1de      	bne.n	80063f8 <_free_r+0x24>
 800643a:	6818      	ldr	r0, [r3, #0]
 800643c:	685b      	ldr	r3, [r3, #4]
 800643e:	4401      	add	r1, r0
 8006440:	6011      	str	r1, [r2, #0]
 8006442:	6053      	str	r3, [r2, #4]
 8006444:	e7d8      	b.n	80063f8 <_free_r+0x24>
 8006446:	d902      	bls.n	800644e <_free_r+0x7a>
 8006448:	230c      	movs	r3, #12
 800644a:	602b      	str	r3, [r5, #0]
 800644c:	e7d4      	b.n	80063f8 <_free_r+0x24>
 800644e:	6820      	ldr	r0, [r4, #0]
 8006450:	1821      	adds	r1, r4, r0
 8006452:	428b      	cmp	r3, r1
 8006454:	bf01      	itttt	eq
 8006456:	6819      	ldreq	r1, [r3, #0]
 8006458:	685b      	ldreq	r3, [r3, #4]
 800645a:	1809      	addeq	r1, r1, r0
 800645c:	6021      	streq	r1, [r4, #0]
 800645e:	6063      	str	r3, [r4, #4]
 8006460:	6054      	str	r4, [r2, #4]
 8006462:	e7c9      	b.n	80063f8 <_free_r+0x24>
 8006464:	bd38      	pop	{r3, r4, r5, pc}
 8006466:	bf00      	nop
 8006468:	20000370 	.word	0x20000370

0800646c <_malloc_r>:
 800646c:	b5f8      	push	{r3, r4, r5, r6, r7, lr}
 800646e:	1ccd      	adds	r5, r1, #3
 8006470:	f025 0503 	bic.w	r5, r5, #3
 8006474:	3508      	adds	r5, #8
 8006476:	2d0c      	cmp	r5, #12
 8006478:	bf38      	it	cc
 800647a:	250c      	movcc	r5, #12
 800647c:	2d00      	cmp	r5, #0
 800647e:	4606      	mov	r6, r0
 8006480:	db01      	blt.n	8006486 <_malloc_r+0x1a>
 8006482:	42a9      	cmp	r1, r5
 8006484:	d903      	bls.n	800648e <_malloc_r+0x22>
 8006486:	230c      	movs	r3, #12
 8006488:	6033      	str	r3, [r6, #0]
 800648a:	2000      	movs	r0, #0
 800648c:	bdf8      	pop	{r3, r4, r5, r6, r7, pc}
 800648e:	f000 f87d 	bl	800658c <__malloc_lock>
 8006492:	4921      	ldr	r1, [pc, #132]	; (8006518 <_malloc_r+0xac>)
 8006494:	680a      	ldr	r2, [r1, #0]
 8006496:	4614      	mov	r4, r2
 8006498:	b99c      	cbnz	r4, 80064c2 <_malloc_r+0x56>
 800649a:	4f20      	ldr	r7, [pc, #128]	; (800651c <_malloc_r+0xb0>)
 800649c:	683b      	ldr	r3, [r7, #0]
 800649e:	b923      	cbnz	r3, 80064aa <_malloc_r+0x3e>
 80064a0:	4621      	mov	r1, r4
 80064a2:	4630      	mov	r0, r6
 80064a4:	f000 f862 	bl	800656c <_sbrk_r>
 80064a8:	6038      	str	r0, [r7, #0]
 80064aa:	4629      	mov	r1, r5
 80064ac:	4630      	mov	r0, r6
 80064ae:	f000 f85d 	bl	800656c <_sbrk_r>
 80064b2:	1c43      	adds	r3, r0, #1
 80064b4:	d123      	bne.n	80064fe <_malloc_r+0x92>
 80064b6:	230c      	movs	r3, #12
 80064b8:	4630      	mov	r0, r6
 80064ba:	6033      	str	r3, [r6, #0]
 80064bc:	f000 f86c 	bl	8006598 <__malloc_unlock>
 80064c0:	e7e3      	b.n	800648a <_malloc_r+0x1e>
 80064c2:	6823      	ldr	r3, [r4, #0]
 80064c4:	1b5b      	subs	r3, r3, r5
 80064c6:	d417      	bmi.n	80064f8 <_malloc_r+0x8c>
 80064c8:	2b0b      	cmp	r3, #11
 80064ca:	d903      	bls.n	80064d4 <_malloc_r+0x68>
 80064cc:	6023      	str	r3, [r4, #0]
 80064ce:	441c      	add	r4, r3
 80064d0:	6025      	str	r5, [r4, #0]
 80064d2:	e004      	b.n	80064de <_malloc_r+0x72>
 80064d4:	6863      	ldr	r3, [r4, #4]
 80064d6:	42a2      	cmp	r2, r4
 80064d8:	bf0c      	ite	eq
 80064da:	600b      	streq	r3, [r1, #0]
 80064dc:	6053      	strne	r3, [r2, #4]
 80064de:	4630      	mov	r0, r6
 80064e0:	f000 f85a 	bl	8006598 <__malloc_unlock>
 80064e4:	f104 000b 	add.w	r0, r4, #11
 80064e8:	1d23      	adds	r3, r4, #4
 80064ea:	f020 0007 	bic.w	r0, r0, #7
 80064ee:	1ac2      	subs	r2, r0, r3
 80064f0:	d0cc      	beq.n	800648c <_malloc_r+0x20>
 80064f2:	1a1b      	subs	r3, r3, r0
 80064f4:	50a3      	str	r3, [r4, r2]
 80064f6:	e7c9      	b.n	800648c <_malloc_r+0x20>
 80064f8:	4622      	mov	r2, r4
 80064fa:	6864      	ldr	r4, [r4, #4]
 80064fc:	e7cc      	b.n	8006498 <_malloc_r+0x2c>
 80064fe:	1cc4      	adds	r4, r0, #3
 8006500:	f024 0403 	bic.w	r4, r4, #3
 8006504:	42a0      	cmp	r0, r4
 8006506:	d0e3      	beq.n	80064d0 <_malloc_r+0x64>
 8006508:	1a21      	subs	r1, r4, r0
 800650a:	4630      	mov	r0, r6
 800650c:	f000 f82e 	bl	800656c <_sbrk_r>
 8006510:	3001      	adds	r0, #1
 8006512:	d1dd      	bne.n	80064d0 <_malloc_r+0x64>
 8006514:	e7cf      	b.n	80064b6 <_malloc_r+0x4a>
 8006516:	bf00      	nop
 8006518:	20000370 	.word	0x20000370
 800651c:	20000374 	.word	0x20000374

08006520 <_realloc_r>:
 8006520:	b5f8      	push	{r3, r4, r5, r6, r7, lr}
 8006522:	4607      	mov	r7, r0
 8006524:	4614      	mov	r4, r2
 8006526:	460e      	mov	r6, r1
 8006528:	b921      	cbnz	r1, 8006534 <_realloc_r+0x14>
 800652a:	4611      	mov	r1, r2
 800652c:	e8bd 40f8 	ldmia.w	sp!, {r3, r4, r5, r6, r7, lr}
 8006530:	f7ff bf9c 	b.w	800646c <_malloc_r>
 8006534:	b922      	cbnz	r2, 8006540 <_realloc_r+0x20>
 8006536:	f7ff ff4d 	bl	80063d4 <_free_r>
 800653a:	4625      	mov	r5, r4
 800653c:	4628      	mov	r0, r5
 800653e:	bdf8      	pop	{r3, r4, r5, r6, r7, pc}
 8006540:	f000 f830 	bl	80065a4 <_malloc_usable_size_r>
 8006544:	42a0      	cmp	r0, r4
 8006546:	d20f      	bcs.n	8006568 <_realloc_r+0x48>
 8006548:	4621      	mov	r1, r4
 800654a:	4638      	mov	r0, r7
 800654c:	f7ff ff8e 	bl	800646c <_malloc_r>
 8006550:	4605      	mov	r5, r0
 8006552:	2800      	cmp	r0, #0
 8006554:	d0f2      	beq.n	800653c <_realloc_r+0x1c>
 8006556:	4631      	mov	r1, r6
 8006558:	4622      	mov	r2, r4
 800655a:	f7ff fbeb 	bl	8005d34 <memcpy>
 800655e:	4631      	mov	r1, r6
 8006560:	4638      	mov	r0, r7
 8006562:	f7ff ff37 	bl	80063d4 <_free_r>
 8006566:	e7e9      	b.n	800653c <_realloc_r+0x1c>
 8006568:	4635      	mov	r5, r6
 800656a:	e7e7      	b.n	800653c <_realloc_r+0x1c>

0800656c <_sbrk_r>:
 800656c:	b538      	push	{r3, r4, r5, lr}
 800656e:	2300      	movs	r3, #0
 8006570:	4d05      	ldr	r5, [pc, #20]	; (8006588 <_sbrk_r+0x1c>)
 8006572:	4604      	mov	r4, r0
 8006574:	4608      	mov	r0, r1
 8006576:	602b      	str	r3, [r5, #0]
 8006578:	f7fa ffc2 	bl	8001500 <_sbrk>
 800657c:	1c43      	adds	r3, r0, #1
 800657e:	d102      	bne.n	8006586 <_sbrk_r+0x1a>
 8006580:	682b      	ldr	r3, [r5, #0]
 8006582:	b103      	cbz	r3, 8006586 <_sbrk_r+0x1a>
 8006584:	6023      	str	r3, [r4, #0]
 8006586:	bd38      	pop	{r3, r4, r5, pc}
 8006588:	20004658 	.word	0x20004658

0800658c <__malloc_lock>:
 800658c:	4801      	ldr	r0, [pc, #4]	; (8006594 <__malloc_lock+0x8>)
 800658e:	f000 b811 	b.w	80065b4 <__retarget_lock_acquire_recursive>
 8006592:	bf00      	nop
 8006594:	20004660 	.word	0x20004660

08006598 <__malloc_unlock>:
 8006598:	4801      	ldr	r0, [pc, #4]	; (80065a0 <__malloc_unlock+0x8>)
 800659a:	f000 b80c 	b.w	80065b6 <__retarget_lock_release_recursive>
 800659e:	bf00      	nop
 80065a0:	20004660 	.word	0x20004660

080065a4 <_malloc_usable_size_r>:
 80065a4:	f851 3c04 	ldr.w	r3, [r1, #-4]
 80065a8:	1f18      	subs	r0, r3, #4
 80065aa:	2b00      	cmp	r3, #0
 80065ac:	bfbc      	itt	lt
 80065ae:	580b      	ldrlt	r3, [r1, r0]
 80065b0:	18c0      	addlt	r0, r0, r3
 80065b2:	4770      	bx	lr

080065b4 <__retarget_lock_acquire_recursive>:
 80065b4:	4770      	bx	lr

080065b6 <__retarget_lock_release_recursive>:
 80065b6:	4770      	bx	lr

080065b8 <_init>:
 80065b8:	b5f8      	push	{r3, r4, r5, r6, r7, lr}
 80065ba:	bf00      	nop
 80065bc:	bcf8      	pop	{r3, r4, r5, r6, r7}
 80065be:	bc08      	pop	{r3}
 80065c0:	469e      	mov	lr, r3
 80065c2:	4770      	bx	lr

080065c4 <_fini>:
 80065c4:	b5f8      	push	{r3, r4, r5, r6, r7, lr}
 80065c6:	bf00      	nop
 80065c8:	bcf8      	pop	{r3, r4, r5, r6, r7}
 80065ca:	bc08      	pop	{r3}
 80065cc:	469e      	mov	lr, r3
 80065ce:	4770      	bx	lr
